
leo_firmware.hex:     file format ihex


Disassembly of section .sec1:

00000000 <.sec1>:
       0:	0c 94 d6 00 	jmp	0x1ac	;  0x1ac                    ; Jump
       4:	0c 94 fe 00 	jmp	0x1fc	;  0x1fc                    ; Jump
       8:	0c 94 fe 00 	jmp	0x1fc	;  0x1fc                    ; Jump
       c:	0c 94 fe 00 	jmp	0x1fc	;  0x1fc                    ; Jump
      10:	0c 94 fe 00 	jmp	0x1fc	;  0x1fc                    ; Jump
      14:	0c 94 fe 00 	jmp	0x1fc	;  0x1fc                    ; Jump
      18:	0c 94 fe 00 	jmp	0x1fc	;  0x1fc                    ; Jump
      1c:	0c 94 fe 00 	jmp	0x1fc	;  0x1fc                    ; Jump
      20:	0c 94 fe 00 	jmp	0x1fc	;  0x1fc                    ; Jump
      24:	0c 94 49 08 	jmp	0x1092	;  0x1092                  ; Jump
      28:	0c 94 5e 05 	jmp	0xabc	;  0xabc                    ; Jump
      2c:	0c 94 cd 05 	jmp	0xb9a	;  0xb9a                    ; Jump
      30:	0c 94 fe 00 	jmp	0x1fc	;  0x1fc                    ; Jump
      34:	0c 94 fe 00 	jmp	0x1fc	;  0x1fc                    ; Jump
      38:	0c 94 fe 00 	jmp	0x1fc	;  0x1fc                    ; Jump
      3c:	0c 94 fe 00 	jmp	0x1fc	;  0x1fc                    ; Jump
      40:	0c 94 fe 00 	jmp	0x1fc	;  0x1fc                    ; Jump
      44:	0c 94 fe 00 	jmp	0x1fc	;  0x1fc                    ; Jump
      48:	0c 94 fe 00 	jmp	0x1fc	;  0x1fc                    ; Jump
      4c:	0c 94 fe 00 	jmp	0x1fc	;  0x1fc                    ; Jump
      50:	0c 94 fe 00 	jmp	0x1fc	;  0x1fc                    ; Jump
      54:	0c 94 fe 00 	jmp	0x1fc	;  0x1fc                    ; Jump
      58:	0c 94 fe 00 	jmp	0x1fc	;  0x1fc                    ; Jump
      5c:	0c 94 ff 07 	jmp	0xffe	;  0xffe                    ; Jump
      60:	0c 94 fe 00 	jmp	0x1fc	;  0x1fc                    ; Jump
      64:	0c 94 fe 00 	jmp	0x1fc	;  0x1fc                    ; Jump
      68:	0c 94 fe 00 	jmp	0x1fc	;  0x1fc                    ; Jump
      6c:	0c 94 fe 00 	jmp	0x1fc	;  0x1fc                    ; Jump
      70:	0c 94 fe 00 	jmp	0x1fc	;  0x1fc                    ; Jump
      74:	0c 94 fe 00 	jmp	0x1fc	;  0x1fc                    ; Jump
      78:	0c 94 fe 00 	jmp	0x1fc	;  0x1fc                    ; Jump
      7c:	0c 94 fe 00 	jmp	0x1fc	;  0x1fc                    ; Jump
      80:	0c 94 fe 00 	jmp	0x1fc	;  0x1fc                    ; Jump
      84:	0c 94 fe 00 	jmp	0x1fc	;  0x1fc                    ; Jump
      88:	0c 94 fe 00 	jmp	0x1fc	;  0x1fc                    ; Jump
      8c:	0c 94 fe 00 	jmp	0x1fc	;  0x1fc                    ; Jump
      90:	0c 94 fe 00 	jmp	0x1fc	;  0x1fc                    ; Jump
      94:	0c 94 fe 00 	jmp	0x1fc	;  0x1fc                    ; Jump
      98:	0c 94 fe 00 	jmp	0x1fc	;  0x1fc                    ; Jump
      9c:	0c 94 fe 00 	jmp	0x1fc	;  0x1fc                    ; Jump
      a0:	0c 94 fe 00 	jmp	0x1fc	;  0x1fc                    ; Jump
      a4:	0c 94 fe 00 	jmp	0x1fc	;  0x1fc                    ; Jump
      a8:	0c 94 fe 00 	jmp	0x1fc	;  0x1fc                    ; Jump
      ac:	00 00       	nop
      ae:	00 00       	nop
      b0:	24 00       	.word	0x0024	; ????
      b2:	27 00       	.word	0x0027	; ????
      b4:	2a 00       	.word	0x002a	; ????
      b6:	2d 00       	.word	0x002d	; ????
      b8:	30 00       	.word	0x0030	; ????
      ba:	00 00       	nop
      bc:	00 02       	muls	r16, r16
      be:	00 09       	sbc	r16, r0
      c0:	0f 00       	.word	0x000f	; ????
      c2:	00 03       	mulsu	r16, r16
      c4:	04 01       	movw	r0, r8
      c6:	00 0c       	add	r0, r0
	...
      d8:	00 08       	sbc	r0, r0
      da:	0b 00       	.word	0x000b	; ????
      dc:	02 02       	muls	r16, r18
      de:	02 00       	.word	0x0002	; ????
      e0:	00 09       	sbc	r16, r0
      e2:	04 00       	.word	0x0004	; ????
      e4:	00 01       	movw	r0, r0
      e6:	02 02       	muls	r16, r18
      e8:	00 00       	nop
      ea:	05 24       	eor	r0, r5
      ec:	00 10       	cpse	r0, r0
      ee:	01 05       	cpc	r16, r1
      f0:	24 01       	movw	r4, r8
      f2:	01 01       	movw	r0, r2
      f4:	04 24       	eor	r0, r4
      f6:	02 06       	cpc	r0, r18
      f8:	05 24       	eor	r0, r5
      fa:	06 00       	.word	0x0006	; ????
      fc:	01 07       	cpc	r16, r17
      fe:	05 81       	ldd	r16, Z+5	; 0x05
     100:	03 10       	cpse	r0, r3
     102:	00 40       	sbci	r16, 0x00	; 0
     104:	09 04       	cpc	r0, r9
     106:	01 00       	.word	0x0001	; ????
     108:	02 0a       	sbc	r0, r18
     10a:	00 00       	nop
     10c:	00 07       	cpc	r16, r16
     10e:	05 02       	muls	r16, r21
     110:	02 40       	sbci	r16, 0x02	; 2
     112:	00 00       	nop
     114:	07 05       	cpc	r16, r7
     116:	83 02       	muls	r24, r19
     118:	40 00       	.word	0x0040	; ????
     11a:	00 04       	cpc	r0, r0
     11c:	03 09       	sbc	r16, r3
     11e:	04 12       	cpse	r0, r20
     120:	01 00       	.word	0x0001	; ????
     122:	02 ef       	ldi	r16, 0xF2	; 242                   ; Load immediate value
     124:	02 01       	movw	r0, r4
     126:	40 41       	sbci	r20, 0x10	; 16
     128:	23 36       	cpi	r18, 0x63	; 99                    ; Compare with immediate
     12a:	80 00       	.word	0x0080	; ????
     12c:	01 01       	movw	r0, r2
     12e:	02 03       	mulsu	r16, r18
     130:	01 41       	sbci	r16, 0x11	; 17
     132:	72 64       	ori	r23, 0x42	; 66
     134:	75 69       	ori	r23, 0x95	; 149
     136:	6e 6f       	ori	r22, 0xFE	; 254
     138:	20 4c       	sbci	r18, 0xC0	; 192
     13a:	4c 43       	sbci	r20, 0x3C	; 60
     13c:	00 41       	sbci	r16, 0x10	; 16
     13e:	72 64       	ori	r23, 0x42	; 66
     140:	75 69       	ori	r23, 0x95	; 149
     142:	6e 6f       	ori	r22, 0xFE	; 254
     144:	20 4c       	sbci	r18, 0xC0	; 192
     146:	65 6f       	ori	r22, 0xF5	; 245
     148:	6e 61       	ori	r22, 0x1E	; 30
     14a:	72 64       	ori	r23, 0x42	; 66
     14c:	6f 00       	.word	0x006f	; ????
     14e:	00 00       	nop
     150:	00 00       	nop
     152:	23 00       	.word	0x0023	; ????
     154:	26 00       	.word	0x0026	; ????
     156:	29 00       	.word	0x0029	; ????
     158:	2c 00       	.word	0x002c	; ????
     15a:	2f 00       	.word	0x002f	; ????
     15c:	00 00       	nop
     15e:	00 00       	nop
     160:	25 00       	.word	0x0025	; ????
     162:	28 00       	.word	0x0028	; ????
     164:	2b 00       	.word	0x002b	; ????
     166:	2e 00       	.word	0x002e	; ????
     168:	31 00       	.word	0x0031	; ????
     16a:	04 04       	cpc	r0, r4
     16c:	04 04       	cpc	r0, r4
     16e:	04 03       	mulsu	r16, r20
     170:	04 05       	cpc	r16, r4
     172:	02 02       	muls	r16, r18
     174:	02 02       	muls	r16, r18
     176:	04 03       	mulsu	r16, r20
     178:	02 02       	muls	r16, r18
     17a:	02 02       	muls	r16, r18
     17c:	06 06       	cpc	r0, r22
     17e:	06 06       	cpc	r0, r22
     180:	06 06       	cpc	r0, r22
     182:	04 04       	cpc	r0, r4
     184:	02 02       	muls	r16, r18
     186:	02 04       	cpc	r0, r2
     188:	04 04       	cpc	r0, r4
     18a:	08 02       	muls	r16, r24
     18c:	01 10       	cpse	r0, r1
     18e:	40 80       	ld	r4, Z
     190:	40 10       	cpse	r4, r0
     192:	20 40       	sbci	r18, 0x00	; 0
     194:	80 40       	sbci	r24, 0x00	; 0
     196:	80 08       	sbc	r8, r0
     198:	02 04       	cpc	r0, r2
     19a:	01 80       	ldd	r0, Z+1	; 0x01
     19c:	40 20       	and	r4, r0
     19e:	10 02       	muls	r17, r16
     1a0:	01 10       	cpse	r0, r1
     1a2:	80 10       	cpse	r8, r0
     1a4:	20 40       	sbci	r18, 0x00	; 0
     1a6:	40 20       	and	r4, r0
     1a8:	c1 08       	sbc	r12, r1
     1aa:	3d 0b       	sbc	r19, r29
     1ac:	11 24       	eor	r1, r1
     1ae:	1f be       	out	0x3f, r1	; 63                     ; Output to I/O port
     1b0:	cf ef       	ldi	r28, 0xFF	; 255                   ; Load immediate value
     1b2:	da e0       	ldi	r29, 0x0A	; 10                    ; Load immediate value
     1b4:	de bf       	out	0x3e, r29	; 62                    ; Output to I/O port
     1b6:	cd bf       	out	0x3d, r28	; 61                    ; Output to I/O port
     1b8:	11 e0       	ldi	r17, 0x01	; 1                     ; Load immediate value
     1ba:	a0 e0       	ldi	r26, 0x00	; 0                     ; Load immediate value
     1bc:	b1 e0       	ldi	r27, 0x01	; 1                     ; Load immediate value
     1be:	ec e1       	ldi	r30, 0x1C	; 28                    ; Load immediate value
     1c0:	f7 e1       	ldi	r31, 0x17	; 23                    ; Load immediate value
     1c2:	02 c0       	rjmp	.+4      	;  0x1c8               ; Relative jump
     1c4:	05 90       	lpm	r0, Z+
     1c6:	0d 92       	st	X+, r0
     1c8:	aa 36       	cpi	r26, 0x6A	; 106                   ; Compare with immediate
     1ca:	b1 07       	cpc	r27, r17
     1cc:	d9 f7       	brne	.-10     	;  0x1c4               ; Branch if not equal
     1ce:	22 e0       	ldi	r18, 0x02	; 2                     ; Load immediate value
     1d0:	aa e6       	ldi	r26, 0x6A	; 106                   ; Load immediate value
     1d2:	b1 e0       	ldi	r27, 0x01	; 1                     ; Load immediate value
     1d4:	01 c0       	rjmp	.+2      	;  0x1d8               ; Relative jump
     1d6:	1d 92       	st	X+, r1
     1d8:	ac 33       	cpi	r26, 0x3C	; 60                    ; Compare with immediate
     1da:	b2 07       	cpc	r27, r18
     1dc:	e1 f7       	brne	.-8      	;  0x1d6               ; Branch if not equal
     1de:	10 e0       	ldi	r17, 0x00	; 0                     ; Load immediate value
     1e0:	c5 ed       	ldi	r28, 0xD5	; 213                   ; Load immediate value
     1e2:	d0 e0       	ldi	r29, 0x00	; 0                     ; Load immediate value
     1e4:	04 c0       	rjmp	.+8      	;  0x1ee               ; Relative jump
     1e6:	21 97       	sbiw	r28, 0x01	; 1
     1e8:	fe 01       	movw	r30, r28
     1ea:	0e 94 7b 0b 	call	0x16f6	;  0x16f6                 ; Function call
     1ee:	c4 3d       	cpi	r28, 0xD4	; 212                   ; Compare with immediate
     1f0:	d1 07       	cpc	r29, r17
     1f2:	c9 f7       	brne	.-14     	;  0x1e6               ; Branch if not equal
     1f4:	0e 94 46 09 	call	0x128c	;  0x128c                 ; Function call
     1f8:	0c 94 81 0b 	jmp	0x1702	;  0x1702                  ; Jump
     1fc:	0c 94 00 00 	jmp	0	;  0x0                          ; Jump
     200:	fc 01       	movw	r30, r24
     202:	80 91 cc 01 	lds	r24, 0x01CC	;  0x8001cc           ; Load from data space
     206:	88 23       	and	r24, r24
     208:	11 f1       	breq	.+68     	;  0x24e               ; Branch if equal
     20a:	3f b7       	in	r19, 0x3f	; 63                     ; Input from I/O port
     20c:	f8 94       	cli
     20e:	82 e0       	ldi	r24, 0x02	; 2                     ; Load immediate value
     210:	80 93 e9 00 	sts	0x00E9, r24	;  0x8000e9           ; Store to data space
     214:	20 91 f2 00 	lds	r18, 0x00F2	;  0x8000f2           ; Load from data space
     218:	82 2f       	mov	r24, r18                          ; Move register to register
     21a:	90 e0       	ldi	r25, 0x00	; 0                     ; Load immediate value
     21c:	18 16       	cp	r1, r24
     21e:	19 06       	cpc	r1, r25
     220:	14 f4       	brge	.+4      	;  0x226
     222:	81 e0       	ldi	r24, 0x01	; 1                     ; Load immediate value
     224:	90 e0       	ldi	r25, 0x00	; 0                     ; Load immediate value
     226:	88 23       	and	r24, r24
     228:	39 f0       	breq	.+14     	;  0x238               ; Branch if equal
     22a:	28 98       	cbi	0x05, 0	; 5
     22c:	44 e6       	ldi	r20, 0x64	; 100                   ; Load immediate value
     22e:	40 93 cb 01 	sts	0x01CB, r20	;  0x8001cb           ; Store to data space
     232:	40 91 f1 00 	lds	r20, 0x00F1	;  0x8000f1           ; Load from data space
     236:	40 83       	st	Z, r20
     238:	22 23       	and	r18, r18
     23a:	39 f0       	breq	.+14     	;  0x24a               ; Branch if equal
     23c:	20 91 f2 00 	lds	r18, 0x00F2	;  0x8000f2           ; Load from data space
     240:	21 11       	cpse	r18, r1
     242:	03 c0       	rjmp	.+6      	;  0x24a               ; Relative jump
     244:	2b e6       	ldi	r18, 0x6B	; 107                   ; Load immediate value
     246:	20 93 e8 00 	sts	0x00E8, r18	;  0x8000e8           ; Store to data space
     24a:	3f bf       	out	0x3f, r19	; 63                    ; Output to I/O port
     24c:	08 95       	ret
     24e:	8f ef       	ldi	r24, 0xFF	; 255                   ; Load immediate value
     250:	9f ef       	ldi	r25, 0xFF	; 255                   ; Load immediate value
     252:	08 95       	ret
     254:	2f b7       	in	r18, 0x3f	; 63                     ; Input from I/O port
     256:	f8 94       	cli
     258:	83 e0       	ldi	r24, 0x03	; 3                     ; Load immediate value
     25a:	80 93 e9 00 	sts	0x00E9, r24	;  0x8000e9           ; Store to data space
     25e:	90 91 e8 00 	lds	r25, 0x00E8	;  0x8000e8           ; Load from data space
     262:	89 2f       	mov	r24, r25                          ; Move register to register
     264:	80 72       	andi	r24, 0x20	; 32
     266:	95 ff       	sbrs	r25, 5
     268:	04 c0       	rjmp	.+8      	;  0x272               ; Relative jump
     26a:	90 91 f2 00 	lds	r25, 0x00F2	;  0x8000f2           ; Load from data space
     26e:	80 e4       	ldi	r24, 0x40	; 64                    ; Load immediate value
     270:	89 1b       	sub	r24, r25
     272:	2f bf       	out	0x3f, r18	; 63                    ; Output to I/O port
     274:	08 95       	ret
     276:	80 91 c3 01 	lds	r24, 0x01C3	;  0x8001c3           ; Load from data space
     27a:	81 11       	cpse	r24, r1
     27c:	0d c0       	rjmp	.+26     	;  0x298               ; Relative jump
     27e:	82 e0       	ldi	r24, 0x02	; 2                     ; Load immediate value
     280:	80 93 bf 01 	sts	0x01BF, r24	;  0x8001bf           ; Store to data space
     284:	84 e0       	ldi	r24, 0x04	; 4                     ; Load immediate value
     286:	80 93 c0 01 	sts	0x01C0, r24	;  0x8001c0           ; Store to data space
     28a:	10 92 c2 01 	sts	0x01C2, r1	;  0x8001c2            ; Store to data space
     28e:	10 92 c1 01 	sts	0x01C1, r1	;  0x8001c1            ; Store to data space
     292:	81 e0       	ldi	r24, 0x01	; 1                     ; Load immediate value
     294:	80 93 c3 01 	sts	0x01C3, r24	;  0x8001c3           ; Store to data space
     298:	8f eb       	ldi	r24, 0xBF	; 191                   ; Load immediate value
     29a:	91 e0       	ldi	r25, 0x01	; 1                     ; Load immediate value
     29c:	08 95       	ret
     29e:	40 91 b5 01 	lds	r20, 0x01B5	;  0x8001b5           ; Load from data space
     2a2:	50 91 b6 01 	lds	r21, 0x01B6	;  0x8001b6           ; Load from data space
     2a6:	20 91 b3 01 	lds	r18, 0x01B3	;  0x8001b3           ; Load from data space
     2aa:	30 91 b4 01 	lds	r19, 0x01B4	;  0x8001b4           ; Load from data space
     2ae:	42 17       	cp	r20, r18
     2b0:	53 07       	cpc	r21, r19
     2b2:	b4 f4       	brge	.+44     	;  0x2e0
     2b4:	90 91 e8 00 	lds	r25, 0x00E8	;  0x8000e8           ; Load from data space
     2b8:	95 70       	andi	r25, 0x05	; 5
     2ba:	e1 f3       	breq	.-8      	;  0x2b4               ; Branch if equal
     2bc:	90 91 e8 00 	lds	r25, 0x00E8	;  0x8000e8           ; Load from data space
     2c0:	92 fd       	sbrc	r25, 2
     2c2:	19 c0       	rjmp	.+50     	;  0x2f6               ; Relative jump
     2c4:	80 93 f1 00 	sts	0x00F1, r24	;  0x8000f1           ; Store to data space
     2c8:	80 91 b5 01 	lds	r24, 0x01B5	;  0x8001b5           ; Load from data space
     2cc:	90 91 b6 01 	lds	r25, 0x01B6	;  0x8001b6           ; Load from data space
     2d0:	01 96       	adiw	r24, 0x01	; 1
     2d2:	8f 73       	andi	r24, 0x3F	; 63
     2d4:	99 27       	eor	r25, r25
     2d6:	89 2b       	or	r24, r25
     2d8:	19 f4       	brne	.+6      	;  0x2e0               ; Branch if not equal
     2da:	8e ef       	ldi	r24, 0xFE	; 254                   ; Load immediate value
     2dc:	80 93 e8 00 	sts	0x00E8, r24	;  0x8000e8           ; Store to data space
     2e0:	80 91 b5 01 	lds	r24, 0x01B5	;  0x8001b5           ; Load from data space
     2e4:	90 91 b6 01 	lds	r25, 0x01B6	;  0x8001b6           ; Load from data space
     2e8:	01 96       	adiw	r24, 0x01	; 1
     2ea:	90 93 b6 01 	sts	0x01B6, r25	;  0x8001b6           ; Store to data space
     2ee:	80 93 b5 01 	sts	0x01B5, r24	;  0x8001b5           ; Store to data space
     2f2:	81 e0       	ldi	r24, 0x01	; 1                     ; Load immediate value
     2f4:	08 95       	ret
     2f6:	80 e0       	ldi	r24, 0x00	; 0                     ; Load immediate value
     2f8:	08 95       	ret
     2fa:	ef 92       	push	r14                              ; Push onto stack
     2fc:	ff 92       	push	r15                              ; Push onto stack
     2fe:	0f 93       	push	r16                              ; Push onto stack
     300:	1f 93       	push	r17                              ; Push onto stack
     302:	cf 93       	push	r28                              ; Push onto stack
     304:	df 93       	push	r29                              ; Push onto stack
     306:	f8 2e       	mov	r15, r24                          ; Move register to register
     308:	19 2f       	mov	r17, r25                          ; Move register to register
     30a:	e6 2e       	mov	r14, r22                          ; Move register to register
     30c:	04 2f       	mov	r16, r20                          ; Move register to register
     30e:	81 e0       	ldi	r24, 0x01	; 1                     ; Load immediate value
     310:	86 0f       	add	r24, r22
     312:	88 0f       	add	r24, r24
     314:	0e 94 4f 01 	call	0x29e	;  0x29e                   ; Function call
     318:	83 e0       	ldi	r24, 0x03	; 3                     ; Load immediate value
     31a:	0e 94 4f 01 	call	0x29e	;  0x29e                   ; Function call
     31e:	cf 2d       	mov	r28, r15                          ; Move register to register
     320:	d1 2f       	mov	r29, r17                          ; Move register to register
     322:	ec 0e       	add	r14, r28
     324:	fd 2e       	mov	r15, r29                          ; Move register to register
     326:	f1 1c       	adc	r15, r1
     328:	ce 15       	cp	r28, r14
     32a:	df 05       	cpc	r29, r15
     32c:	b9 f0       	breq	.+46     	;  0x35c               ; Branch if equal
     32e:	07 ff       	sbrs	r16, 7
     330:	13 c0       	rjmp	.+38     	;  0x358               ; Relative jump
     332:	fe 01       	movw	r30, r28
     334:	84 91       	lpm	r24, Z
     336:	0e 94 4f 01 	call	0x29e	;  0x29e                   ; Function call
     33a:	18 2f       	mov	r17, r24                          ; Move register to register
     33c:	80 e0       	ldi	r24, 0x00	; 0                     ; Load immediate value
     33e:	0e 94 4f 01 	call	0x29e	;  0x29e                   ; Function call
     342:	81 23       	and	r24, r17
     344:	21 96       	adiw	r28, 0x01	; 1
     346:	81 11       	cpse	r24, r1
     348:	ef cf       	rjmp	.-34     	;  0x328               ; Relative jump
     34a:	df 91       	pop	r29                               ; Pop from stack
     34c:	cf 91       	pop	r28                               ; Pop from stack
     34e:	1f 91       	pop	r17                               ; Pop from stack
     350:	0f 91       	pop	r16                               ; Pop from stack
     352:	ff 90       	pop	r15                               ; Pop from stack
     354:	ef 90       	pop	r14                               ; Pop from stack
     356:	08 95       	ret
     358:	88 81       	ld	r24, Y
     35a:	ed cf       	rjmp	.-38     	;  0x336               ; Relative jump
     35c:	81 e0       	ldi	r24, 0x01	; 1                     ; Load immediate value
     35e:	f5 cf       	rjmp	.-22     	;  0x34a               ; Relative jump
     360:	df 92       	push	r13                              ; Push onto stack
     362:	ef 92       	push	r14                              ; Push onto stack
     364:	ff 92       	push	r15                              ; Push onto stack
     366:	0f 93       	push	r16                              ; Push onto stack
     368:	1f 93       	push	r17                              ; Push onto stack
     36a:	cf 93       	push	r28                              ; Push onto stack
     36c:	df 93       	push	r29                              ; Push onto stack
     36e:	d8 2e       	mov	r13, r24                          ; Move register to register
     370:	8a 01       	movw	r16, r20
     372:	eb 01       	movw	r28, r22
     374:	7b 01       	movw	r14, r22
     376:	e4 0e       	add	r14, r20
     378:	f5 1e       	adc	r15, r21
     37a:	ce 15       	cp	r28, r14
     37c:	df 05       	cpc	r29, r15
     37e:	59 f0       	breq	.+22     	;  0x396               ; Branch if equal
     380:	d7 fe       	sbrs	r13, 7
     382:	12 c0       	rjmp	.+36     	;  0x3a8               ; Relative jump
     384:	fe 01       	movw	r30, r28
     386:	84 91       	lpm	r24, Z
     388:	0e 94 4f 01 	call	0x29e	;  0x29e                   ; Function call
     38c:	21 96       	adiw	r28, 0x01	; 1
     38e:	81 11       	cpse	r24, r1
     390:	f4 cf       	rjmp	.-24     	;  0x37a               ; Relative jump
     392:	0f ef       	ldi	r16, 0xFF	; 255                   ; Load immediate value
     394:	1f ef       	ldi	r17, 0xFF	; 255                   ; Load immediate value
     396:	c8 01       	movw	r24, r16
     398:	df 91       	pop	r29                               ; Pop from stack
     39a:	cf 91       	pop	r28                               ; Pop from stack
     39c:	1f 91       	pop	r17                               ; Pop from stack
     39e:	0f 91       	pop	r16                               ; Pop from stack
     3a0:	ff 90       	pop	r15                               ; Pop from stack
     3a2:	ef 90       	pop	r14                               ; Pop from stack
     3a4:	df 90       	pop	r13                               ; Pop from stack
     3a6:	08 95       	ret
     3a8:	88 81       	ld	r24, Y
     3aa:	ee cf       	rjmp	.-36     	;  0x388               ; Relative jump
     3ac:	0f 93       	push	r16                              ; Push onto stack
     3ae:	1f 93       	push	r17                              ; Push onto stack
     3b0:	cf 93       	push	r28                              ; Push onto stack
     3b2:	df 93       	push	r29                              ; Push onto stack
     3b4:	1f 92       	push	r1                               ; Push onto stack
     3b6:	cd b7       	in	r28, 0x3d	; 61                     ; Input from I/O port
     3b8:	de b7       	in	r29, 0x3e	; 62                     ; Input from I/O port
     3ba:	82 e0       	ldi	r24, 0x02	; 2                     ; Load immediate value
     3bc:	89 83       	std	Y+1, r24	; 0x01
     3be:	42 e4       	ldi	r20, 0x42	; 66                    ; Load immediate value
     3c0:	50 e0       	ldi	r21, 0x00	; 0                     ; Load immediate value
     3c2:	69 ed       	ldi	r22, 0xD9	; 217                   ; Load immediate value
     3c4:	70 e0       	ldi	r23, 0x00	; 0                     ; Load immediate value
     3c6:	80 e8       	ldi	r24, 0x80	; 128                   ; Load immediate value
     3c8:	0e 94 b0 01 	call	0x360	;  0x360                   ; Function call
     3cc:	0e 94 3b 01 	call	0x276	;  0x276                   ; Function call
     3d0:	dc 01       	movw	r26, r24
     3d2:	12 96       	adiw	r26, 0x02	; 2
     3d4:	0d 91       	ld	r16, X+
     3d6:	1c 91       	ld	r17, X
     3d8:	01 15       	cp	r16, r1
     3da:	11 05       	cpc	r17, r1
     3dc:	89 f0       	breq	.+34     	;  0x400               ; Branch if equal
     3de:	d8 01       	movw	r26, r16
     3e0:	ed 91       	ld	r30, X+
     3e2:	fc 91       	ld	r31, X
     3e4:	02 80       	ldd	r0, Z+2	; 0x02
     3e6:	f3 81       	ldd	r31, Z+3	; 0x03
     3e8:	e0 2d       	mov	r30, r0                           ; Move register to register
     3ea:	be 01       	movw	r22, r28
     3ec:	6f 5f       	subi	r22, 0xFF	; 255
     3ee:	7f 4f       	sbci	r23, 0xFF	; 255
     3f0:	c8 01       	movw	r24, r16
     3f2:	09 95       	icall
     3f4:	97 fd       	sbrc	r25, 7
     3f6:	04 c0       	rjmp	.+8      	;  0x400               ; Relative jump
     3f8:	f8 01       	movw	r30, r16
     3fa:	00 85       	ldd	r16, Z+8	; 0x08
     3fc:	11 85       	ldd	r17, Z+9	; 0x09
     3fe:	ec cf       	rjmp	.-40     	;  0x3d8               ; Relative jump
     400:	89 81       	ldd	r24, Y+1	; 0x01
     402:	0f 90       	pop	r0                                ; Pop from stack
     404:	df 91       	pop	r29                               ; Pop from stack
     406:	cf 91       	pop	r28                               ; Pop from stack
     408:	1f 91       	pop	r17                               ; Pop from stack
     40a:	0f 91       	pop	r16                               ; Pop from stack
     40c:	08 95       	ret
     40e:	61 50       	subi	r22, 0x01	; 1
     410:	30 f0       	brcs	.+12     	;  0x41e
     412:	20 91 f1 00 	lds	r18, 0x00F1	;  0x8000f1           ; Load from data space
     416:	fc 01       	movw	r30, r24
     418:	20 83       	st	Z, r18
     41a:	01 96       	adiw	r24, 0x01	; 1
     41c:	f8 cf       	rjmp	.-16     	;  0x40e               ; Relative jump
     41e:	28 98       	cbi	0x05, 0	; 5
     420:	84 e6       	ldi	r24, 0x64	; 100                   ; Load immediate value
     422:	80 93 cb 01 	sts	0x01CB, r24	;  0x8001cb           ; Store to data space
     426:	08 95       	ret
     428:	af 92       	push	r10                              ; Push onto stack
     42a:	bf 92       	push	r11                              ; Push onto stack
     42c:	cf 92       	push	r12                              ; Push onto stack
     42e:	df 92       	push	r13                              ; Push onto stack
     430:	ef 92       	push	r14                              ; Push onto stack
     432:	ff 92       	push	r15                              ; Push onto stack
     434:	0f 93       	push	r16                              ; Push onto stack
     436:	1f 93       	push	r17                              ; Push onto stack
     438:	cf 93       	push	r28                              ; Push onto stack
     43a:	df 93       	push	r29                              ; Push onto stack
     43c:	6c 01       	movw	r12, r24
     43e:	7b 01       	movw	r14, r22
     440:	8b 01       	movw	r16, r22
     442:	04 0f       	add	r16, r20
     444:	15 1f       	adc	r17, r21
     446:	eb 01       	movw	r28, r22
     448:	5e 01       	movw	r10, r28
     44a:	ae 18       	sub	r10, r14
     44c:	bf 08       	sbc	r11, r15
     44e:	c0 17       	cp	r28, r16
     450:	d1 07       	cpc	r29, r17
     452:	59 f0       	breq	.+22     	;  0x46a               ; Branch if equal
     454:	69 91       	ld	r22, Y+
     456:	d6 01       	movw	r26, r12
     458:	ed 91       	ld	r30, X+
     45a:	fc 91       	ld	r31, X
     45c:	01 90       	ld	r0, Z+
     45e:	f0 81       	ld	r31, Z
     460:	e0 2d       	mov	r30, r0                           ; Move register to register
     462:	c6 01       	movw	r24, r12
     464:	09 95       	icall
     466:	89 2b       	or	r24, r25
     468:	79 f7       	brne	.-34     	;  0x448               ; Branch if not equal
     46a:	c5 01       	movw	r24, r10
     46c:	df 91       	pop	r29                               ; Pop from stack
     46e:	cf 91       	pop	r28                               ; Pop from stack
     470:	1f 91       	pop	r17                               ; Pop from stack
     472:	0f 91       	pop	r16                               ; Pop from stack
     474:	ff 90       	pop	r15                               ; Pop from stack
     476:	ef 90       	pop	r14                               ; Pop from stack
     478:	df 90       	pop	r13                               ; Pop from stack
     47a:	cf 90       	pop	r12                               ; Pop from stack
     47c:	bf 90       	pop	r11                               ; Pop from stack
     47e:	af 90       	pop	r10                               ; Pop from stack
     480:	08 95       	ret
     482:	cf 93       	push	r28                              ; Push onto stack
     484:	df 93       	push	r29                              ; Push onto stack
     486:	1f 92       	push	r1                               ; Push onto stack
     488:	cd b7       	in	r28, 0x3d	; 61                     ; Input from I/O port
     48a:	de b7       	in	r29, 0x3e	; 62                     ; Input from I/O port
     48c:	69 83       	std	Y+1, r22	; 0x01
     48e:	dc 01       	movw	r26, r24
     490:	ed 91       	ld	r30, X+
     492:	fc 91       	ld	r31, X
     494:	02 80       	ldd	r0, Z+2	; 0x02
     496:	f3 81       	ldd	r31, Z+3	; 0x03
     498:	e0 2d       	mov	r30, r0                           ; Move register to register
     49a:	41 e0       	ldi	r20, 0x01	; 1                     ; Load immediate value
     49c:	50 e0       	ldi	r21, 0x00	; 0                     ; Load immediate value
     49e:	be 01       	movw	r22, r28
     4a0:	6f 5f       	subi	r22, 0xFF	; 255
     4a2:	7f 4f       	sbci	r23, 0xFF	; 255
     4a4:	09 95       	icall
     4a6:	0f 90       	pop	r0                                ; Pop from stack
     4a8:	df 91       	pop	r29                               ; Pop from stack
     4aa:	cf 91       	pop	r28                               ; Pop from stack
     4ac:	08 95       	ret
     4ae:	83 e0       	ldi	r24, 0x03	; 3                     ; Load immediate value
     4b0:	80 93 e9 00 	sts	0x00E9, r24	;  0x8000e9           ; Store to data space
     4b4:	80 91 f2 00 	lds	r24, 0x00F2	;  0x8000f2           ; Load from data space
     4b8:	88 23       	and	r24, r24
     4ba:	19 f0       	breq	.+6      	;  0x4c2               ; Branch if equal
     4bc:	8a e3       	ldi	r24, 0x3A	; 58                    ; Load immediate value
     4be:	80 93 e8 00 	sts	0x00E8, r24	;  0x8000e8           ; Store to data space
     4c2:	08 95       	ret
     4c4:	0e 94 2a 01 	call	0x254	;  0x254                   ; Function call
     4c8:	90 e0       	ldi	r25, 0x00	; 0                     ; Load immediate value
     4ca:	08 95       	ret
     4cc:	cf 93       	push	r28                              ; Push onto stack
     4ce:	df 93       	push	r29                              ; Push onto stack
     4d0:	1f 92       	push	r1                               ; Push onto stack
     4d2:	cd b7       	in	r28, 0x3d	; 61                     ; Input from I/O port
     4d4:	de b7       	in	r29, 0x3e	; 62                     ; Input from I/O port
     4d6:	fc 01       	movw	r30, r24
     4d8:	84 85       	ldd	r24, Z+12	; 0x0c
     4da:	95 85       	ldd	r25, Z+13	; 0x0d
     4dc:	97 fd       	sbrc	r25, 7
     4de:	08 c0       	rjmp	.+16     	;  0x4f0               ; Relative jump
     4e0:	2f ef       	ldi	r18, 0xFF	; 255                   ; Load immediate value
     4e2:	3f ef       	ldi	r19, 0xFF	; 255                   ; Load immediate value
     4e4:	35 87       	std	Z+13, r19	; 0x0d
     4e6:	24 87       	std	Z+12, r18	; 0x0c
     4e8:	0f 90       	pop	r0                                ; Pop from stack
     4ea:	df 91       	pop	r29                               ; Pop from stack
     4ec:	cf 91       	pop	r28                               ; Pop from stack
     4ee:	08 95       	ret
     4f0:	ce 01       	movw	r24, r28
     4f2:	01 96       	adiw	r24, 0x01	; 1
     4f4:	0e 94 00 01 	call	0x200	;  0x200                   ; Function call
     4f8:	01 97       	sbiw	r24, 0x01	; 1
     4fa:	19 f4       	brne	.+6      	;  0x502               ; Branch if not equal
     4fc:	89 81       	ldd	r24, Y+1	; 0x01
     4fe:	90 e0       	ldi	r25, 0x00	; 0                     ; Load immediate value
     500:	f3 cf       	rjmp	.-26     	;  0x4e8               ; Relative jump
     502:	8f ef       	ldi	r24, 0xFF	; 255                   ; Load immediate value
     504:	9f ef       	ldi	r25, 0xFF	; 255                   ; Load immediate value
     506:	f0 cf       	rjmp	.-32     	;  0x4e8               ; Relative jump
     508:	0f 93       	push	r16                              ; Push onto stack
     50a:	1f 93       	push	r17                              ; Push onto stack
     50c:	cf 93       	push	r28                              ; Push onto stack
     50e:	df 93       	push	r29                              ; Push onto stack
     510:	1f 92       	push	r1                               ; Push onto stack
     512:	cd b7       	in	r28, 0x3d	; 61                     ; Input from I/O port
     514:	de b7       	in	r29, 0x3e	; 62                     ; Input from I/O port
     516:	8c 01       	movw	r16, r24
     518:	fc 01       	movw	r30, r24
     51a:	84 85       	ldd	r24, Z+12	; 0x0c
     51c:	95 85       	ldd	r25, Z+13	; 0x0d
     51e:	97 ff       	sbrs	r25, 7
     520:	0b c0       	rjmp	.+22     	;  0x538               ; Relative jump
     522:	ce 01       	movw	r24, r28
     524:	01 96       	adiw	r24, 0x01	; 1
     526:	0e 94 00 01 	call	0x200	;  0x200                   ; Function call
     52a:	01 97       	sbiw	r24, 0x01	; 1
     52c:	71 f4       	brne	.+28     	;  0x54a               ; Branch if not equal
     52e:	89 81       	ldd	r24, Y+1	; 0x01
     530:	90 e0       	ldi	r25, 0x00	; 0                     ; Load immediate value
     532:	f8 01       	movw	r30, r16
     534:	95 87       	std	Z+13, r25	; 0x0d
     536:	84 87       	std	Z+12, r24	; 0x0c
     538:	f8 01       	movw	r30, r16
     53a:	84 85       	ldd	r24, Z+12	; 0x0c
     53c:	95 85       	ldd	r25, Z+13	; 0x0d
     53e:	0f 90       	pop	r0                                ; Pop from stack
     540:	df 91       	pop	r29                               ; Pop from stack
     542:	cf 91       	pop	r28                               ; Pop from stack
     544:	1f 91       	pop	r17                               ; Pop from stack
     546:	0f 91       	pop	r16                               ; Pop from stack
     548:	08 95       	ret
     54a:	8f ef       	ldi	r24, 0xFF	; 255                   ; Load immediate value
     54c:	9f ef       	ldi	r25, 0xFF	; 255                   ; Load immediate value
     54e:	f1 cf       	rjmp	.-30     	;  0x532               ; Relative jump
     550:	fc 01       	movw	r30, r24
     552:	84 85       	ldd	r24, Z+12	; 0x0c
     554:	95 85       	ldd	r25, Z+13	; 0x0d
     556:	97 fd       	sbrc	r25, 7
     558:	0b c0       	rjmp	.+22     	;  0x570               ; Relative jump
     55a:	9f b7       	in	r25, 0x3f	; 63                     ; Input from I/O port
     55c:	f8 94       	cli
     55e:	82 e0       	ldi	r24, 0x02	; 2                     ; Load immediate value
     560:	80 93 e9 00 	sts	0x00E9, r24	;  0x8000e9           ; Store to data space
     564:	80 91 f2 00 	lds	r24, 0x00F2	;  0x8000f2           ; Load from data space
     568:	9f bf       	out	0x3f, r25	; 63                    ; Output to I/O port
     56a:	90 e0       	ldi	r25, 0x00	; 0                     ; Load immediate value
     56c:	01 96       	adiw	r24, 0x01	; 1
     56e:	08 95       	ret
     570:	9f b7       	in	r25, 0x3f	; 63                     ; Input from I/O port
     572:	f8 94       	cli
     574:	82 e0       	ldi	r24, 0x02	; 2                     ; Load immediate value
     576:	80 93 e9 00 	sts	0x00E9, r24	;  0x8000e9           ; Store to data space
     57a:	80 91 f2 00 	lds	r24, 0x00F2	;  0x8000f2           ; Load from data space
     57e:	9f bf       	out	0x3f, r25	; 63                    ; Output to I/O port
     580:	90 e0       	ldi	r25, 0x00	; 0                     ; Load immediate value
     582:	08 95       	ret
     584:	28 2f       	mov	r18, r24                          ; Move register to register
     586:	30 e0       	ldi	r19, 0x00	; 0                     ; Load immediate value
     588:	f9 01       	movw	r30, r18
     58a:	e6 54       	subi	r30, 0x46	; 70
     58c:	ff 4f       	sbci	r31, 0xFF	; 255
     58e:	94 91       	lpm	r25, Z
     590:	f9 01       	movw	r30, r18
     592:	e7 57       	subi	r30, 0x77	; 119
     594:	fe 4f       	sbci	r31, 0xFE	; 254
     596:	84 91       	lpm	r24, Z
     598:	26 59       	subi	r18, 0x96	; 150
     59a:	3e 4f       	sbci	r19, 0xFE	; 254
     59c:	f9 01       	movw	r30, r18
     59e:	24 91       	lpm	r18, Z
     5a0:	22 23       	and	r18, r18
     5a2:	09 f4       	brne	.+2      	;  0x5a6               ; Branch if not equal
     5a4:	30 c0       	rjmp	.+96     	;  0x606               ; Relative jump
     5a6:	99 23       	and	r25, r25
     5a8:	e9 f0       	breq	.+58     	;  0x5e4               ; Branch if equal
     5aa:	91 50       	subi	r25, 0x01	; 1
     5ac:	9f 30       	cpi	r25, 0x0F	; 15                    ; Compare with immediate
     5ae:	d0 f4       	brcc	.+52     	;  0x5e4
     5b0:	e9 2f       	mov	r30, r25                          ; Move register to register
     5b2:	f0 e0       	ldi	r31, 0x00	; 0                     ; Load immediate value
     5b4:	e2 52       	subi	r30, 0x22	; 34
     5b6:	fd 4f       	sbci	r31, 0xFD	; 253
     5b8:	0c 94 7b 0b 	jmp	0x16f6	;  0x16f6                  ; Jump
     5bc:	0c 03       	fmul	r16, r20
     5be:	10 03       	mulsu	r17, r16
     5c0:	ed 02       	muls	r30, r29
     5c2:	04 03       	mulsu	r16, r20
     5c4:	08 03       	fmul	r16, r16
     5c6:	f2 02       	muls	r31, r18
     5c8:	f2 02       	muls	r31, r18
     5ca:	f2 02       	muls	r31, r18
     5cc:	13 03       	mulsu	r17, r19
     5ce:	19 03       	fmul	r17, r17
     5d0:	1d 03       	fmul	r17, r21
     5d2:	21 03       	mulsu	r18, r17
     5d4:	27 03       	mulsu	r18, r23
     5d6:	f2 02       	muls	r31, r18
     5d8:	2b 03       	fmul	r18, r19
     5da:	90 91 80 00 	lds	r25, 0x0080	;  0x800080           ; Load from data space
     5de:	9f 77       	andi	r25, 0x7F	; 127
     5e0:	90 93 80 00 	sts	0x0080, r25	;  0x800080           ; Store to data space
     5e4:	e2 2f       	mov	r30, r18                          ; Move register to register
     5e6:	f0 e0       	ldi	r31, 0x00	; 0                     ; Load immediate value
     5e8:	ee 0f       	add	r30, r30
     5ea:	ff 1f       	adc	r31, r31
     5ec:	e4 5a       	subi	r30, 0xA4	; 164
     5ee:	fe 4f       	sbci	r31, 0xFE	; 254
     5f0:	a5 91       	lpm	r26, Z+
     5f2:	b4 91       	lpm	r27, Z
     5f4:	9f b7       	in	r25, 0x3f	; 63                     ; Input from I/O port
     5f6:	f8 94       	cli
     5f8:	ec 91       	ld	r30, X
     5fa:	61 11       	cpse	r22, r1
     5fc:	32 c0       	rjmp	.+100    	;  0x662               ; Relative jump
     5fe:	80 95       	com	r24
     600:	8e 23       	and	r24, r30
     602:	8c 93       	st	X, r24
     604:	9f bf       	out	0x3f, r25	; 63                    ; Output to I/O port
     606:	08 95       	ret
     608:	90 91 80 00 	lds	r25, 0x0080	;  0x800080           ; Load from data space
     60c:	9f 7d       	andi	r25, 0xDF	; 223
     60e:	e8 cf       	rjmp	.-48     	;  0x5e0               ; Relative jump
     610:	90 91 80 00 	lds	r25, 0x0080	;  0x800080           ; Load from data space
     614:	97 7f       	andi	r25, 0xF7	; 247
     616:	e4 cf       	rjmp	.-56     	;  0x5e0               ; Relative jump
     618:	94 b5       	in	r25, 0x24	; 36                     ; Input from I/O port
     61a:	9f 77       	andi	r25, 0x7F	; 127
     61c:	94 bd       	out	0x24, r25	; 36                    ; Output to I/O port
     61e:	e2 cf       	rjmp	.-60     	;  0x5e4               ; Relative jump
     620:	94 b5       	in	r25, 0x24	; 36                     ; Input from I/O port
     622:	9f 7d       	andi	r25, 0xDF	; 223
     624:	fb cf       	rjmp	.-10     	;  0x61c               ; Relative jump
     626:	90 91 90 00 	lds	r25, 0x0090	;  0x800090           ; Load from data space
     62a:	9f 77       	andi	r25, 0x7F	; 127
     62c:	90 93 90 00 	sts	0x0090, r25	;  0x800090           ; Store to data space
     630:	d9 cf       	rjmp	.-78     	;  0x5e4               ; Relative jump
     632:	90 91 90 00 	lds	r25, 0x0090	;  0x800090           ; Load from data space
     636:	9f 7d       	andi	r25, 0xDF	; 223
     638:	f9 cf       	rjmp	.-14     	;  0x62c               ; Relative jump
     63a:	90 91 90 00 	lds	r25, 0x0090	;  0x800090           ; Load from data space
     63e:	97 7f       	andi	r25, 0xF7	; 247
     640:	f5 cf       	rjmp	.-22     	;  0x62c               ; Relative jump
     642:	90 91 c0 00 	lds	r25, 0x00C0	;  0x8000c0           ; Load from data space
     646:	9f 77       	andi	r25, 0x7F	; 127
     648:	90 93 c0 00 	sts	0x00C0, r25	;  0x8000c0           ; Store to data space
     64c:	cb cf       	rjmp	.-106    	;  0x5e4               ; Relative jump
     64e:	90 91 c0 00 	lds	r25, 0x00C0	;  0x8000c0           ; Load from data space
     652:	9f 7d       	andi	r25, 0xDF	; 223
     654:	f9 cf       	rjmp	.-14     	;  0x648               ; Relative jump
     656:	90 91 c2 00 	lds	r25, 0x00C2	;  0x8000c2           ; Load from data space
     65a:	97 7f       	andi	r25, 0xF7	; 247
     65c:	90 93 c2 00 	sts	0x00C2, r25	;  0x8000c2           ; Store to data space
     660:	c1 cf       	rjmp	.-126    	;  0x5e4               ; Relative jump
     662:	8e 2b       	or	r24, r30
     664:	ce cf       	rjmp	.-100    	;  0x602               ; Relative jump
     666:	cf 93       	push	r28                              ; Push onto stack
     668:	df 93       	push	r29                              ; Push onto stack
     66a:	90 e0       	ldi	r25, 0x00	; 0                     ; Load immediate value
     66c:	fc 01       	movw	r30, r24
     66e:	e7 57       	subi	r30, 0x77	; 119
     670:	fe 4f       	sbci	r31, 0xFE	; 254
     672:	24 91       	lpm	r18, Z
     674:	86 59       	subi	r24, 0x96	; 150
     676:	9e 4f       	sbci	r25, 0xFE	; 254
     678:	fc 01       	movw	r30, r24
     67a:	84 91       	lpm	r24, Z
     67c:	88 23       	and	r24, r24
     67e:	d1 f0       	breq	.+52     	;  0x6b4               ; Branch if equal
     680:	90 e0       	ldi	r25, 0x00	; 0                     ; Load immediate value
     682:	88 0f       	add	r24, r24
     684:	99 1f       	adc	r25, r25
     686:	fc 01       	movw	r30, r24
     688:	e4 55       	subi	r30, 0x54	; 84
     68a:	ff 4f       	sbci	r31, 0xFF	; 255
     68c:	a5 91       	lpm	r26, Z+
     68e:	b4 91       	lpm	r27, Z
     690:	fc 01       	movw	r30, r24
     692:	e4 5a       	subi	r30, 0xA4	; 164
     694:	fe 4f       	sbci	r31, 0xFE	; 254
     696:	c5 91       	lpm	r28, Z+
     698:	d4 91       	lpm	r29, Z
     69a:	61 11       	cpse	r22, r1
     69c:	0e c0       	rjmp	.+28     	;  0x6ba               ; Relative jump
     69e:	9f b7       	in	r25, 0x3f	; 63                     ; Input from I/O port
     6a0:	f8 94       	cli
     6a2:	8c 91       	ld	r24, X
     6a4:	e2 2f       	mov	r30, r18                          ; Move register to register
     6a6:	e0 95       	com	r30
     6a8:	8e 23       	and	r24, r30
     6aa:	8c 93       	st	X, r24
     6ac:	28 81       	ld	r18, Y
     6ae:	e2 23       	and	r30, r18
     6b0:	e8 83       	st	Y, r30
     6b2:	9f bf       	out	0x3f, r25	; 63                    ; Output to I/O port
     6b4:	df 91       	pop	r29                               ; Pop from stack
     6b6:	cf 91       	pop	r28                               ; Pop from stack
     6b8:	08 95       	ret
     6ba:	8f b7       	in	r24, 0x3f	; 63                     ; Input from I/O port
     6bc:	f8 94       	cli
     6be:	ec 91       	ld	r30, X
     6c0:	e2 2b       	or	r30, r18
     6c2:	ec 93       	st	X, r30
     6c4:	8f bf       	out	0x3f, r24	; 63                    ; Output to I/O port
     6c6:	f6 cf       	rjmp	.-20     	;  0x6b4               ; Relative jump
     6c8:	3f b7       	in	r19, 0x3f	; 63                     ; Input from I/O port
     6ca:	f8 94       	cli
     6cc:	80 91 af 01 	lds	r24, 0x01AF	;  0x8001af           ; Load from data space
     6d0:	90 91 b0 01 	lds	r25, 0x01B0	;  0x8001b0           ; Load from data space
     6d4:	a0 91 b1 01 	lds	r26, 0x01B1	;  0x8001b1           ; Load from data space
     6d8:	b0 91 b2 01 	lds	r27, 0x01B2	;  0x8001b2           ; Load from data space
     6dc:	26 b5       	in	r18, 0x26	; 38                     ; Input from I/O port
     6de:	a8 9b       	sbis	0x15, 0	; 21
     6e0:	05 c0       	rjmp	.+10     	;  0x6ec               ; Relative jump
     6e2:	2f 3f       	cpi	r18, 0xFF	; 255                   ; Compare with immediate
     6e4:	19 f0       	breq	.+6      	;  0x6ec               ; Branch if equal
     6e6:	01 96       	adiw	r24, 0x01	; 1
     6e8:	a1 1d       	adc	r26, r1
     6ea:	b1 1d       	adc	r27, r1
     6ec:	3f bf       	out	0x3f, r19	; 63                    ; Output to I/O port
     6ee:	ba 2f       	mov	r27, r26                          ; Move register to register
     6f0:	a9 2f       	mov	r26, r25                          ; Move register to register
     6f2:	98 2f       	mov	r25, r24                          ; Move register to register
     6f4:	88 27       	eor	r24, r24
     6f6:	bc 01       	movw	r22, r24
     6f8:	cd 01       	movw	r24, r26
     6fa:	62 0f       	add	r22, r18
     6fc:	71 1d       	adc	r23, r1
     6fe:	81 1d       	adc	r24, r1
     700:	91 1d       	adc	r25, r1
     702:	42 e0       	ldi	r20, 0x02	; 2                     ; Load immediate value
     704:	66 0f       	add	r22, r22
     706:	77 1f       	adc	r23, r23
     708:	88 1f       	adc	r24, r24
     70a:	99 1f       	adc	r25, r25
     70c:	4a 95       	dec	r20
     70e:	d1 f7       	brne	.-12     	;  0x704               ; Branch if not equal
     710:	08 95       	ret
     712:	8f 92       	push	r8                               ; Push onto stack
     714:	9f 92       	push	r9                               ; Push onto stack
     716:	af 92       	push	r10                              ; Push onto stack
     718:	bf 92       	push	r11                              ; Push onto stack
     71a:	cf 92       	push	r12                              ; Push onto stack
     71c:	df 92       	push	r13                              ; Push onto stack
     71e:	ef 92       	push	r14                              ; Push onto stack
     720:	ff 92       	push	r15                              ; Push onto stack
     722:	4b 01       	movw	r8, r22
     724:	5c 01       	movw	r10, r24
     726:	0e 94 64 03 	call	0x6c8	;  0x6c8                   ; Function call
     72a:	6b 01       	movw	r12, r22
     72c:	7c 01       	movw	r14, r24
     72e:	0e 94 64 03 	call	0x6c8	;  0x6c8                   ; Function call
     732:	6c 19       	sub	r22, r12
     734:	7d 09       	sbc	r23, r13
     736:	8e 09       	sbc	r24, r14
     738:	9f 09       	sbc	r25, r15
     73a:	68 3e       	cpi	r22, 0xE8	; 232                   ; Compare with immediate
     73c:	73 40       	sbci	r23, 0x03	; 3
     73e:	81 05       	cpc	r24, r1
     740:	91 05       	cpc	r25, r1
     742:	a8 f3       	brcs	.-22     	;  0x72e
     744:	21 e0       	ldi	r18, 0x01	; 1                     ; Load immediate value
     746:	82 1a       	sub	r8, r18
     748:	91 08       	sbc	r9, r1
     74a:	a1 08       	sbc	r10, r1
     74c:	b1 08       	sbc	r11, r1
     74e:	88 ee       	ldi	r24, 0xE8	; 232                   ; Load immediate value
     750:	c8 0e       	add	r12, r24
     752:	83 e0       	ldi	r24, 0x03	; 3                     ; Load immediate value
     754:	d8 1e       	adc	r13, r24
     756:	e1 1c       	adc	r14, r1
     758:	f1 1c       	adc	r15, r1
     75a:	81 14       	cp	r8, r1
     75c:	91 04       	cpc	r9, r1
     75e:	a1 04       	cpc	r10, r1
     760:	b1 04       	cpc	r11, r1
     762:	29 f7       	brne	.-54     	;  0x72e               ; Branch if not equal
     764:	ff 90       	pop	r15                               ; Pop from stack
     766:	ef 90       	pop	r14                               ; Pop from stack
     768:	df 90       	pop	r13                               ; Pop from stack
     76a:	cf 90       	pop	r12                               ; Pop from stack
     76c:	bf 90       	pop	r11                               ; Pop from stack
     76e:	af 90       	pop	r10                               ; Pop from stack
     770:	9f 90       	pop	r9                                ; Pop from stack
     772:	8f 90       	pop	r8                                ; Pop from stack
     774:	08 95       	ret
     776:	8f 92       	push	r8                               ; Push onto stack
     778:	9f 92       	push	r9                               ; Push onto stack
     77a:	af 92       	push	r10                              ; Push onto stack
     77c:	bf 92       	push	r11                              ; Push onto stack
     77e:	cf 92       	push	r12                              ; Push onto stack
     780:	df 92       	push	r13                              ; Push onto stack
     782:	ef 92       	push	r14                              ; Push onto stack
     784:	ff 92       	push	r15                              ; Push onto stack
     786:	0f 93       	push	r16                              ; Push onto stack
     788:	1f 93       	push	r17                              ; Push onto stack
     78a:	cf 93       	push	r28                              ; Push onto stack
     78c:	df 93       	push	r29                              ; Push onto stack
     78e:	6c 01       	movw	r12, r24
     790:	7b 01       	movw	r14, r22
     792:	8a 01       	movw	r16, r20
     794:	80 91 0b 01 	lds	r24, 0x010B	;  0x80010b           ; Load from data space
     798:	88 23       	and	r24, r24
     79a:	09 f4       	brne	.+2      	;  0x79e               ; Branch if not equal
     79c:	5c c0       	rjmp	.+184    	;  0x856               ; Relative jump
     79e:	80 91 cc 01 	lds	r24, 0x01CC	;  0x8001cc           ; Load from data space
     7a2:	88 23       	and	r24, r24
     7a4:	09 f4       	brne	.+2      	;  0x7a8               ; Branch if not equal
     7a6:	57 c0       	rjmp	.+174    	;  0x856               ; Relative jump
     7a8:	80 91 b9 01 	lds	r24, 0x01B9	;  0x8001b9           ; Load from data space
     7ac:	80 ff       	sbrs	r24, 0
     7ae:	05 c0       	rjmp	.+10     	;  0x7ba               ; Relative jump
     7b0:	80 91 e0 00 	lds	r24, 0x00E0	;  0x8000e0           ; Load from data space
     7b4:	82 60       	ori	r24, 0x02	; 2
     7b6:	80 93 e0 00 	sts	0x00E0, r24	;  0x8000e0           ; Store to data space
     7ba:	e8 01       	movw	r28, r16
     7bc:	b1 2c       	mov	r11, r1                           ; Move register to register
     7be:	8a ef       	ldi	r24, 0xFA	; 250                   ; Load immediate value
     7c0:	a8 2e       	mov	r10, r24                          ; Move register to register
     7c2:	93 e0       	ldi	r25, 0x03	; 3                     ; Load immediate value
     7c4:	89 2e       	mov	r8, r25                           ; Move register to register
     7c6:	2a e3       	ldi	r18, 0x3A	; 58                    ; Load immediate value
     7c8:	92 2e       	mov	r9, r18                           ; Move register to register
     7ca:	20 97       	sbiw	r28, 0x00	; 0
     7cc:	11 f4       	brne	.+4      	;  0x7d2               ; Branch if not equal
     7ce:	bb 20       	and	r11, r11
     7d0:	d9 f1       	breq	.+118    	;  0x848               ; Branch if equal
     7d2:	0e 94 2a 01 	call	0x254	;  0x254                   ; Function call
     7d6:	81 11       	cpse	r24, r1
     7d8:	0a c0       	rjmp	.+20     	;  0x7ee               ; Relative jump
     7da:	aa 94       	dec	r10
     7dc:	aa 20       	and	r10, r10
     7de:	d9 f1       	breq	.+118    	;  0x856               ; Branch if equal
     7e0:	61 e0       	ldi	r22, 0x01	; 1                     ; Load immediate value
     7e2:	70 e0       	ldi	r23, 0x00	; 0                     ; Load immediate value
     7e4:	80 e0       	ldi	r24, 0x00	; 0                     ; Load immediate value
     7e6:	90 e0       	ldi	r25, 0x00	; 0                     ; Load immediate value
     7e8:	0e 94 89 03 	call	0x712	;  0x712                   ; Function call
     7ec:	ee cf       	rjmp	.-36     	;  0x7ca               ; Relative jump
     7ee:	8c 17       	cp	r24, r28
     7f0:	1d 06       	cpc	r1, r29
     7f2:	11 f0       	breq	.+4      	;  0x7f8               ; Branch if equal
     7f4:	0c f0       	brlt	.+2      	;  0x7f8
     7f6:	8c 2f       	mov	r24, r28                          ; Move register to register
     7f8:	9f b7       	in	r25, 0x3f	; 63                     ; Input from I/O port
     7fa:	f8 94       	cli
     7fc:	80 92 e9 00 	sts	0x00E9, r8	;  0x8000e9            ; Store to data space
     800:	20 91 e8 00 	lds	r18, 0x00E8	;  0x8000e8           ; Load from data space
     804:	25 fd       	sbrc	r18, 5
     806:	02 c0       	rjmp	.+4      	;  0x80c               ; Relative jump
     808:	9f bf       	out	0x3f, r25	; 63                    ; Output to I/O port
     80a:	df cf       	rjmp	.-66     	;  0x7ca               ; Relative jump
     80c:	28 2f       	mov	r18, r24                          ; Move register to register
     80e:	30 e0       	ldi	r19, 0x00	; 0                     ; Load immediate value
     810:	c2 1b       	sub	r28, r18
     812:	d3 0b       	sbc	r29, r19
     814:	f7 01       	movw	r30, r14
     816:	81 50       	subi	r24, 0x01	; 1
     818:	20 f0       	brcs	.+8      	;  0x822
     81a:	41 91       	ld	r20, Z+
     81c:	40 93 f1 00 	sts	0x00F1, r20	;  0x8000f1           ; Store to data space
     820:	fa cf       	rjmp	.-12     	;  0x816               ; Relative jump
     822:	e2 0e       	add	r14, r18
     824:	f3 1e       	adc	r15, r19
     826:	bb 20       	and	r11, r11
     828:	21 f0       	breq	.+8      	;  0x832               ; Branch if equal
     82a:	90 92 e8 00 	sts	0x00E8, r9	;  0x8000e8            ; Store to data space
     82e:	b1 2c       	mov	r11, r1                           ; Move register to register
     830:	eb cf       	rjmp	.-42     	;  0x808               ; Relative jump
     832:	80 91 e8 00 	lds	r24, 0x00E8	;  0x8000e8           ; Load from data space
     836:	85 fd       	sbrc	r24, 5
     838:	e7 cf       	rjmp	.-50     	;  0x808               ; Relative jump
     83a:	90 92 e8 00 	sts	0x00E8, r9	;  0x8000e8            ; Store to data space
     83e:	bb 24       	eor	r11, r11
     840:	b3 94       	inc	r11
     842:	20 97       	sbiw	r28, 0x00	; 0
     844:	09 f3       	breq	.-62     	;  0x808               ; Branch if equal
     846:	f3 cf       	rjmp	.-26     	;  0x82e               ; Relative jump
     848:	5d 98       	cbi	0x0b, 5	; 11
     84a:	84 e6       	ldi	r24, 0x64	; 100                   ; Load immediate value
     84c:	80 93 b8 01 	sts	0x01B8, r24	;  0x8001b8           ; Store to data space
     850:	10 16       	cp	r1, r16
     852:	11 06       	cpc	r1, r17
     854:	3c f0       	brlt	.+14     	;  0x864
     856:	81 e0       	ldi	r24, 0x01	; 1                     ; Load immediate value
     858:	90 e0       	ldi	r25, 0x00	; 0                     ; Load immediate value
     85a:	f6 01       	movw	r30, r12
     85c:	93 83       	std	Z+3, r25	; 0x03
     85e:	82 83       	std	Z+2, r24	; 0x02
     860:	10 e0       	ldi	r17, 0x00	; 0                     ; Load immediate value
     862:	00 e0       	ldi	r16, 0x00	; 0                     ; Load immediate value
     864:	c8 01       	movw	r24, r16
     866:	df 91       	pop	r29                               ; Pop from stack
     868:	cf 91       	pop	r28                               ; Pop from stack
     86a:	1f 91       	pop	r17                               ; Pop from stack
     86c:	0f 91       	pop	r16                               ; Pop from stack
     86e:	ff 90       	pop	r15                               ; Pop from stack
     870:	ef 90       	pop	r14                               ; Pop from stack
     872:	df 90       	pop	r13                               ; Pop from stack
     874:	cf 90       	pop	r12                               ; Pop from stack
     876:	bf 90       	pop	r11                               ; Pop from stack
     878:	af 90       	pop	r10                               ; Pop from stack
     87a:	9f 90       	pop	r9                                ; Pop from stack
     87c:	8f 90       	pop	r8                                ; Pop from stack
     87e:	08 95       	ret
     880:	20 91 bd 01 	lds	r18, 0x01BD	;  0x8001bd           ; Load from data space
     884:	30 91 be 01 	lds	r19, 0x01BE	;  0x8001be           ; Load from data space
     888:	28 17       	cp	r18, r24
     88a:	39 07       	cpc	r19, r25
     88c:	71 f4       	brne	.+28     	;  0x8aa               ; Branch if not equal
     88e:	90 91 bb 01 	lds	r25, 0x01BB	;  0x8001bb           ; Load from data space
     892:	80 91 bc 01 	lds	r24, 0x01BC	;  0x8001bc           ; Load from data space
     896:	98 17       	cp	r25, r24
     898:	41 f0       	breq	.+16     	;  0x8aa               ; Branch if equal
     89a:	e0 91 bb 01 	lds	r30, 0x01BB	;  0x8001bb           ; Load from data space
     89e:	f0 e0       	ldi	r31, 0x00	; 0                     ; Load immediate value
     8a0:	e6 59       	subi	r30, 0x96	; 150
     8a2:	fe 4f       	sbci	r31, 0xFE	; 254
     8a4:	80 81       	ld	r24, Z
     8a6:	90 e0       	ldi	r25, 0x00	; 0                     ; Load immediate value
     8a8:	08 95       	ret
     8aa:	8f ef       	ldi	r24, 0xFF	; 255                   ; Load immediate value
     8ac:	9f ef       	ldi	r25, 0xFF	; 255                   ; Load immediate value
     8ae:	08 95       	ret
     8b0:	08 95       	ret
     8b2:	ef 92       	push	r14                              ; Push onto stack
     8b4:	ff 92       	push	r15                              ; Push onto stack
     8b6:	0f 93       	push	r16                              ; Push onto stack
     8b8:	1f 93       	push	r17                              ; Push onto stack
     8ba:	cf 93       	push	r28                              ; Push onto stack
     8bc:	df 93       	push	r29                              ; Push onto stack
     8be:	dc 01       	movw	r26, r24
     8c0:	5c 96       	adiw	r26, 0x1c	; 28
     8c2:	ed 90       	ld	r14, X+
     8c4:	fc 90       	ld	r15, X
     8c6:	5d 97       	sbiw	r26, 0x1d	; 29
     8c8:	e1 14       	cp	r14, r1
     8ca:	f1 04       	cpc	r15, r1
     8cc:	79 f4       	brne	.+30     	;  0x8ec               ; Branch if not equal
     8ce:	81 e0       	ldi	r24, 0x01	; 1                     ; Load immediate value
     8d0:	90 e0       	ldi	r25, 0x00	; 0                     ; Load immediate value
     8d2:	13 96       	adiw	r26, 0x03	; 3
     8d4:	9c 93       	st	X, r25
     8d6:	8e 93       	st	-X, r24
     8d8:	12 97       	sbiw	r26, 0x02	; 2
     8da:	90 e0       	ldi	r25, 0x00	; 0                     ; Load immediate value
     8dc:	80 e0       	ldi	r24, 0x00	; 0                     ; Load immediate value
     8de:	df 91       	pop	r29                               ; Pop from stack
     8e0:	cf 91       	pop	r28                               ; Pop from stack
     8e2:	1f 91       	pop	r17                               ; Pop from stack
     8e4:	0f 91       	pop	r16                               ; Pop from stack
     8e6:	ff 90       	pop	r15                               ; Pop from stack
     8e8:	ef 90       	pop	r14                               ; Pop from stack
     8ea:	08 95       	ret
     8ec:	51 96       	adiw	r26, 0x11	; 17
     8ee:	ed 91       	ld	r30, X+
     8f0:	fc 91       	ld	r31, X
     8f2:	52 97       	sbiw	r26, 0x12	; 18
     8f4:	50 96       	adiw	r26, 0x10	; 16
     8f6:	8c 91       	ld	r24, X
     8f8:	50 97       	sbiw	r26, 0x10	; 16
     8fa:	98 2f       	mov	r25, r24                          ; Move register to register
     8fc:	90 95       	com	r25
     8fe:	0f b7       	in	r16, 0x3f	; 63                     ; Input from I/O port
     900:	5e 96       	adiw	r26, 0x1e	; 30
     902:	2c 91       	ld	r18, X
     904:	5e 97       	sbiw	r26, 0x1e	; 30
     906:	12 2f       	mov	r17, r18                          ; Move register to register
     908:	12 70       	andi	r17, 0x02	; 2
     90a:	21 fd       	sbrc	r18, 1
     90c:	60 95       	com	r22
     90e:	f8 94       	cli
     910:	20 81       	ld	r18, Z
     912:	11 23       	and	r17, r17
     914:	19 f1       	breq	.+70     	;  0x95c               ; Branch if equal
     916:	28 2b       	or	r18, r24
     918:	20 83       	st	Z, r18
     91a:	e7 01       	movw	r28, r14
     91c:	21 97       	sbiw	r28, 0x01	; 1
     91e:	f1 f7       	brne	.-4      	;  0x91c               ; Branch if not equal
     920:	28 e0       	ldi	r18, 0x08	; 8                     ; Load immediate value
     922:	46 2f       	mov	r20, r22                          ; Move register to register
     924:	50 e0       	ldi	r21, 0x00	; 0                     ; Load immediate value
     926:	30 81       	ld	r19, Z
     928:	60 ff       	sbrs	r22, 0
     92a:	1a c0       	rjmp	.+52     	;  0x960               ; Relative jump
     92c:	38 2b       	or	r19, r24
     92e:	30 83       	st	Z, r19
     930:	e7 01       	movw	r28, r14
     932:	21 97       	sbiw	r28, 0x01	; 1
     934:	f1 f7       	brne	.-4      	;  0x932               ; Branch if not equal
     936:	ba 01       	movw	r22, r20
     938:	75 95       	asr	r23
     93a:	67 95       	ror	r22
     93c:	21 50       	subi	r18, 0x01	; 1
     93e:	89 f7       	brne	.-30     	;  0x922               ; Branch if not equal
     940:	11 23       	and	r17, r17
     942:	81 f0       	breq	.+32     	;  0x964               ; Branch if equal
     944:	80 81       	ld	r24, Z
     946:	89 23       	and	r24, r25
     948:	80 83       	st	Z, r24
     94a:	0f bf       	out	0x3f, r16	; 63                    ; Output to I/O port
     94c:	5c 96       	adiw	r26, 0x1c	; 28
     94e:	8d 91       	ld	r24, X+
     950:	9c 91       	ld	r25, X
     952:	01 97       	sbiw	r24, 0x01	; 1
     954:	f1 f7       	brne	.-4      	;  0x952               ; Branch if not equal
     956:	81 e0       	ldi	r24, 0x01	; 1                     ; Load immediate value
     958:	90 e0       	ldi	r25, 0x00	; 0                     ; Load immediate value
     95a:	c1 cf       	rjmp	.-126    	;  0x8de               ; Relative jump
     95c:	29 23       	and	r18, r25
     95e:	dc cf       	rjmp	.-72     	;  0x918               ; Relative jump
     960:	39 23       	and	r19, r25
     962:	e5 cf       	rjmp	.-54     	;  0x92e               ; Relative jump
     964:	90 81       	ld	r25, Z
     966:	89 2b       	or	r24, r25
     968:	ef cf       	rjmp	.-34     	;  0x948               ; Relative jump
     96a:	20 91 bd 01 	lds	r18, 0x01BD	;  0x8001bd           ; Load from data space
     96e:	30 91 be 01 	lds	r19, 0x01BE	;  0x8001be           ; Load from data space
     972:	28 17       	cp	r18, r24
     974:	39 07       	cpc	r19, r25
     976:	61 f4       	brne	.+24     	;  0x990               ; Branch if not equal
     978:	80 91 bc 01 	lds	r24, 0x01BC	;  0x8001bc           ; Load from data space
     97c:	20 91 bb 01 	lds	r18, 0x01BB	;  0x8001bb           ; Load from data space
     980:	90 e0       	ldi	r25, 0x00	; 0                     ; Load immediate value
     982:	80 5c       	subi	r24, 0xC0	; 192
     984:	9f 4f       	sbci	r25, 0xFF	; 255
     986:	82 1b       	sub	r24, r18
     988:	91 09       	sbc	r25, r1
     98a:	8f 73       	andi	r24, 0x3F	; 63
     98c:	99 27       	eor	r25, r25
     98e:	08 95       	ret
     990:	90 e0       	ldi	r25, 0x00	; 0                     ; Load immediate value
     992:	80 e0       	ldi	r24, 0x00	; 0                     ; Load immediate value
     994:	08 95       	ret
     996:	20 91 bd 01 	lds	r18, 0x01BD	;  0x8001bd           ; Load from data space
     99a:	30 91 be 01 	lds	r19, 0x01BE	;  0x8001be           ; Load from data space
     99e:	28 17       	cp	r18, r24
     9a0:	39 07       	cpc	r19, r25
     9a2:	b9 f4       	brne	.+46     	;  0x9d2               ; Branch if not equal
     9a4:	90 91 bb 01 	lds	r25, 0x01BB	;  0x8001bb           ; Load from data space
     9a8:	80 91 bc 01 	lds	r24, 0x01BC	;  0x8001bc           ; Load from data space
     9ac:	98 17       	cp	r25, r24
     9ae:	89 f0       	breq	.+34     	;  0x9d2               ; Branch if equal
     9b0:	e0 91 bb 01 	lds	r30, 0x01BB	;  0x8001bb           ; Load from data space
     9b4:	f0 e0       	ldi	r31, 0x00	; 0                     ; Load immediate value
     9b6:	e6 59       	subi	r30, 0x96	; 150
     9b8:	fe 4f       	sbci	r31, 0xFE	; 254
     9ba:	80 81       	ld	r24, Z
     9bc:	20 91 bb 01 	lds	r18, 0x01BB	;  0x8001bb           ; Load from data space
     9c0:	30 e0       	ldi	r19, 0x00	; 0                     ; Load immediate value
     9c2:	2f 5f       	subi	r18, 0xFF	; 255
     9c4:	3f 4f       	sbci	r19, 0xFF	; 255
     9c6:	2f 73       	andi	r18, 0x3F	; 63
     9c8:	33 27       	eor	r19, r19
     9ca:	20 93 bb 01 	sts	0x01BB, r18	;  0x8001bb           ; Store to data space
     9ce:	90 e0       	ldi	r25, 0x00	; 0                     ; Load immediate value
     9d0:	08 95       	ret
     9d2:	8f ef       	ldi	r24, 0xFF	; 255                   ; Load immediate value
     9d4:	9f ef       	ldi	r25, 0xFF	; 255                   ; Load immediate value
     9d6:	08 95       	ret
     9d8:	90 e0       	ldi	r25, 0x00	; 0                     ; Load immediate value
     9da:	80 e0       	ldi	r24, 0x00	; 0                     ; Load immediate value
     9dc:	08 95       	ret
     9de:	fb 01       	movw	r30, r22
     9e0:	01 90       	ld	r0, Z+
     9e2:	00 20       	and	r0, r0
     9e4:	e9 f7       	brne	.-6      	;  0x9e0               ; Branch if not equal
     9e6:	31 97       	sbiw	r30, 0x01	; 1
     9e8:	af 01       	movw	r20, r30
     9ea:	46 1b       	sub	r20, r22
     9ec:	57 0b       	sbc	r21, r23
     9ee:	dc 01       	movw	r26, r24
     9f0:	ed 91       	ld	r30, X+
     9f2:	fc 91       	ld	r31, X
     9f4:	02 80       	ldd	r0, Z+2	; 0x02
     9f6:	f3 81       	ldd	r31, Z+3	; 0x03
     9f8:	e0 2d       	mov	r30, r0                           ; Move register to register
     9fa:	09 94       	ijmp
     9fc:	8f 92       	push	r8                               ; Push onto stack
     9fe:	9f 92       	push	r9                               ; Push onto stack
     a00:	af 92       	push	r10                              ; Push onto stack
     a02:	bf 92       	push	r11                              ; Push onto stack
     a04:	ef 92       	push	r14                              ; Push onto stack
     a06:	ff 92       	push	r15                              ; Push onto stack
     a08:	0f 93       	push	r16                              ; Push onto stack
     a0a:	1f 93       	push	r17                              ; Push onto stack
     a0c:	cf 93       	push	r28                              ; Push onto stack
     a0e:	df 93       	push	r29                              ; Push onto stack
     a10:	cd b7       	in	r28, 0x3d	; 61                     ; Input from I/O port
     a12:	de b7       	in	r29, 0x3e	; 62                     ; Input from I/O port
     a14:	a1 97       	sbiw	r28, 0x21	; 33
     a16:	0f b6       	in	r0, 0x3f	; 63                      ; Input from I/O port
     a18:	f8 94       	cli
     a1a:	de bf       	out	0x3e, r29	; 62                    ; Output to I/O port
     a1c:	0f be       	out	0x3f, r0	; 63                     ; Output to I/O port
     a1e:	cd bf       	out	0x3d, r28	; 61                    ; Output to I/O port
     a20:	7c 01       	movw	r14, r24
     a22:	fa 01       	movw	r30, r20
     a24:	cb 01       	movw	r24, r22
     a26:	19 a2       	std	Y+33, r1	; 0x21
     a28:	22 30       	cpi	r18, 0x02	; 2                     ; Compare with immediate
     a2a:	08 f4       	brcc	.+2      	;  0xa2e
     a2c:	2a e0       	ldi	r18, 0x0A	; 10                    ; Load immediate value
     a2e:	8e 01       	movw	r16, r28
     a30:	0f 5d       	subi	r16, 0xDF	; 223
     a32:	1f 4f       	sbci	r17, 0xFF	; 255
     a34:	82 2e       	mov	r8, r18                           ; Move register to register
     a36:	91 2c       	mov	r9, r1                            ; Move register to register
     a38:	b1 2c       	mov	r11, r1                           ; Move register to register
     a3a:	a1 2c       	mov	r10, r1                           ; Move register to register
     a3c:	bf 01       	movw	r22, r30
     a3e:	a5 01       	movw	r20, r10
     a40:	94 01       	movw	r18, r8
     a42:	0e 94 59 0b 	call	0x16b2	;  0x16b2                 ; Function call
     a46:	f9 01       	movw	r30, r18
     a48:	ca 01       	movw	r24, r20
     a4a:	6a 30       	cpi	r22, 0x0A	; 10                    ; Compare with immediate
     a4c:	0c f5       	brge	.+66     	;  0xa90
     a4e:	60 5d       	subi	r22, 0xD0	; 208
     a50:	d8 01       	movw	r26, r16
     a52:	6e 93       	st	-X, r22
     a54:	8d 01       	movw	r16, r26
     a56:	23 2b       	or	r18, r19
     a58:	24 2b       	or	r18, r20
     a5a:	25 2b       	or	r18, r21
     a5c:	79 f7       	brne	.-34     	;  0xa3c               ; Branch if not equal
     a5e:	90 e0       	ldi	r25, 0x00	; 0                     ; Load immediate value
     a60:	80 e0       	ldi	r24, 0x00	; 0                     ; Load immediate value
     a62:	10 97       	sbiw	r26, 0x00	; 0
     a64:	21 f0       	breq	.+8      	;  0xa6e               ; Branch if equal
     a66:	bd 01       	movw	r22, r26
     a68:	c7 01       	movw	r24, r14
     a6a:	0e 94 ef 04 	call	0x9de	;  0x9de                   ; Function call
     a6e:	a1 96       	adiw	r28, 0x21	; 33
     a70:	0f b6       	in	r0, 0x3f	; 63                      ; Input from I/O port
     a72:	f8 94       	cli
     a74:	de bf       	out	0x3e, r29	; 62                    ; Output to I/O port
     a76:	0f be       	out	0x3f, r0	; 63                     ; Output to I/O port
     a78:	cd bf       	out	0x3d, r28	; 61                    ; Output to I/O port
     a7a:	df 91       	pop	r29                               ; Pop from stack
     a7c:	cf 91       	pop	r28                               ; Pop from stack
     a7e:	1f 91       	pop	r17                               ; Pop from stack
     a80:	0f 91       	pop	r16                               ; Pop from stack
     a82:	ff 90       	pop	r15                               ; Pop from stack
     a84:	ef 90       	pop	r14                               ; Pop from stack
     a86:	bf 90       	pop	r11                               ; Pop from stack
     a88:	af 90       	pop	r10                               ; Pop from stack
     a8a:	9f 90       	pop	r9                                ; Pop from stack
     a8c:	8f 90       	pop	r8                                ; Pop from stack
     a8e:	08 95       	ret
     a90:	69 5c       	subi	r22, 0xC9	; 201
     a92:	de cf       	rjmp	.-68     	;  0xa50               ; Relative jump
     a94:	0f 93       	push	r16                              ; Push onto stack
     a96:	1f 93       	push	r17                              ; Push onto stack
     a98:	cf 93       	push	r28                              ; Push onto stack
     a9a:	df 93       	push	r29                              ; Push onto stack
     a9c:	ec 01       	movw	r28, r24
     a9e:	0e 94 ef 04 	call	0x9de	;  0x9de                   ; Function call
     aa2:	8c 01       	movw	r16, r24
     aa4:	67 e3       	ldi	r22, 0x37	; 55                    ; Load immediate value
     aa6:	71 e0       	ldi	r23, 0x01	; 1                     ; Load immediate value
     aa8:	ce 01       	movw	r24, r28
     aaa:	0e 94 ef 04 	call	0x9de	;  0x9de                   ; Function call
     aae:	80 0f       	add	r24, r16
     ab0:	91 1f       	adc	r25, r17
     ab2:	df 91       	pop	r29                               ; Pop from stack
     ab4:	cf 91       	pop	r28                               ; Pop from stack
     ab6:	1f 91       	pop	r17                               ; Pop from stack
     ab8:	0f 91       	pop	r16                               ; Pop from stack
     aba:	08 95       	ret
     abc:	1f 92       	push	r1                               ; Push onto stack
     abe:	0f 92       	push	r0                               ; Push onto stack
     ac0:	0f b6       	in	r0, 0x3f	; 63                      ; Input from I/O port
     ac2:	0f 92       	push	r0                               ; Push onto stack
     ac4:	11 24       	eor	r1, r1
     ac6:	8f 93       	push	r24                              ; Push onto stack
     ac8:	9f 93       	push	r25                              ; Push onto stack
     aca:	80 91 e1 00 	lds	r24, 0x00E1	;  0x8000e1           ; Load from data space
     ace:	90 91 e1 00 	lds	r25, 0x00E1	;  0x8000e1           ; Load from data space
     ad2:	93 7f       	andi	r25, 0xF3	; 243
     ad4:	90 93 e1 00 	sts	0x00E1, r25	;  0x8000e1           ; Store to data space
     ad8:	83 ff       	sbrs	r24, 3
     ada:	0f c0       	rjmp	.+30     	;  0xafa               ; Relative jump
     adc:	10 92 e9 00 	sts	0x00E9, r1	;  0x8000e9            ; Store to data space
     ae0:	91 e0       	ldi	r25, 0x01	; 1                     ; Load immediate value
     ae2:	90 93 eb 00 	sts	0x00EB, r25	;  0x8000eb           ; Store to data space
     ae6:	10 92 ec 00 	sts	0x00EC, r1	;  0x8000ec            ; Store to data space
     aea:	92 e3       	ldi	r25, 0x32	; 50                    ; Load immediate value
     aec:	90 93 ed 00 	sts	0x00ED, r25	;  0x8000ed           ; Store to data space
     af0:	10 92 cc 01 	sts	0x01CC, r1	;  0x8001cc            ; Store to data space
     af4:	98 e0       	ldi	r25, 0x08	; 8                     ; Load immediate value
     af6:	90 93 f0 00 	sts	0x00F0, r25	;  0x8000f0           ; Store to data space
     afa:	82 ff       	sbrs	r24, 2
     afc:	22 c0       	rjmp	.+68     	;  0xb42               ; Relative jump
     afe:	93 e0       	ldi	r25, 0x03	; 3                     ; Load immediate value
     b00:	90 93 e9 00 	sts	0x00E9, r25	;  0x8000e9           ; Store to data space
     b04:	90 91 f2 00 	lds	r25, 0x00F2	;  0x8000f2           ; Load from data space
     b08:	99 23       	and	r25, r25
     b0a:	19 f0       	breq	.+6      	;  0xb12               ; Branch if equal
     b0c:	9a e3       	ldi	r25, 0x3A	; 58                    ; Load immediate value
     b0e:	90 93 e8 00 	sts	0x00E8, r25	;  0x8000e8           ; Store to data space
     b12:	90 91 b8 01 	lds	r25, 0x01B8	;  0x8001b8           ; Load from data space
     b16:	99 23       	and	r25, r25
     b18:	41 f0       	breq	.+16     	;  0xb2a               ; Branch if equal
     b1a:	90 91 b8 01 	lds	r25, 0x01B8	;  0x8001b8           ; Load from data space
     b1e:	91 50       	subi	r25, 0x01	; 1
     b20:	90 93 b8 01 	sts	0x01B8, r25	;  0x8001b8           ; Store to data space
     b24:	91 11       	cpse	r25, r1
     b26:	01 c0       	rjmp	.+2      	;  0xb2a               ; Relative jump
     b28:	5d 9a       	sbi	0x0b, 5	; 11
     b2a:	90 91 cb 01 	lds	r25, 0x01CB	;  0x8001cb           ; Load from data space
     b2e:	99 23       	and	r25, r25
     b30:	41 f0       	breq	.+16     	;  0xb42               ; Branch if equal
     b32:	90 91 cb 01 	lds	r25, 0x01CB	;  0x8001cb           ; Load from data space
     b36:	91 50       	subi	r25, 0x01	; 1
     b38:	90 93 cb 01 	sts	0x01CB, r25	;  0x8001cb           ; Store to data space
     b3c:	91 11       	cpse	r25, r1
     b3e:	01 c0       	rjmp	.+2      	;  0xb42               ; Relative jump
     b40:	28 9a       	sbi	0x05, 0	; 5
     b42:	84 ff       	sbrs	r24, 4
     b44:	18 c0       	rjmp	.+48     	;  0xb76               ; Relative jump
     b46:	80 91 e2 00 	lds	r24, 0x00E2	;  0x8000e2           ; Load from data space
     b4a:	8e 7e       	andi	r24, 0xEE	; 238
     b4c:	81 60       	ori	r24, 0x01	; 1
     b4e:	80 93 e2 00 	sts	0x00E2, r24	;  0x8000e2           ; Store to data space
     b52:	80 91 e1 00 	lds	r24, 0x00E1	;  0x8000e1           ; Load from data space
     b56:	8f 7e       	andi	r24, 0xEF	; 239
     b58:	80 93 e1 00 	sts	0x00E1, r24	;  0x8000e1           ; Store to data space
     b5c:	80 91 b9 01 	lds	r24, 0x01B9	;  0x8001b9           ; Load from data space
     b60:	8e 7e       	andi	r24, 0xEE	; 238
     b62:	80 61       	ori	r24, 0x10	; 16
     b64:	80 93 b9 01 	sts	0x01B9, r24	;  0x8001b9           ; Store to data space
     b68:	9f 91       	pop	r25                               ; Pop from stack
     b6a:	8f 91       	pop	r24                               ; Pop from stack
     b6c:	0f 90       	pop	r0                                ; Pop from stack
     b6e:	0f be       	out	0x3f, r0	; 63                     ; Output to I/O port
     b70:	0f 90       	pop	r0                                ; Pop from stack
     b72:	1f 90       	pop	r1                                ; Pop from stack
     b74:	18 95       	reti
     b76:	80 ff       	sbrs	r24, 0
     b78:	f7 cf       	rjmp	.-18     	;  0xb68               ; Relative jump
     b7a:	80 91 e2 00 	lds	r24, 0x00E2	;  0x8000e2           ; Load from data space
     b7e:	8e 7e       	andi	r24, 0xEE	; 238
     b80:	80 61       	ori	r24, 0x10	; 16
     b82:	80 93 e2 00 	sts	0x00E2, r24	;  0x8000e2           ; Store to data space
     b86:	80 91 e1 00 	lds	r24, 0x00E1	;  0x8000e1           ; Load from data space
     b8a:	8e 7e       	andi	r24, 0xEE	; 238
     b8c:	80 93 e1 00 	sts	0x00E1, r24	;  0x8000e1           ; Store to data space
     b90:	80 91 b9 01 	lds	r24, 0x01B9	;  0x8001b9           ; Load from data space
     b94:	8e 7e       	andi	r24, 0xEE	; 238
     b96:	81 60       	ori	r24, 0x01	; 1
     b98:	e5 cf       	rjmp	.-54     	;  0xb64               ; Relative jump
     b9a:	1f 92       	push	r1                               ; Push onto stack
     b9c:	0f 92       	push	r0                               ; Push onto stack
     b9e:	0f b6       	in	r0, 0x3f	; 63                      ; Input from I/O port
     ba0:	0f 92       	push	r0                               ; Push onto stack
     ba2:	11 24       	eor	r1, r1
     ba4:	cf 92       	push	r12                              ; Push onto stack
     ba6:	df 92       	push	r13                              ; Push onto stack
     ba8:	ef 92       	push	r14                              ; Push onto stack
     baa:	ff 92       	push	r15                              ; Push onto stack
     bac:	0f 93       	push	r16                              ; Push onto stack
     bae:	1f 93       	push	r17                              ; Push onto stack
     bb0:	2f 93       	push	r18                              ; Push onto stack
     bb2:	3f 93       	push	r19                              ; Push onto stack
     bb4:	4f 93       	push	r20                              ; Push onto stack
     bb6:	5f 93       	push	r21                              ; Push onto stack
     bb8:	6f 93       	push	r22                              ; Push onto stack
     bba:	7f 93       	push	r23                              ; Push onto stack
     bbc:	8f 93       	push	r24                              ; Push onto stack
     bbe:	9f 93       	push	r25                              ; Push onto stack
     bc0:	af 93       	push	r26                              ; Push onto stack
     bc2:	bf 93       	push	r27                              ; Push onto stack
     bc4:	ef 93       	push	r30                              ; Push onto stack
     bc6:	ff 93       	push	r31                              ; Push onto stack
     bc8:	cf 93       	push	r28                              ; Push onto stack
     bca:	df 93       	push	r29                              ; Push onto stack
     bcc:	cd b7       	in	r28, 0x3d	; 61                     ; Input from I/O port
     bce:	de b7       	in	r29, 0x3e	; 62                     ; Input from I/O port
     bd0:	6c 97       	sbiw	r28, 0x1c	; 28
     bd2:	de bf       	out	0x3e, r29	; 62                    ; Output to I/O port
     bd4:	cd bf       	out	0x3d, r28	; 61                    ; Output to I/O port
     bd6:	10 92 e9 00 	sts	0x00E9, r1	;  0x8000e9            ; Store to data space
     bda:	80 91 e8 00 	lds	r24, 0x00E8	;  0x8000e8           ; Load from data space
     bde:	83 ff       	sbrs	r24, 3
     be0:	25 c0       	rjmp	.+74     	;  0xc2c               ; Relative jump
     be2:	68 e0       	ldi	r22, 0x08	; 8                     ; Load immediate value
     be4:	ce 01       	movw	r24, r28
     be6:	45 96       	adiw	r24, 0x15	; 21
     be8:	0e 94 07 02 	call	0x40e	;  0x40e                   ; Function call
     bec:	82 ef       	ldi	r24, 0xF2	; 242                   ; Load immediate value
     bee:	80 93 e8 00 	sts	0x00E8, r24	;  0x8000e8           ; Store to data space
     bf2:	8d 89       	ldd	r24, Y+21	; 0x15
     bf4:	87 ff       	sbrs	r24, 7
     bf6:	39 c0       	rjmp	.+114    	;  0xc6a               ; Relative jump
     bf8:	90 91 e8 00 	lds	r25, 0x00E8	;  0x8000e8           ; Load from data space
     bfc:	90 ff       	sbrs	r25, 0
     bfe:	fc cf       	rjmp	.-8      	;  0xbf8               ; Relative jump
     c00:	98 2f       	mov	r25, r24                          ; Move register to register
     c02:	90 76       	andi	r25, 0x60	; 96
     c04:	09 f0       	breq	.+2      	;  0xc08               ; Branch if equal
     c06:	34 c1       	rjmp	.+616    	;  0xe70               ; Relative jump
     c08:	9e 89       	ldd	r25, Y+22	; 0x16
     c0a:	4f 89       	ldd	r20, Y+23	; 0x17
     c0c:	58 8d       	ldd	r21, Y+24	; 0x18
     c0e:	2f 89       	ldd	r18, Y+23	; 0x17
     c10:	f8 8c       	ldd	r15, Y+24	; 0x18
     c12:	91 11       	cpse	r25, r1
     c14:	31 c0       	rjmp	.+98     	;  0xc78               ; Relative jump
     c16:	80 38       	cpi	r24, 0x80	; 128                   ; Compare with immediate
     c18:	61 f5       	brne	.+88     	;  0xc72               ; Branch if not equal
     c1a:	80 91 ba 01 	lds	r24, 0x01BA	;  0x8001ba           ; Load from data space
     c1e:	80 93 f1 00 	sts	0x00F1, r24	;  0x8000f1           ; Store to data space
     c22:	10 92 f1 00 	sts	0x00F1, r1	;  0x8000f1            ; Store to data space
     c26:	8e ef       	ldi	r24, 0xFE	; 254                   ; Load immediate value
     c28:	80 93 e8 00 	sts	0x00E8, r24	;  0x8000e8           ; Store to data space
     c2c:	6c 96       	adiw	r28, 0x1c	; 28
     c2e:	0f b6       	in	r0, 0x3f	; 63                      ; Input from I/O port
     c30:	f8 94       	cli
     c32:	de bf       	out	0x3e, r29	; 62                    ; Output to I/O port
     c34:	0f be       	out	0x3f, r0	; 63                     ; Output to I/O port
     c36:	cd bf       	out	0x3d, r28	; 61                    ; Output to I/O port
     c38:	df 91       	pop	r29                               ; Pop from stack
     c3a:	cf 91       	pop	r28                               ; Pop from stack
     c3c:	ff 91       	pop	r31                               ; Pop from stack
     c3e:	ef 91       	pop	r30                               ; Pop from stack
     c40:	bf 91       	pop	r27                               ; Pop from stack
     c42:	af 91       	pop	r26                               ; Pop from stack
     c44:	9f 91       	pop	r25                               ; Pop from stack
     c46:	8f 91       	pop	r24                               ; Pop from stack
     c48:	7f 91       	pop	r23                               ; Pop from stack
     c4a:	6f 91       	pop	r22                               ; Pop from stack
     c4c:	5f 91       	pop	r21                               ; Pop from stack
     c4e:	4f 91       	pop	r20                               ; Pop from stack
     c50:	3f 91       	pop	r19                               ; Pop from stack
     c52:	2f 91       	pop	r18                               ; Pop from stack
     c54:	1f 91       	pop	r17                               ; Pop from stack
     c56:	0f 91       	pop	r16                               ; Pop from stack
     c58:	ff 90       	pop	r15                               ; Pop from stack
     c5a:	ef 90       	pop	r14                               ; Pop from stack
     c5c:	df 90       	pop	r13                               ; Pop from stack
     c5e:	cf 90       	pop	r12                               ; Pop from stack
     c60:	0f 90       	pop	r0                                ; Pop from stack
     c62:	0f be       	out	0x3f, r0	; 63                     ; Output to I/O port
     c64:	0f 90       	pop	r0                                ; Pop from stack
     c66:	1f 90       	pop	r1                                ; Pop from stack
     c68:	18 95       	reti
     c6a:	9e ef       	ldi	r25, 0xFE	; 254                   ; Load immediate value
     c6c:	90 93 e8 00 	sts	0x00E8, r25	;  0x8000e8           ; Store to data space
     c70:	c7 cf       	rjmp	.-114    	;  0xc00               ; Relative jump
     c72:	10 92 f1 00 	sts	0x00F1, r1	;  0x8000f1            ; Store to data space
     c76:	d5 cf       	rjmp	.-86     	;  0xc22               ; Relative jump
     c78:	91 30       	cpi	r25, 0x01	; 1                     ; Compare with immediate
     c7a:	59 f4       	brne	.+22     	;  0xc92               ; Branch if not equal
     c7c:	81 11       	cpse	r24, r1
     c7e:	d3 cf       	rjmp	.-90     	;  0xc26               ; Relative jump
     c80:	41 30       	cpi	r20, 0x01	; 1                     ; Compare with immediate
     c82:	51 05       	cpc	r21, r1
     c84:	81 f6       	brne	.-96     	;  0xc26               ; Branch if not equal
     c86:	80 91 ba 01 	lds	r24, 0x01BA	;  0x8001ba           ; Load from data space
     c8a:	8d 7f       	andi	r24, 0xFD	; 253
     c8c:	80 93 ba 01 	sts	0x01BA, r24	;  0x8001ba           ; Store to data space
     c90:	ca cf       	rjmp	.-108    	;  0xc26               ; Relative jump
     c92:	93 30       	cpi	r25, 0x03	; 3                     ; Compare with immediate
     c94:	49 f4       	brne	.+18     	;  0xca8               ; Branch if not equal
     c96:	81 11       	cpse	r24, r1
     c98:	c6 cf       	rjmp	.-116    	;  0xc26               ; Relative jump
     c9a:	41 30       	cpi	r20, 0x01	; 1                     ; Compare with immediate
     c9c:	51 05       	cpc	r21, r1
     c9e:	19 f6       	brne	.-122    	;  0xc26               ; Branch if not equal
     ca0:	80 91 ba 01 	lds	r24, 0x01BA	;  0x8001ba           ; Load from data space
     ca4:	82 60       	ori	r24, 0x02	; 2
     ca6:	f2 cf       	rjmp	.-28     	;  0xc8c               ; Relative jump
     ca8:	95 30       	cpi	r25, 0x05	; 5                     ; Compare with immediate
     caa:	41 f4       	brne	.+16     	;  0xcbc               ; Branch if not equal
     cac:	80 91 e8 00 	lds	r24, 0x00E8	;  0x8000e8           ; Load from data space
     cb0:	80 ff       	sbrs	r24, 0
     cb2:	fc cf       	rjmp	.-8      	;  0xcac               ; Relative jump
     cb4:	20 68       	ori	r18, 0x80	; 128
     cb6:	20 93 e3 00 	sts	0x00E3, r18	;  0x8000e3           ; Store to data space
     cba:	b5 cf       	rjmp	.-150    	;  0xc26               ; Relative jump
     cbc:	96 30       	cpi	r25, 0x06	; 6                     ; Compare with immediate
     cbe:	09 f0       	breq	.+2      	;  0xcc2               ; Branch if equal
     cc0:	a9 c0       	rjmp	.+338    	;  0xe14               ; Relative jump
     cc2:	0b 8d       	ldd	r16, Y+27	; 0x1b
     cc4:	1c 8d       	ldd	r17, Y+28	; 0x1c
     cc6:	22 e0       	ldi	r18, 0x02	; 2                     ; Load immediate value
     cc8:	10 92 e9 00 	sts	0x00E9, r1	;  0x8000e9            ; Store to data space
     ccc:	10 92 b6 01 	sts	0x01B6, r1	;  0x8001b6            ; Store to data space
     cd0:	10 92 b5 01 	sts	0x01B5, r1	;  0x8001b5            ; Store to data space
     cd4:	f2 12       	cpse	r15, r18
     cd6:	2e c0       	rjmp	.+92     	;  0xd34               ; Relative jump
     cd8:	10 92 b4 01 	sts	0x01B4, r1	;  0x8001b4            ; Store to data space
     cdc:	10 92 b3 01 	sts	0x01B3, r1	;  0x8001b3            ; Store to data space
     ce0:	0e 94 d6 01 	call	0x3ac	;  0x3ac                   ; Function call
     ce4:	1f 82       	std	Y+7, r1	; 0x07
     ce6:	99 e0       	ldi	r25, 0x09	; 9                     ; Load immediate value
     ce8:	99 83       	std	Y+1, r25	; 0x01
     cea:	fa 82       	std	Y+2, r15	; 0x02
     cec:	91 e0       	ldi	r25, 0x01	; 1                     ; Load immediate value
     cee:	9e 83       	std	Y+6, r25	; 0x06
     cf0:	90 ea       	ldi	r25, 0xA0	; 160                   ; Load immediate value
     cf2:	98 87       	std	Y+8, r25	; 0x08
     cf4:	9a ef       	ldi	r25, 0xFA	; 250                   ; Load immediate value
     cf6:	99 87       	std	Y+9, r25	; 0x09
     cf8:	20 91 b5 01 	lds	r18, 0x01B5	;  0x8001b5           ; Load from data space
     cfc:	30 91 b6 01 	lds	r19, 0x01B6	;  0x8001b6           ; Load from data space
     d00:	27 5f       	subi	r18, 0xF7	; 247
     d02:	3f 4f       	sbci	r19, 0xFF	; 255
     d04:	3c 83       	std	Y+4, r19	; 0x04
     d06:	2b 83       	std	Y+3, r18	; 0x03
     d08:	8d 83       	std	Y+5, r24	; 0x05
     d0a:	10 92 e9 00 	sts	0x00E9, r1	;  0x8000e9            ; Store to data space
     d0e:	10 92 b6 01 	sts	0x01B6, r1	;  0x8001b6            ; Store to data space
     d12:	10 92 b5 01 	sts	0x01B5, r1	;  0x8001b5            ; Store to data space
     d16:	10 93 b4 01 	sts	0x01B4, r17	;  0x8001b4           ; Store to data space
     d1a:	00 93 b3 01 	sts	0x01B3, r16	;  0x8001b3           ; Store to data space
     d1e:	49 e0       	ldi	r20, 0x09	; 9                     ; Load immediate value
     d20:	50 e0       	ldi	r21, 0x00	; 0                     ; Load immediate value
     d22:	be 01       	movw	r22, r28
     d24:	6f 5f       	subi	r22, 0xFF	; 255
     d26:	7f 4f       	sbci	r23, 0xFF	; 255
     d28:	80 e0       	ldi	r24, 0x00	; 0                     ; Load immediate value
     d2a:	0e 94 b0 01 	call	0x360	;  0x360                   ; Function call
     d2e:	0e 94 d6 01 	call	0x3ac	;  0x3ac                   ; Function call
     d32:	79 cf       	rjmp	.-270    	;  0xc26               ; Relative jump
     d34:	10 93 b4 01 	sts	0x01B4, r17	;  0x8001b4           ; Store to data space
     d38:	00 93 b3 01 	sts	0x01B3, r16	;  0x8001b3           ; Store to data space
     d3c:	0e 94 3b 01 	call	0x276	;  0x276                   ; Function call
     d40:	dc 01       	movw	r26, r24
     d42:	12 96       	adiw	r26, 0x02	; 2
     d44:	0d 91       	ld	r16, X+
     d46:	1c 91       	ld	r17, X
     d48:	01 15       	cp	r16, r1
     d4a:	11 05       	cpc	r17, r1
     d4c:	09 f4       	brne	.+2      	;  0xd50               ; Branch if not equal
     d4e:	51 c1       	rjmp	.+674    	;  0xff2               ; Relative jump
     d50:	d8 01       	movw	r26, r16
     d52:	ed 91       	ld	r30, X+
     d54:	fc 91       	ld	r31, X
     d56:	04 80       	ldd	r0, Z+4	; 0x04
     d58:	f5 81       	ldd	r31, Z+5	; 0x05
     d5a:	e0 2d       	mov	r30, r0                           ; Move register to register
     d5c:	be 01       	movw	r22, r28
     d5e:	6b 5e       	subi	r22, 0xEB	; 235
     d60:	7f 4f       	sbci	r23, 0xFF	; 255
     d62:	c8 01       	movw	r24, r16
     d64:	09 95       	icall
     d66:	00 97       	sbiw	r24, 0x00	; 0
     d68:	09 f0       	breq	.+2      	;  0xd6c               ; Branch if equal
     d6a:	3e c1       	rjmp	.+636    	;  0xfe8               ; Relative jump
     d6c:	f8 01       	movw	r30, r16
     d6e:	00 85       	ldd	r16, Z+8	; 0x08
     d70:	11 85       	ldd	r17, Z+9	; 0x09
     d72:	ea cf       	rjmp	.-44     	;  0xd48               ; Relative jump
     d74:	f3 e0       	ldi	r31, 0x03	; 3                     ; Load immediate value
     d76:	ff 12       	cpse	r15, r31
     d78:	0e c0       	rjmp	.+28     	;  0xd96               ; Relative jump
     d7a:	8f 89       	ldd	r24, Y+23	; 0x17
     d7c:	88 23       	and	r24, r24
     d7e:	09 f4       	brne	.+2      	;  0xd82               ; Branch if not equal
     d80:	40 c0       	rjmp	.+128    	;  0xe02               ; Relative jump
     d82:	82 30       	cpi	r24, 0x02	; 2                     ; Compare with immediate
     d84:	61 f4       	brne	.+24     	;  0xd9e               ; Branch if not equal
     d86:	40 e8       	ldi	r20, 0x80	; 128                   ; Load immediate value
     d88:	60 e1       	ldi	r22, 0x10	; 16                    ; Load immediate value
     d8a:	8d e3       	ldi	r24, 0x3D	; 61                    ; Load immediate value
     d8c:	91 e0       	ldi	r25, 0x01	; 1                     ; Load immediate value
     d8e:	0e 94 7d 01 	call	0x2fa	;  0x2fa                   ; Function call
     d92:	81 11       	cpse	r24, r1
     d94:	48 cf       	rjmp	.-368    	;  0xc26               ; Relative jump
     d96:	81 e2       	ldi	r24, 0x21	; 33                    ; Load immediate value
     d98:	80 93 eb 00 	sts	0x00EB, r24	;  0x8000eb           ; Store to data space
     d9c:	47 cf       	rjmp	.-370    	;  0xc2c               ; Relative jump
     d9e:	81 30       	cpi	r24, 0x01	; 1                     ; Compare with immediate
     da0:	29 f4       	brne	.+10     	;  0xdac               ; Branch if not equal
     da2:	40 e8       	ldi	r20, 0x80	; 128                   ; Load immediate value
     da4:	6b e0       	ldi	r22, 0x0B	; 11                    ; Load immediate value
     da6:	81 e3       	ldi	r24, 0x31	; 49                    ; Load immediate value
     da8:	91 e0       	ldi	r25, 0x01	; 1                     ; Load immediate value
     daa:	f1 cf       	rjmp	.-30     	;  0xd8e               ; Relative jump
     dac:	83 30       	cpi	r24, 0x03	; 3                     ; Compare with immediate
     dae:	99 f7       	brne	.-26     	;  0xd96               ; Branch if not equal
     db0:	0e 94 3b 01 	call	0x276	;  0x276                   ; Function call
     db4:	dc 01       	movw	r26, r24
     db6:	12 96       	adiw	r26, 0x02	; 2
     db8:	ed 90       	ld	r14, X+
     dba:	fc 90       	ld	r15, X
     dbc:	8e 01       	movw	r16, r28
     dbe:	0f 5f       	subi	r16, 0xFF	; 255
     dc0:	1f 4f       	sbci	r17, 0xFF	; 255
     dc2:	68 01       	movw	r12, r16
     dc4:	e1 14       	cp	r14, r1
     dc6:	f1 04       	cpc	r15, r1
     dc8:	79 f0       	breq	.+30     	;  0xde8               ; Branch if equal
     dca:	d7 01       	movw	r26, r14
     dcc:	ed 91       	ld	r30, X+
     dce:	fc 91       	ld	r31, X
     dd0:	06 80       	ldd	r0, Z+6	; 0x06
     dd2:	f7 81       	ldd	r31, Z+7	; 0x07
     dd4:	e0 2d       	mov	r30, r0                           ; Move register to register
     dd6:	b8 01       	movw	r22, r16
     dd8:	c7 01       	movw	r24, r14
     dda:	09 95       	icall
     ddc:	08 0f       	add	r16, r24
     dde:	11 1d       	adc	r17, r1
     de0:	f7 01       	movw	r30, r14
     de2:	e0 84       	ldd	r14, Z+8	; 0x08
     de4:	f1 84       	ldd	r15, Z+9	; 0x09
     de6:	ee cf       	rjmp	.-36     	;  0xdc4               ; Relative jump
     de8:	d8 01       	movw	r26, r16
     dea:	1c 92       	st	X, r1
     dec:	f6 01       	movw	r30, r12
     dee:	01 90       	ld	r0, Z+
     df0:	00 20       	and	r0, r0
     df2:	e9 f7       	brne	.-6      	;  0xdee               ; Branch if not equal
     df4:	31 97       	sbiw	r30, 0x01	; 1
     df6:	bf 01       	movw	r22, r30
     df8:	6c 19       	sub	r22, r12
     dfa:	7d 09       	sbc	r23, r13
     dfc:	40 e0       	ldi	r20, 0x00	; 0                     ; Load immediate value
     dfe:	c6 01       	movw	r24, r12
     e00:	c6 cf       	rjmp	.-116    	;  0xd8e               ; Relative jump
     e02:	6b e1       	ldi	r22, 0x1B	; 27                    ; Load immediate value
     e04:	71 e0       	ldi	r23, 0x01	; 1                     ; Load immediate value
     e06:	fb 01       	movw	r30, r22
     e08:	44 91       	lpm	r20, Z
     e0a:	50 e0       	ldi	r21, 0x00	; 0                     ; Load immediate value
     e0c:	80 e8       	ldi	r24, 0x80	; 128                   ; Load immediate value
     e0e:	0e 94 b0 01 	call	0x360	;  0x360                   ; Function call
     e12:	09 cf       	rjmp	.-494    	;  0xc26               ; Relative jump
     e14:	97 30       	cpi	r25, 0x07	; 7                     ; Compare with immediate
     e16:	09 f4       	brne	.+2      	;  0xe1a               ; Branch if not equal
     e18:	be cf       	rjmp	.-132    	;  0xd96               ; Relative jump
     e1a:	98 30       	cpi	r25, 0x08	; 8                     ; Compare with immediate
     e1c:	21 f4       	brne	.+8      	;  0xe26               ; Branch if not equal
     e1e:	81 e0       	ldi	r24, 0x01	; 1                     ; Load immediate value
     e20:	80 93 f1 00 	sts	0x00F1, r24	;  0x8000f1           ; Store to data space
     e24:	00 cf       	rjmp	.-512    	;  0xc26               ; Relative jump
     e26:	99 30       	cpi	r25, 0x09	; 9                     ; Compare with immediate
     e28:	09 f0       	breq	.+2      	;  0xe2c               ; Branch if equal
     e2a:	fd ce       	rjmp	.-518    	;  0xc26               ; Relative jump
     e2c:	83 70       	andi	r24, 0x03	; 3
     e2e:	09 f0       	breq	.+2      	;  0xe32               ; Branch if equal
     e30:	b2 cf       	rjmp	.-156    	;  0xd96               ; Relative jump
     e32:	ed e0       	ldi	r30, 0x0D	; 13                    ; Load immediate value
     e34:	f1 e0       	ldi	r31, 0x01	; 1                     ; Load immediate value
     e36:	81 e0       	ldi	r24, 0x01	; 1                     ; Load immediate value
     e38:	31 e0       	ldi	r19, 0x01	; 1                     ; Load immediate value
     e3a:	96 e3       	ldi	r25, 0x36	; 54                    ; Load immediate value
     e3c:	21 91       	ld	r18, Z+
     e3e:	22 23       	and	r18, r18
     e40:	71 f0       	breq	.+28     	;  0xe5e               ; Branch if equal
     e42:	80 93 e9 00 	sts	0x00E9, r24	;  0x8000e9           ; Store to data space
     e46:	30 93 eb 00 	sts	0x00EB, r19	;  0x8000eb           ; Store to data space
     e4a:	df 01       	movw	r26, r30
     e4c:	11 97       	sbiw	r26, 0x01	; 1
     e4e:	2c 91       	ld	r18, X
     e50:	20 93 ec 00 	sts	0x00EC, r18	;  0x8000ec           ; Store to data space
     e54:	90 93 ed 00 	sts	0x00ED, r25	;  0x8000ed           ; Store to data space
     e58:	8f 5f       	subi	r24, 0xFF	; 255
     e5a:	87 30       	cpi	r24, 0x07	; 7                     ; Compare with immediate
     e5c:	79 f7       	brne	.-34     	;  0xe3c               ; Branch if not equal
     e5e:	8e e7       	ldi	r24, 0x7E	; 126                   ; Load immediate value
     e60:	80 93 ea 00 	sts	0x00EA, r24	;  0x8000ea           ; Store to data space
     e64:	10 92 ea 00 	sts	0x00EA, r1	;  0x8000ea            ; Store to data space
     e68:	8f 89       	ldd	r24, Y+23	; 0x17
     e6a:	80 93 cc 01 	sts	0x01CC, r24	;  0x8001cc           ; Store to data space
     e6e:	db ce       	rjmp	.-586    	;  0xc26               ; Relative jump
     e70:	8b 8d       	ldd	r24, Y+27	; 0x1b
     e72:	9c 8d       	ldd	r25, Y+28	; 0x1c
     e74:	10 92 e9 00 	sts	0x00E9, r1	;  0x8000e9            ; Store to data space
     e78:	10 92 b6 01 	sts	0x01B6, r1	;  0x8001b6            ; Store to data space
     e7c:	10 92 b5 01 	sts	0x01B5, r1	;  0x8001b5            ; Store to data space
     e80:	90 93 b4 01 	sts	0x01B4, r25	;  0x8001b4           ; Store to data space
     e84:	80 93 b3 01 	sts	0x01B3, r24	;  0x8001b3           ; Store to data space
     e88:	89 8d       	ldd	r24, Y+25	; 0x19
     e8a:	81 11       	cpse	r24, r1
     e8c:	92 c0       	rjmp	.+292    	;  0xfb2               ; Relative jump
     e8e:	8e 89       	ldd	r24, Y+22	; 0x16
     e90:	9d 89       	ldd	r25, Y+21	; 0x15
     e92:	91 3a       	cpi	r25, 0xA1	; 161                   ; Compare with immediate
     e94:	49 f4       	brne	.+18     	;  0xea8               ; Branch if not equal
     e96:	81 32       	cpi	r24, 0x21	; 33                    ; Compare with immediate
     e98:	09 f0       	breq	.+2      	;  0xe9c               ; Branch if equal
     e9a:	7d cf       	rjmp	.-262    	;  0xd96               ; Relative jump
     e9c:	47 e0       	ldi	r20, 0x07	; 7                     ; Load immediate value
     e9e:	50 e0       	ldi	r21, 0x00	; 0                     ; Load immediate value
     ea0:	64 e0       	ldi	r22, 0x04	; 4                     ; Load immediate value
     ea2:	71 e0       	ldi	r23, 0x01	; 1                     ; Load immediate value
     ea4:	80 e0       	ldi	r24, 0x00	; 0                     ; Load immediate value
     ea6:	b3 cf       	rjmp	.-154    	;  0xe0e               ; Relative jump
     ea8:	91 32       	cpi	r25, 0x21	; 33                    ; Compare with immediate
     eaa:	09 f0       	breq	.+2      	;  0xeae               ; Branch if equal
     eac:	74 cf       	rjmp	.-280    	;  0xd96               ; Relative jump
     eae:	83 32       	cpi	r24, 0x23	; 35                    ; Compare with immediate
     eb0:	69 f4       	brne	.+26     	;  0xecc               ; Branch if not equal
     eb2:	8f 89       	ldd	r24, Y+23	; 0x17
     eb4:	98 8d       	ldd	r25, Y+24	; 0x18
     eb6:	b0 e0       	ldi	r27, 0x00	; 0                     ; Load immediate value
     eb8:	a0 e0       	ldi	r26, 0x00	; 0                     ; Load immediate value
     eba:	80 93 00 01 	sts	0x0100, r24	;  0x800100           ; Store to data space
     ebe:	90 93 01 01 	sts	0x0101, r25	;  0x800101           ; Store to data space
     ec2:	a0 93 02 01 	sts	0x0102, r26	;  0x800102           ; Store to data space
     ec6:	b0 93 03 01 	sts	0x0103, r27	;  0x800103           ; Store to data space
     eca:	ad ce       	rjmp	.-678    	;  0xc26               ; Relative jump
     ecc:	80 32       	cpi	r24, 0x20	; 32                    ; Compare with immediate
     ece:	69 f4       	brne	.+26     	;  0xeea               ; Branch if not equal
     ed0:	80 91 e8 00 	lds	r24, 0x00E8	;  0x8000e8           ; Load from data space
     ed4:	82 ff       	sbrs	r24, 2
     ed6:	fc cf       	rjmp	.-8      	;  0xed0               ; Relative jump
     ed8:	67 e0       	ldi	r22, 0x07	; 7                     ; Load immediate value
     eda:	84 e0       	ldi	r24, 0x04	; 4                     ; Load immediate value
     edc:	91 e0       	ldi	r25, 0x01	; 1                     ; Load immediate value
     ede:	0e 94 07 02 	call	0x40e	;  0x40e                   ; Function call
     ee2:	8b ef       	ldi	r24, 0xFB	; 251                   ; Load immediate value
     ee4:	80 93 e8 00 	sts	0x00E8, r24	;  0x8000e8           ; Store to data space
     ee8:	9e ce       	rjmp	.-708    	;  0xc26               ; Relative jump
     eea:	82 32       	cpi	r24, 0x22	; 34                    ; Compare with immediate
     eec:	09 f0       	breq	.+2      	;  0xef0               ; Branch if equal
     eee:	9b ce       	rjmp	.-714    	;  0xc26               ; Relative jump
     ef0:	8f 89       	ldd	r24, Y+23	; 0x17
     ef2:	80 93 0b 01 	sts	0x010B, r24	;  0x80010b           ; Store to data space
     ef6:	ee ef       	ldi	r30, 0xFE	; 254                   ; Load immediate value
     ef8:	ff e7       	ldi	r31, 0x7F	; 127                   ; Load immediate value
     efa:	85 91       	lpm	r24, Z+
     efc:	94 91       	lpm	r25, Z
     efe:	8b 3f       	cpi	r24, 0xFB	; 251                   ; Compare with immediate
     f00:	9c 4d       	sbci	r25, 0xDC	; 220
     f02:	51 f1       	breq	.+84     	;  0xf58               ; Branch if equal
     f04:	e0 e0       	ldi	r30, 0x00	; 0                     ; Load immediate value
     f06:	f8 e0       	ldi	r31, 0x08	; 8                     ; Load immediate value
     f08:	80 91 04 01 	lds	r24, 0x0104	;  0x800104           ; Load from data space
     f0c:	90 91 05 01 	lds	r25, 0x0105	;  0x800105           ; Load from data space
     f10:	a0 91 06 01 	lds	r26, 0x0106	;  0x800106           ; Load from data space
     f14:	b0 91 07 01 	lds	r27, 0x0107	;  0x800107           ; Load from data space
     f18:	80 3b       	cpi	r24, 0xB0	; 176                   ; Compare with immediate
     f1a:	94 40       	sbci	r25, 0x04	; 4
     f1c:	a1 05       	cpc	r26, r1
     f1e:	b1 05       	cpc	r27, r1
     f20:	f1 f4       	brne	.+60     	;  0xf5e               ; Branch if not equal
     f22:	80 91 0b 01 	lds	r24, 0x010B	;  0x80010b           ; Load from data space
     f26:	80 fd       	sbrc	r24, 0
     f28:	1a c0       	rjmp	.+52     	;  0xf5e               ; Relative jump
     f2a:	ee 3f       	cpi	r30, 0xFE	; 254                   ; Compare with immediate
     f2c:	8a e0       	ldi	r24, 0x0A	; 10                    ; Load immediate value
     f2e:	f8 07       	cpc	r31, r24
     f30:	89 f5       	brne	.+98     	;  0xf94               ; Branch if not equal
     f32:	87 e7       	ldi	r24, 0x77	; 119                   ; Load immediate value
     f34:	97 e7       	ldi	r25, 0x77	; 119                   ; Load immediate value
     f36:	91 83       	std	Z+1, r25	; 0x01
     f38:	80 83       	st	Z, r24
     f3a:	80 91 60 00 	lds	r24, 0x0060	;  0x800060           ; Load from data space
     f3e:	80 93 b7 01 	sts	0x01B7, r24	;  0x8001b7           ; Store to data space
     f42:	88 e1       	ldi	r24, 0x18	; 24                    ; Load immediate value
     f44:	9b e0       	ldi	r25, 0x0B	; 11                    ; Load immediate value
     f46:	0f b6       	in	r0, 0x3f	; 63                      ; Input from I/O port
     f48:	f8 94       	cli
     f4a:	a8 95       	wdr
     f4c:	80 93 60 00 	sts	0x0060, r24	;  0x800060           ; Store to data space
     f50:	0f be       	out	0x3f, r0	; 63                     ; Output to I/O port
     f52:	90 93 60 00 	sts	0x0060, r25	;  0x800060           ; Store to data space
     f56:	67 ce       	rjmp	.-818    	;  0xc26               ; Relative jump
     f58:	ee ef       	ldi	r30, 0xFE	; 254                   ; Load immediate value
     f5a:	fa e0       	ldi	r31, 0x0A	; 10                    ; Load immediate value
     f5c:	d5 cf       	rjmp	.-86     	;  0xf08               ; Relative jump
     f5e:	80 81       	ld	r24, Z
     f60:	91 81       	ldd	r25, Z+1	; 0x01
     f62:	87 37       	cpi	r24, 0x77	; 119                   ; Compare with immediate
     f64:	97 47       	sbci	r25, 0x77	; 119
     f66:	09 f0       	breq	.+2      	;  0xf6a               ; Branch if equal
     f68:	5e ce       	rjmp	.-836    	;  0xc26               ; Relative jump
     f6a:	a8 95       	wdr
     f6c:	80 91 60 00 	lds	r24, 0x0060	;  0x800060           ; Load from data space
     f70:	88 61       	ori	r24, 0x18	; 24
     f72:	80 93 60 00 	sts	0x0060, r24	;  0x800060           ; Store to data space
     f76:	80 91 b7 01 	lds	r24, 0x01B7	;  0x8001b7           ; Load from data space
     f7a:	80 93 60 00 	sts	0x0060, r24	;  0x800060           ; Store to data space
     f7e:	ee 3f       	cpi	r30, 0xFE	; 254                   ; Compare with immediate
     f80:	2a e0       	ldi	r18, 0x0A	; 10                    ; Load immediate value
     f82:	f2 07       	cpc	r31, r18
     f84:	89 f0       	breq	.+34     	;  0xfa8               ; Branch if equal
     f86:	80 91 fe 0a 	lds	r24, 0x0AFE	;  0x800afe           ; Load from data space
     f8a:	90 91 ff 0a 	lds	r25, 0x0AFF	;  0x800aff           ; Load from data space
     f8e:	91 83       	std	Z+1, r25	; 0x01
     f90:	80 83       	st	Z, r24
     f92:	49 ce       	rjmp	.-878    	;  0xc26               ; Relative jump
     f94:	80 81       	ld	r24, Z
     f96:	91 81       	ldd	r25, Z+1	; 0x01
     f98:	87 37       	cpi	r24, 0x77	; 119                   ; Compare with immediate
     f9a:	98 07       	cpc	r25, r24
     f9c:	51 f2       	breq	.-108    	;  0xf32               ; Branch if equal
     f9e:	90 93 ff 0a 	sts	0x0AFF, r25	;  0x800aff           ; Store to data space
     fa2:	80 93 fe 0a 	sts	0x0AFE, r24	;  0x800afe           ; Store to data space
     fa6:	c5 cf       	rjmp	.-118    	;  0xf32               ; Relative jump
     fa8:	10 92 ff 0a 	sts	0x0AFF, r1	;  0x800aff            ; Store to data space
     fac:	10 92 fe 0a 	sts	0x0AFE, r1	;  0x800afe            ; Store to data space
     fb0:	3a ce       	rjmp	.-908    	;  0xc26               ; Relative jump
     fb2:	0e 94 3b 01 	call	0x276	;  0x276                   ; Function call
     fb6:	dc 01       	movw	r26, r24
     fb8:	12 96       	adiw	r26, 0x02	; 2
     fba:	0d 91       	ld	r16, X+
     fbc:	1c 91       	ld	r17, X
     fbe:	01 15       	cp	r16, r1
     fc0:	11 05       	cpc	r17, r1
     fc2:	09 f4       	brne	.+2      	;  0xfc6               ; Branch if not equal
     fc4:	e8 ce       	rjmp	.-560    	;  0xd96               ; Relative jump
     fc6:	d8 01       	movw	r26, r16
     fc8:	ed 91       	ld	r30, X+
     fca:	fc 91       	ld	r31, X
     fcc:	01 90       	ld	r0, Z+
     fce:	f0 81       	ld	r31, Z
     fd0:	e0 2d       	mov	r30, r0                           ; Move register to register
     fd2:	be 01       	movw	r22, r28
     fd4:	6b 5e       	subi	r22, 0xEB	; 235
     fd6:	7f 4f       	sbci	r23, 0xFF	; 255
     fd8:	c8 01       	movw	r24, r16
     fda:	09 95       	icall
     fdc:	81 11       	cpse	r24, r1
     fde:	23 ce       	rjmp	.-954    	;  0xc26               ; Relative jump
     fe0:	f8 01       	movw	r30, r16
     fe2:	00 85       	ldd	r16, Z+8	; 0x08
     fe4:	11 85       	ldd	r17, Z+9	; 0x09
     fe6:	eb cf       	rjmp	.-42     	;  0xfbe               ; Relative jump
     fe8:	18 16       	cp	r1, r24
     fea:	19 06       	cpc	r1, r25
     fec:	0c f4       	brge	.+2      	;  0xff0
     fee:	1b ce       	rjmp	.-970    	;  0xc26               ; Relative jump
     ff0:	d2 ce       	rjmp	.-604    	;  0xd96               ; Relative jump
     ff2:	f1 e0       	ldi	r31, 0x01	; 1                     ; Load immediate value
     ff4:	ff 12       	cpse	r15, r31
     ff6:	be ce       	rjmp	.-644    	;  0xd74               ; Relative jump
     ff8:	6f e1       	ldi	r22, 0x1F	; 31                    ; Load immediate value
     ffa:	71 e0       	ldi	r23, 0x01	; 1                     ; Load immediate value
     ffc:	04 cf       	rjmp	.-504    	;  0xe06               ; Relative jump
     ffe:	1f 92       	push	r1                               ; Push onto stack
    1000:	0f 92       	push	r0                               ; Push onto stack
    1002:	0f b6       	in	r0, 0x3f	; 63                      ; Input from I/O port
    1004:	0f 92       	push	r0                               ; Push onto stack
    1006:	11 24       	eor	r1, r1
    1008:	2f 93       	push	r18                              ; Push onto stack
    100a:	3f 93       	push	r19                              ; Push onto stack
    100c:	8f 93       	push	r24                              ; Push onto stack
    100e:	9f 93       	push	r25                              ; Push onto stack
    1010:	af 93       	push	r26                              ; Push onto stack
    1012:	bf 93       	push	r27                              ; Push onto stack
    1014:	80 91 ab 01 	lds	r24, 0x01AB	;  0x8001ab           ; Load from data space
    1018:	90 91 ac 01 	lds	r25, 0x01AC	;  0x8001ac           ; Load from data space
    101c:	a0 91 ad 01 	lds	r26, 0x01AD	;  0x8001ad           ; Load from data space
    1020:	b0 91 ae 01 	lds	r27, 0x01AE	;  0x8001ae           ; Load from data space
    1024:	30 91 aa 01 	lds	r19, 0x01AA	;  0x8001aa           ; Load from data space
    1028:	23 e0       	ldi	r18, 0x03	; 3                     ; Load immediate value
    102a:	23 0f       	add	r18, r19
    102c:	2d 37       	cpi	r18, 0x7D	; 125                   ; Compare with immediate
    102e:	58 f5       	brcc	.+86     	;  0x1086
    1030:	01 96       	adiw	r24, 0x01	; 1
    1032:	a1 1d       	adc	r26, r1
    1034:	b1 1d       	adc	r27, r1
    1036:	20 93 aa 01 	sts	0x01AA, r18	;  0x8001aa           ; Store to data space
    103a:	80 93 ab 01 	sts	0x01AB, r24	;  0x8001ab           ; Store to data space
    103e:	90 93 ac 01 	sts	0x01AC, r25	;  0x8001ac           ; Store to data space
    1042:	a0 93 ad 01 	sts	0x01AD, r26	;  0x8001ad           ; Store to data space
    1046:	b0 93 ae 01 	sts	0x01AE, r27	;  0x8001ae           ; Store to data space
    104a:	80 91 af 01 	lds	r24, 0x01AF	;  0x8001af           ; Load from data space
    104e:	90 91 b0 01 	lds	r25, 0x01B0	;  0x8001b0           ; Load from data space
    1052:	a0 91 b1 01 	lds	r26, 0x01B1	;  0x8001b1           ; Load from data space
    1056:	b0 91 b2 01 	lds	r27, 0x01B2	;  0x8001b2           ; Load from data space
    105a:	01 96       	adiw	r24, 0x01	; 1
    105c:	a1 1d       	adc	r26, r1
    105e:	b1 1d       	adc	r27, r1
    1060:	80 93 af 01 	sts	0x01AF, r24	;  0x8001af           ; Store to data space
    1064:	90 93 b0 01 	sts	0x01B0, r25	;  0x8001b0           ; Store to data space
    1068:	a0 93 b1 01 	sts	0x01B1, r26	;  0x8001b1           ; Store to data space
    106c:	b0 93 b2 01 	sts	0x01B2, r27	;  0x8001b2           ; Store to data space
    1070:	bf 91       	pop	r27                               ; Pop from stack
    1072:	af 91       	pop	r26                               ; Pop from stack
    1074:	9f 91       	pop	r25                               ; Pop from stack
    1076:	8f 91       	pop	r24                               ; Pop from stack
    1078:	3f 91       	pop	r19                               ; Pop from stack
    107a:	2f 91       	pop	r18                               ; Pop from stack
    107c:	0f 90       	pop	r0                                ; Pop from stack
    107e:	0f be       	out	0x3f, r0	; 63                     ; Output to I/O port
    1080:	0f 90       	pop	r0                                ; Pop from stack
    1082:	1f 90       	pop	r1                                ; Pop from stack
    1084:	18 95       	reti
    1086:	26 e8       	ldi	r18, 0x86	; 134                   ; Load immediate value
    1088:	23 0f       	add	r18, r19
    108a:	02 96       	adiw	r24, 0x02	; 2
    108c:	a1 1d       	adc	r26, r1
    108e:	b1 1d       	adc	r27, r1
    1090:	d2 cf       	rjmp	.-92     	;  0x1036              ; Relative jump
    1092:	1f 92       	push	r1                               ; Push onto stack
    1094:	0f 92       	push	r0                               ; Push onto stack
    1096:	0f b6       	in	r0, 0x3f	; 63                      ; Input from I/O port
    1098:	0f 92       	push	r0                               ; Push onto stack
    109a:	11 24       	eor	r1, r1
    109c:	2f 93       	push	r18                              ; Push onto stack
    109e:	3f 93       	push	r19                              ; Push onto stack
    10a0:	4f 93       	push	r20                              ; Push onto stack
    10a2:	5f 93       	push	r21                              ; Push onto stack
    10a4:	6f 93       	push	r22                              ; Push onto stack
    10a6:	7f 93       	push	r23                              ; Push onto stack
    10a8:	8f 93       	push	r24                              ; Push onto stack
    10aa:	9f 93       	push	r25                              ; Push onto stack
    10ac:	af 93       	push	r26                              ; Push onto stack
    10ae:	bf 93       	push	r27                              ; Push onto stack
    10b0:	ef 93       	push	r30                              ; Push onto stack
    10b2:	ff 93       	push	r31                              ; Push onto stack
    10b4:	e0 91 bd 01 	lds	r30, 0x01BD	;  0x8001bd           ; Load from data space
    10b8:	f0 91 be 01 	lds	r31, 0x01BE	;  0x8001be           ; Load from data space
    10bc:	30 97       	sbiw	r30, 0x00	; 0
    10be:	49 f0       	breq	.+18     	;  0x10d2              ; Branch if equal
    10c0:	a6 85       	ldd	r26, Z+14	; 0x0e
    10c2:	b7 85       	ldd	r27, Z+15	; 0x0f
    10c4:	85 85       	ldd	r24, Z+13	; 0x0d
    10c6:	96 8d       	ldd	r25, Z+30	; 0x1e
    10c8:	91 ff       	sbrs	r25, 1
    10ca:	14 c0       	rjmp	.+40     	;  0x10f4              ; Relative jump
    10cc:	9c 91       	ld	r25, X
    10ce:	89 23       	and	r24, r25
    10d0:	a1 f4       	brne	.+40     	;  0x10fa              ; Branch if not equal
    10d2:	ff 91       	pop	r31                               ; Pop from stack
    10d4:	ef 91       	pop	r30                               ; Pop from stack
    10d6:	bf 91       	pop	r27                               ; Pop from stack
    10d8:	af 91       	pop	r26                               ; Pop from stack
    10da:	9f 91       	pop	r25                               ; Pop from stack
    10dc:	8f 91       	pop	r24                               ; Pop from stack
    10de:	7f 91       	pop	r23                               ; Pop from stack
    10e0:	6f 91       	pop	r22                               ; Pop from stack
    10e2:	5f 91       	pop	r21                               ; Pop from stack
    10e4:	4f 91       	pop	r20                               ; Pop from stack
    10e6:	3f 91       	pop	r19                               ; Pop from stack
    10e8:	2f 91       	pop	r18                               ; Pop from stack
    10ea:	0f 90       	pop	r0                                ; Pop from stack
    10ec:	0f be       	out	0x3f, r0	; 63                     ; Output to I/O port
    10ee:	0f 90       	pop	r0                                ; Pop from stack
    10f0:	1f 90       	pop	r1                                ; Pop from stack
    10f2:	18 95       	reti
    10f4:	9c 91       	ld	r25, X
    10f6:	89 23       	and	r24, r25
    10f8:	61 f7       	brne	.-40     	;  0x10d2              ; Branch if not equal
    10fa:	a3 89       	ldd	r26, Z+19	; 0x13
    10fc:	b4 89       	ldd	r27, Z+20	; 0x14
    10fe:	9c 91       	ld	r25, X
    1100:	85 89       	ldd	r24, Z+21	; 0x15
    1102:	80 95       	com	r24
    1104:	89 23       	and	r24, r25
    1106:	8c 93       	st	X, r24
    1108:	86 89       	ldd	r24, Z+22	; 0x16
    110a:	97 89       	ldd	r25, Z+23	; 0x17
    110c:	01 97       	sbiw	r24, 0x01	; 1
    110e:	f1 f7       	brne	.-4      	;  0x110c              ; Branch if not equal
    1110:	60 8d       	ldd	r22, Z+24	; 0x18
    1112:	71 8d       	ldd	r23, Z+25	; 0x19
    1114:	a6 85       	ldd	r26, Z+14	; 0x0e
    1116:	b7 85       	ldd	r27, Z+15	; 0x0f
    1118:	55 85       	ldd	r21, Z+13	; 0x0d
    111a:	38 e0       	ldi	r19, 0x08	; 8                     ; Load immediate value
    111c:	20 e0       	ldi	r18, 0x00	; 0                     ; Load immediate value
    111e:	cb 01       	movw	r24, r22
    1120:	01 97       	sbiw	r24, 0x01	; 1
    1122:	f1 f7       	brne	.-4      	;  0x1120              ; Branch if not equal
    1124:	82 2f       	mov	r24, r18                          ; Move register to register
    1126:	90 e0       	ldi	r25, 0x00	; 0                     ; Load immediate value
    1128:	95 95       	asr	r25
    112a:	87 95       	ror	r24
    112c:	28 2f       	mov	r18, r24                          ; Move register to register
    112e:	4c 91       	ld	r20, X
    1130:	45 23       	and	r20, r21
    1132:	09 f0       	breq	.+2      	;  0x1136              ; Branch if equal
    1134:	20 68       	ori	r18, 0x80	; 128
    1136:	31 50       	subi	r19, 0x01	; 1
    1138:	91 f7       	brne	.-28     	;  0x111e              ; Branch if not equal
    113a:	86 8d       	ldd	r24, Z+30	; 0x1e
    113c:	81 fd       	sbrc	r24, 1
    113e:	20 95       	com	r18
    1140:	80 91 bc 01 	lds	r24, 0x01BC	;  0x8001bc           ; Load from data space
    1144:	90 e0       	ldi	r25, 0x00	; 0                     ; Load immediate value
    1146:	01 96       	adiw	r24, 0x01	; 1
    1148:	8f 73       	andi	r24, 0x3F	; 63
    114a:	99 27       	eor	r25, r25
    114c:	30 91 bb 01 	lds	r19, 0x01BB	;  0x8001bb           ; Load from data space
    1150:	38 17       	cp	r19, r24
    1152:	99 f0       	breq	.+38     	;  0x117a              ; Branch if equal
    1154:	a0 91 bc 01 	lds	r26, 0x01BC	;  0x8001bc           ; Load from data space
    1158:	b0 e0       	ldi	r27, 0x00	; 0                     ; Load immediate value
    115a:	a6 59       	subi	r26, 0x96	; 150
    115c:	be 4f       	sbci	r27, 0xFE	; 254
    115e:	2c 93       	st	X, r18
    1160:	80 93 bc 01 	sts	0x01BC, r24	;  0x8001bc           ; Store to data space
    1164:	82 8d       	ldd	r24, Z+26	; 0x1a
    1166:	93 8d       	ldd	r25, Z+27	; 0x1b
    1168:	01 97       	sbiw	r24, 0x01	; 1
    116a:	f1 f7       	brne	.-4      	;  0x1168              ; Branch if not equal
    116c:	a3 89       	ldd	r26, Z+19	; 0x13
    116e:	b4 89       	ldd	r27, Z+20	; 0x14
    1170:	8c 91       	ld	r24, X
    1172:	95 89       	ldd	r25, Z+21	; 0x15
    1174:	89 2b       	or	r24, r25
    1176:	8c 93       	st	X, r24
    1178:	ac cf       	rjmp	.-168    	;  0x10d2              ; Relative jump
    117a:	86 8d       	ldd	r24, Z+30	; 0x1e
    117c:	81 60       	ori	r24, 0x01	; 1
    117e:	86 8f       	std	Z+30, r24	; 0x1e
    1180:	f1 cf       	rjmp	.-30     	;  0x1164              ; Relative jump
    1182:	10 92 d0 01 	sts	0x01D0, r1	;  0x8001d0            ; Store to data space
    1186:	10 92 cf 01 	sts	0x01CF, r1	;  0x8001cf            ; Store to data space
    118a:	88 ee       	ldi	r24, 0xE8	; 232                   ; Load immediate value
    118c:	93 e0       	ldi	r25, 0x03	; 3                     ; Load immediate value
    118e:	a0 e0       	ldi	r26, 0x00	; 0                     ; Load immediate value
    1190:	b0 e0       	ldi	r27, 0x00	; 0                     ; Load immediate value
    1192:	80 93 d1 01 	sts	0x01D1, r24	;  0x8001d1           ; Store to data space
    1196:	90 93 d2 01 	sts	0x01D2, r25	;  0x8001d2           ; Store to data space
    119a:	a0 93 d3 01 	sts	0x01D3, r26	;  0x8001d3           ; Store to data space
    119e:	b0 93 d4 01 	sts	0x01D4, r27	;  0x8001d4           ; Store to data space
    11a2:	27 e1       	ldi	r18, 0x17	; 23                    ; Load immediate value
    11a4:	31 e0       	ldi	r19, 0x01	; 1                     ; Load immediate value
    11a6:	30 93 ce 01 	sts	0x01CE, r19	;  0x8001ce           ; Store to data space
    11aa:	20 93 cd 01 	sts	0x01CD, r18	;  0x8001cd           ; Store to data space
    11ae:	2f ef       	ldi	r18, 0xFF	; 255                   ; Load immediate value
    11b0:	3f ef       	ldi	r19, 0xFF	; 255                   ; Load immediate value
    11b2:	30 93 da 01 	sts	0x01DA, r19	;  0x8001da           ; Store to data space
    11b6:	20 93 d9 01 	sts	0x01D9, r18	;  0x8001d9           ; Store to data space
    11ba:	10 92 20 02 	sts	0x0220, r1	;  0x800220            ; Store to data space
    11be:	10 92 1f 02 	sts	0x021F, r1	;  0x80021f            ; Store to data space
    11c2:	80 93 21 02 	sts	0x0221, r24	;  0x800221           ; Store to data space
    11c6:	90 93 22 02 	sts	0x0222, r25	;  0x800222           ; Store to data space
    11ca:	a0 93 23 02 	sts	0x0223, r26	;  0x800223           ; Store to data space
    11ce:	b0 93 24 02 	sts	0x0224, r27	;  0x800224           ; Store to data space
    11d2:	89 e2       	ldi	r24, 0x29	; 41                    ; Load immediate value
    11d4:	91 e0       	ldi	r25, 0x01	; 1                     ; Load immediate value
    11d6:	90 93 1e 02 	sts	0x021E, r25	;  0x80021e           ; Store to data space
    11da:	80 93 1d 02 	sts	0x021D, r24	;  0x80021d           ; Store to data space
    11de:	10 92 34 02 	sts	0x0234, r1	;  0x800234            ; Store to data space
    11e2:	10 92 33 02 	sts	0x0233, r1	;  0x800233            ; Store to data space
    11e6:	10 92 36 02 	sts	0x0236, r1	;  0x800236            ; Store to data space
    11ea:	10 92 35 02 	sts	0x0235, r1	;  0x800235            ; Store to data space
    11ee:	10 92 38 02 	sts	0x0238, r1	;  0x800238            ; Store to data space
    11f2:	10 92 37 02 	sts	0x0237, r1	;  0x800237            ; Store to data space
    11f6:	10 92 3a 02 	sts	0x023A, r1	;  0x80023a            ; Store to data space
    11fa:	10 92 39 02 	sts	0x0239, r1	;  0x800239            ; Store to data space
    11fe:	60 91 3b 02 	lds	r22, 0x023B	;  0x80023b           ; Load from data space
    1202:	6e 7f       	andi	r22, 0xFE	; 254
    1204:	6d 7f       	andi	r22, 0xFD	; 253
    1206:	60 93 3b 02 	sts	0x023B, r22	;  0x80023b           ; Store to data space
    120a:	66 95       	lsr	r22
    120c:	61 70       	andi	r22, 0x01	; 1
    120e:	81 e0       	ldi	r24, 0x01	; 1                     ; Load immediate value
    1210:	68 27       	eor	r22, r24
    1212:	83 e0       	ldi	r24, 0x03	; 3                     ; Load immediate value
    1214:	0e 94 c2 02 	call	0x584	;  0x584                   ; Function call
    1218:	61 e0       	ldi	r22, 0x01	; 1                     ; Load immediate value
    121a:	83 e0       	ldi	r24, 0x03	; 3                     ; Load immediate value
    121c:	0e 94 33 03 	call	0x666	;  0x666                   ; Function call
    1220:	ec e8       	ldi	r30, 0x8C	; 140                   ; Load immediate value
    1222:	f1 e0       	ldi	r31, 0x01	; 1                     ; Load immediate value
    1224:	e4 91       	lpm	r30, Z
    1226:	e0 93 2d 02 	sts	0x022D, r30	;  0x80022d           ; Store to data space
    122a:	ed e6       	ldi	r30, 0x6D	; 109                   ; Load immediate value
    122c:	f1 e0       	ldi	r31, 0x01	; 1                     ; Load immediate value
    122e:	e4 91       	lpm	r30, Z
    1230:	f0 e0       	ldi	r31, 0x00	; 0                     ; Load immediate value
    1232:	ee 0f       	add	r30, r30
    1234:	ff 1f       	adc	r31, r31
    1236:	e4 5a       	subi	r30, 0xA4	; 164
    1238:	fe 4f       	sbci	r31, 0xFE	; 254
    123a:	85 91       	lpm	r24, Z+
    123c:	94 91       	lpm	r25, Z
    123e:	90 93 2f 02 	sts	0x022F, r25	;  0x80022f           ; Store to data space
    1242:	80 93 2e 02 	sts	0x022E, r24	;  0x80022e           ; Store to data space
    1246:	60 e0       	ldi	r22, 0x00	; 0                     ; Load immediate value
    1248:	82 e0       	ldi	r24, 0x02	; 2                     ; Load immediate value
    124a:	0e 94 33 03 	call	0x666	;  0x666                   ; Function call
    124e:	80 91 3b 02 	lds	r24, 0x023B	;  0x80023b           ; Load from data space
    1252:	81 fd       	sbrc	r24, 1
    1254:	04 c0       	rjmp	.+8      	;  0x125e              ; Relative jump
    1256:	61 e0       	ldi	r22, 0x01	; 1                     ; Load immediate value
    1258:	82 e0       	ldi	r24, 0x02	; 2                     ; Load immediate value
    125a:	0e 94 c2 02 	call	0x584	;  0x584                   ; Function call
    125e:	82 e0       	ldi	r24, 0x02	; 2                     ; Load immediate value
    1260:	80 93 29 02 	sts	0x0229, r24	;  0x800229           ; Store to data space
    1264:	eb e8       	ldi	r30, 0x8B	; 139                   ; Load immediate value
    1266:	f1 e0       	ldi	r31, 0x01	; 1                     ; Load immediate value
    1268:	e4 91       	lpm	r30, Z
    126a:	e0 93 2a 02 	sts	0x022A, r30	;  0x80022a           ; Store to data space
    126e:	ec e6       	ldi	r30, 0x6C	; 108                   ; Load immediate value
    1270:	f1 e0       	ldi	r31, 0x01	; 1                     ; Load immediate value
    1272:	e4 91       	lpm	r30, Z
    1274:	f0 e0       	ldi	r31, 0x00	; 0                     ; Load immediate value
    1276:	ee 0f       	add	r30, r30
    1278:	ff 1f       	adc	r31, r31
    127a:	e2 5b       	subi	r30, 0xB2	; 178
    127c:	fe 4f       	sbci	r31, 0xFE	; 254
    127e:	85 91       	lpm	r24, Z+
    1280:	94 91       	lpm	r25, Z
    1282:	90 93 2c 02 	sts	0x022C, r25	;  0x80022c           ; Store to data space
    1286:	80 93 2b 02 	sts	0x022B, r24	;  0x80022b           ; Store to data space
    128a:	08 95       	ret
    128c:	78 94       	sei
    128e:	84 b5       	in	r24, 0x24	; 36                     ; Input from I/O port
    1290:	82 60       	ori	r24, 0x02	; 2
    1292:	84 bd       	out	0x24, r24	; 36                    ; Output to I/O port
    1294:	84 b5       	in	r24, 0x24	; 36                     ; Input from I/O port
    1296:	81 60       	ori	r24, 0x01	; 1
    1298:	84 bd       	out	0x24, r24	; 36                    ; Output to I/O port
    129a:	85 b5       	in	r24, 0x25	; 37                     ; Input from I/O port
    129c:	82 60       	ori	r24, 0x02	; 2
    129e:	85 bd       	out	0x25, r24	; 37                    ; Output to I/O port
    12a0:	85 b5       	in	r24, 0x25	; 37                     ; Input from I/O port
    12a2:	81 60       	ori	r24, 0x01	; 1
    12a4:	85 bd       	out	0x25, r24	; 37                    ; Output to I/O port
    12a6:	80 91 6e 00 	lds	r24, 0x006E	;  0x80006e           ; Load from data space
    12aa:	81 60       	ori	r24, 0x01	; 1
    12ac:	80 93 6e 00 	sts	0x006E, r24	;  0x80006e           ; Store to data space
    12b0:	10 92 81 00 	sts	0x0081, r1	;  0x800081            ; Store to data space
    12b4:	80 91 81 00 	lds	r24, 0x0081	;  0x800081           ; Load from data space
    12b8:	82 60       	ori	r24, 0x02	; 2
    12ba:	80 93 81 00 	sts	0x0081, r24	;  0x800081           ; Store to data space
    12be:	80 91 81 00 	lds	r24, 0x0081	;  0x800081           ; Load from data space
    12c2:	81 60       	ori	r24, 0x01	; 1
    12c4:	80 93 81 00 	sts	0x0081, r24	;  0x800081           ; Store to data space
    12c8:	80 91 80 00 	lds	r24, 0x0080	;  0x800080           ; Load from data space
    12cc:	81 60       	ori	r24, 0x01	; 1
    12ce:	80 93 80 00 	sts	0x0080, r24	;  0x800080           ; Store to data space
    12d2:	80 91 91 00 	lds	r24, 0x0091	;  0x800091           ; Load from data space
    12d6:	82 60       	ori	r24, 0x02	; 2
    12d8:	80 93 91 00 	sts	0x0091, r24	;  0x800091           ; Store to data space
    12dc:	80 91 91 00 	lds	r24, 0x0091	;  0x800091           ; Load from data space
    12e0:	81 60       	ori	r24, 0x01	; 1
    12e2:	80 93 91 00 	sts	0x0091, r24	;  0x800091           ; Store to data space
    12e6:	80 91 90 00 	lds	r24, 0x0090	;  0x800090           ; Load from data space
    12ea:	81 60       	ori	r24, 0x01	; 1
    12ec:	80 93 90 00 	sts	0x0090, r24	;  0x800090           ; Store to data space
    12f0:	80 91 c1 00 	lds	r24, 0x00C1	;  0x8000c1           ; Load from data space
    12f4:	84 60       	ori	r24, 0x04	; 4
    12f6:	80 93 c1 00 	sts	0x00C1, r24	;  0x8000c1           ; Store to data space
    12fa:	80 91 c1 00 	lds	r24, 0x00C1	;  0x8000c1           ; Load from data space
    12fe:	82 60       	ori	r24, 0x02	; 2
    1300:	80 93 c1 00 	sts	0x00C1, r24	;  0x8000c1           ; Store to data space
    1304:	80 91 c1 00 	lds	r24, 0x00C1	;  0x8000c1           ; Load from data space
    1308:	81 60       	ori	r24, 0x01	; 1
    130a:	80 93 c1 00 	sts	0x00C1, r24	;  0x8000c1           ; Store to data space
    130e:	80 91 c3 00 	lds	r24, 0x00C3	;  0x8000c3           ; Load from data space
    1312:	81 60       	ori	r24, 0x01	; 1
    1314:	80 93 c3 00 	sts	0x00C3, r24	;  0x8000c3           ; Store to data space
    1318:	80 91 c0 00 	lds	r24, 0x00C0	;  0x8000c0           ; Load from data space
    131c:	82 60       	ori	r24, 0x02	; 2
    131e:	80 93 c0 00 	sts	0x00C0, r24	;  0x8000c0           ; Store to data space
    1322:	80 91 c2 00 	lds	r24, 0x00C2	;  0x8000c2           ; Load from data space
    1326:	81 60       	ori	r24, 0x01	; 1
    1328:	80 93 c2 00 	sts	0x00C2, r24	;  0x8000c2           ; Store to data space
    132c:	80 91 7a 00 	lds	r24, 0x007A	;  0x80007a           ; Load from data space
    1330:	84 60       	ori	r24, 0x04	; 4
    1332:	80 93 7a 00 	sts	0x007A, r24	;  0x80007a           ; Store to data space
    1336:	80 91 7a 00 	lds	r24, 0x007A	;  0x80007a           ; Load from data space
    133a:	82 60       	ori	r24, 0x02	; 2
    133c:	80 93 7a 00 	sts	0x007A, r24	;  0x80007a           ; Store to data space
    1340:	80 91 7a 00 	lds	r24, 0x007A	;  0x80007a           ; Load from data space
    1344:	81 60       	ori	r24, 0x01	; 1
    1346:	80 93 7a 00 	sts	0x007A, r24	;  0x80007a           ; Store to data space
    134a:	80 91 7a 00 	lds	r24, 0x007A	;  0x80007a           ; Load from data space
    134e:	80 68       	ori	r24, 0x80	; 128
    1350:	80 93 7a 00 	sts	0x007A, r24	;  0x80007a           ; Store to data space
    1354:	10 92 cc 01 	sts	0x01CC, r1	;  0x8001cc            ; Store to data space
    1358:	10 92 ba 01 	sts	0x01BA, r1	;  0x8001ba            ; Store to data space
    135c:	10 92 b9 01 	sts	0x01B9, r1	;  0x8001b9            ; Store to data space
    1360:	80 91 d7 00 	lds	r24, 0x00D7	;  0x8000d7           ; Load from data space
    1364:	81 60       	ori	r24, 0x01	; 1
    1366:	80 93 d7 00 	sts	0x00D7, r24	;  0x8000d7           ; Store to data space
    136a:	80 ea       	ldi	r24, 0xA0	; 160                   ; Load immediate value
    136c:	80 93 d8 00 	sts	0x00D8, r24	;  0x8000d8           ; Store to data space
    1370:	89 b5       	in	r24, 0x29	; 41                     ; Input from I/O port
    1372:	80 61       	ori	r24, 0x10	; 16
    1374:	89 bd       	out	0x29, r24	; 41                    ; Output to I/O port
    1376:	89 b5       	in	r24, 0x29	; 41                     ; Input from I/O port
    1378:	82 60       	ori	r24, 0x02	; 2
    137a:	89 bd       	out	0x29, r24	; 41                    ; Output to I/O port
    137c:	09 b4       	in	r0, 0x29	; 41                      ; Input from I/O port
    137e:	00 fe       	sbrs	r0, 0
    1380:	fd cf       	rjmp	.-6      	;  0x137c              ; Relative jump
    1382:	61 e0       	ldi	r22, 0x01	; 1                     ; Load immediate value
    1384:	70 e0       	ldi	r23, 0x00	; 0                     ; Load immediate value
    1386:	80 e0       	ldi	r24, 0x00	; 0                     ; Load immediate value
    1388:	90 e0       	ldi	r25, 0x00	; 0                     ; Load immediate value
    138a:	0e 94 89 03 	call	0x712	;  0x712                   ; Function call
    138e:	80 91 d8 00 	lds	r24, 0x00D8	;  0x8000d8           ; Load from data space
    1392:	8f 7c       	andi	r24, 0xCF	; 207
    1394:	80 61       	ori	r24, 0x10	; 16
    1396:	80 93 d8 00 	sts	0x00D8, r24	;  0x8000d8           ; Store to data space
    139a:	80 91 e0 00 	lds	r24, 0x00E0	;  0x8000e0           ; Load from data space
    139e:	80 7f       	andi	r24, 0xF0	; 240
    13a0:	80 93 e0 00 	sts	0x00E0, r24	;  0x8000e0           ; Store to data space
    13a4:	80 91 e1 00 	lds	r24, 0x00E1	;  0x8000e1           ; Load from data space
    13a8:	8e 7e       	andi	r24, 0xEE	; 238
    13aa:	80 93 e1 00 	sts	0x00E1, r24	;  0x8000e1           ; Store to data space
    13ae:	8d e0       	ldi	r24, 0x0D	; 13                    ; Load immediate value
    13b0:	80 93 e2 00 	sts	0x00E2, r24	;  0x8000e2           ; Store to data space
    13b4:	55 9a       	sbi	0x0a, 5	; 10
    13b6:	20 9a       	sbi	0x04, 0	; 4
    13b8:	61 e0       	ldi	r22, 0x01	; 1                     ; Load immediate value
    13ba:	8c e0       	ldi	r24, 0x0C	; 12                    ; Load immediate value
    13bc:	0e 94 33 03 	call	0x666	;  0x666                   ; Function call
    13c0:	61 e0       	ldi	r22, 0x01	; 1                     ; Load immediate value
    13c2:	8d e0       	ldi	r24, 0x0D	; 13                    ; Load immediate value
    13c4:	0e 94 33 03 	call	0x666	;  0x666                   ; Function call
    13c8:	10 92 38 02 	sts	0x0238, r1	;  0x800238            ; Store to data space
    13cc:	10 92 37 02 	sts	0x0237, r1	;  0x800237            ; Store to data space
    13d0:	10 92 36 02 	sts	0x0236, r1	;  0x800236            ; Store to data space
    13d4:	10 92 35 02 	sts	0x0235, r1	;  0x800235            ; Store to data space
    13d8:	10 92 34 02 	sts	0x0234, r1	;  0x800234            ; Store to data space
    13dc:	10 92 33 02 	sts	0x0233, r1	;  0x800233            ; Store to data space
    13e0:	8d ec       	ldi	r24, 0xCD	; 205                   ; Load immediate value
    13e2:	90 e0       	ldi	r25, 0x00	; 0                     ; Load immediate value
    13e4:	90 93 3a 02 	sts	0x023A, r25	;  0x80023a           ; Store to data space
    13e8:	80 93 39 02 	sts	0x0239, r24	;  0x800239           ; Store to data space
    13ec:	80 91 29 02 	lds	r24, 0x0229	;  0x800229           ; Load from data space
    13f0:	28 ef       	ldi	r18, 0xF8	; 248                   ; Load immediate value
    13f2:	28 0f       	add	r18, r24
    13f4:	24 30       	cpi	r18, 0x04	; 4                     ; Compare with immediate
    13f6:	48 f0       	brcs	.+18     	;  0x140a
    13f8:	92 ef       	ldi	r25, 0xF2	; 242                   ; Load immediate value
    13fa:	98 0f       	add	r25, r24
    13fc:	94 30       	cpi	r25, 0x04	; 4                     ; Compare with immediate
    13fe:	28 f0       	brcs	.+10     	;  0x140a
    1400:	96 ee       	ldi	r25, 0xE6	; 230                   ; Load immediate value
    1402:	98 0f       	add	r25, r24
    1404:	93 30       	cpi	r25, 0x03	; 3                     ; Compare with immediate
    1406:	08 f0       	brcs	.+2      	;  0x140a
    1408:	57 c0       	rjmp	.+174    	;  0x14b8              ; Relative jump
    140a:	45 e5       	ldi	r20, 0x55	; 85                    ; Load immediate value
    140c:	50 e0       	ldi	r21, 0x00	; 0                     ; Load immediate value
    140e:	50 93 34 02 	sts	0x0234, r21	;  0x800234           ; Store to data space
    1412:	40 93 33 02 	sts	0x0233, r20	;  0x800233           ; Store to data space
    1416:	4b ec       	ldi	r20, 0xCB	; 203                   ; Load immediate value
    1418:	50 e0       	ldi	r21, 0x00	; 0                     ; Load immediate value
    141a:	50 93 36 02 	sts	0x0236, r21	;  0x800236           ; Store to data space
    141e:	40 93 35 02 	sts	0x0235, r20	;  0x800235           ; Store to data space
    1422:	40 e9       	ldi	r20, 0x90	; 144                   ; Load immediate value
    1424:	50 e0       	ldi	r21, 0x00	; 0                     ; Load immediate value
    1426:	50 93 38 02 	sts	0x0238, r21	;  0x800238           ; Store to data space
    142a:	40 93 37 02 	sts	0x0237, r20	;  0x800237           ; Store to data space
    142e:	24 30       	cpi	r18, 0x04	; 4                     ; Compare with immediate
    1430:	50 f0       	brcs	.+20     	;  0x1446
    1432:	92 ef       	ldi	r25, 0xF2	; 242                   ; Load immediate value
    1434:	98 0f       	add	r25, r24
    1436:	94 30       	cpi	r25, 0x04	; 4                     ; Compare with immediate
    1438:	30 f0       	brcs	.+12     	;  0x1446
    143a:	96 ee       	ldi	r25, 0xE6	; 230                   ; Load immediate value
    143c:	98 0f       	add	r25, r24
    143e:	f0 e0       	ldi	r31, 0x00	; 0                     ; Load immediate value
    1440:	e0 e0       	ldi	r30, 0x00	; 0                     ; Load immediate value
    1442:	93 30       	cpi	r25, 0x03	; 3                     ; Compare with immediate
    1444:	10 f4       	brcc	.+4      	;  0x144a
    1446:	e8 e6       	ldi	r30, 0x68	; 104                   ; Load immediate value
    1448:	f0 e0       	ldi	r31, 0x00	; 0                     ; Load immediate value
    144a:	90 81       	ld	r25, Z
    144c:	24 30       	cpi	r18, 0x04	; 4                     ; Compare with immediate
    144e:	48 f0       	brcs	.+18     	;  0x1462
    1450:	22 ef       	ldi	r18, 0xF2	; 242                   ; Load immediate value
    1452:	28 0f       	add	r18, r24
    1454:	24 30       	cpi	r18, 0x04	; 4                     ; Compare with immediate
    1456:	28 f0       	brcs	.+10     	;  0x1462
    1458:	8a 51       	subi	r24, 0x1A	; 26
    145a:	f0 e0       	ldi	r31, 0x00	; 0                     ; Load immediate value
    145c:	e0 e0       	ldi	r30, 0x00	; 0                     ; Load immediate value
    145e:	83 30       	cpi	r24, 0x03	; 3                     ; Compare with immediate
    1460:	10 f4       	brcc	.+4      	;  0x1466
    1462:	e8 e6       	ldi	r30, 0x68	; 104                   ; Load immediate value
    1464:	f0 e0       	ldi	r31, 0x00	; 0                     ; Load immediate value
    1466:	91 60       	ori	r25, 0x01	; 1
    1468:	90 83       	st	Z, r25
    146a:	20 91 29 02 	lds	r18, 0x0229	;  0x800229           ; Load from data space
    146e:	38 ef       	ldi	r19, 0xF8	; 248                   ; Load immediate value
    1470:	32 0f       	add	r19, r18
    1472:	34 30       	cpi	r19, 0x04	; 4                     ; Compare with immediate
    1474:	48 f0       	brcs	.+18     	;  0x1488
    1476:	82 ef       	ldi	r24, 0xF2	; 242                   ; Load immediate value
    1478:	82 0f       	add	r24, r18
    147a:	84 30       	cpi	r24, 0x04	; 4                     ; Compare with immediate
    147c:	28 f0       	brcs	.+10     	;  0x1488
    147e:	86 ee       	ldi	r24, 0xE6	; 230                   ; Load immediate value
    1480:	82 0f       	add	r24, r18
    1482:	83 30       	cpi	r24, 0x03	; 3                     ; Compare with immediate
    1484:	08 f0       	brcs	.+2      	;  0x1488
    1486:	e3 c0       	rjmp	.+454    	;  0x164e              ; Relative jump
    1488:	8b e6       	ldi	r24, 0x6B	; 107                   ; Load immediate value
    148a:	90 e0       	ldi	r25, 0x00	; 0                     ; Load immediate value
    148c:	90 93 31 02 	sts	0x0231, r25	;  0x800231           ; Store to data space
    1490:	80 93 30 02 	sts	0x0230, r24	;  0x800230           ; Store to data space
    1494:	34 30       	cpi	r19, 0x04	; 4                     ; Compare with immediate
    1496:	08 f0       	brcs	.+2      	;  0x149a
    1498:	dd c0       	rjmp	.+442    	;  0x1654              ; Relative jump
    149a:	24 50       	subi	r18, 0x04	; 4
    149c:	33 0b       	sbc	r19, r19
    149e:	81 e0       	ldi	r24, 0x01	; 1                     ; Load immediate value
    14a0:	01 c0       	rjmp	.+2      	;  0x14a4              ; Relative jump
    14a2:	88 0f       	add	r24, r24
    14a4:	2a 95       	dec	r18
    14a6:	ea f7       	brpl	.-6      	;  0x14a2
    14a8:	80 93 32 02 	sts	0x0232, r24	;  0x800232           ; Store to data space
    14ac:	80 91 39 02 	lds	r24, 0x0239	;  0x800239           ; Load from data space
    14b0:	90 91 3a 02 	lds	r25, 0x023A	;  0x80023a           ; Load from data space
    14b4:	01 97       	sbiw	r24, 0x01	; 1
    14b6:	f1 f7       	brne	.-4      	;  0x14b4              ; Branch if not equal
    14b8:	80 91 37 02 	lds	r24, 0x0237	;  0x800237           ; Load from data space
    14bc:	90 91 38 02 	lds	r25, 0x0238	;  0x800238           ; Load from data space
    14c0:	89 2b       	or	r24, r25
    14c2:	49 f1       	breq	.+82     	;  0x1516              ; Branch if equal
    14c4:	e0 91 bd 01 	lds	r30, 0x01BD	;  0x8001bd           ; Load from data space
    14c8:	f0 91 be 01 	lds	r31, 0x01BE	;  0x8001be           ; Load from data space
    14cc:	82 e0       	ldi	r24, 0x02	; 2                     ; Load immediate value
    14ce:	ed 31       	cpi	r30, 0x1D	; 29                    ; Compare with immediate
    14d0:	f8 07       	cpc	r31, r24
    14d2:	09 f1       	breq	.+66     	;  0x1516              ; Branch if equal
    14d4:	30 97       	sbiw	r30, 0x00	; 0
    14d6:	39 f0       	breq	.+14     	;  0x14e6              ; Branch if equal
    14d8:	a3 89       	ldd	r26, Z+19	; 0x13
    14da:	b4 89       	ldd	r27, Z+20	; 0x14
    14dc:	9c 91       	ld	r25, X
    14de:	85 89       	ldd	r24, Z+21	; 0x15
    14e0:	80 95       	com	r24
    14e2:	89 23       	and	r24, r25
    14e4:	8c 93       	st	X, r24
    14e6:	80 91 3b 02 	lds	r24, 0x023B	;  0x80023b           ; Load from data space
    14ea:	8e 7f       	andi	r24, 0xFE	; 254
    14ec:	80 93 3b 02 	sts	0x023B, r24	;  0x80023b           ; Store to data space
    14f0:	10 92 bc 01 	sts	0x01BC, r1	;  0x8001bc            ; Store to data space
    14f4:	10 92 bb 01 	sts	0x01BB, r1	;  0x8001bb            ; Store to data space
    14f8:	8d e1       	ldi	r24, 0x1D	; 29                    ; Load immediate value
    14fa:	92 e0       	ldi	r25, 0x02	; 2                     ; Load immediate value
    14fc:	90 93 be 01 	sts	0x01BE, r25	;  0x8001be           ; Store to data space
    1500:	80 93 bd 01 	sts	0x01BD, r24	;  0x8001bd           ; Store to data space
    1504:	e0 91 30 02 	lds	r30, 0x0230	;  0x800230           ; Load from data space
    1508:	f0 91 31 02 	lds	r31, 0x0231	;  0x800231           ; Load from data space
    150c:	80 81       	ld	r24, Z
    150e:	90 91 32 02 	lds	r25, 0x0232	;  0x800232           ; Load from data space
    1512:	89 2b       	or	r24, r25
    1514:	80 83       	st	Z, r24
    1516:	8f ef       	ldi	r24, 0xFF	; 255                   ; Load immediate value
    1518:	9f ef       	ldi	r25, 0xFF	; 255                   ; Load immediate value
    151a:	90 93 da 01 	sts	0x01DA, r25	;  0x8001da           ; Store to data space
    151e:	80 93 d9 01 	sts	0x01D9, r24	;  0x8001d9           ; Store to data space
    1522:	6a e3       	ldi	r22, 0x3A	; 58                    ; Load immediate value
    1524:	71 e0       	ldi	r23, 0x01	; 1                     ; Load immediate value
    1526:	8d e1       	ldi	r24, 0x1D	; 29                    ; Load immediate value
    1528:	92 e0       	ldi	r25, 0x02	; 2                     ; Load immediate value
    152a:	0e 94 4a 05 	call	0xa94	;  0xa94                   ; Function call
    152e:	c0 e0       	ldi	r28, 0x00	; 0                     ; Load immediate value
    1530:	d0 e0       	ldi	r29, 0x00	; 0                     ; Load immediate value
    1532:	66 e4       	ldi	r22, 0x46	; 70                    ; Load immediate value
    1534:	71 e0       	ldi	r23, 0x01	; 1                     ; Load immediate value
    1536:	8d e1       	ldi	r24, 0x1D	; 29                    ; Load immediate value
    1538:	92 e0       	ldi	r25, 0x02	; 2                     ; Load immediate value
    153a:	0e 94 4a 05 	call	0xa94	;  0xa94                   ; Function call
    153e:	8d ec       	ldi	r24, 0xCD	; 205                   ; Load immediate value
    1540:	91 e0       	ldi	r25, 0x01	; 1                     ; Load immediate value
    1542:	0e 94 a8 02 	call	0x550	;  0x550                   ; Function call
    1546:	89 2b       	or	r24, r25
    1548:	91 f1       	breq	.+100    	;  0x15ae              ; Branch if equal
    154a:	8d ec       	ldi	r24, 0xCD	; 205                   ; Load immediate value
    154c:	91 e0       	ldi	r25, 0x01	; 1                     ; Load immediate value
    154e:	0e 94 66 02 	call	0x4cc	;  0x4cc                   ; Function call
    1552:	6c 01       	movw	r12, r24
    1554:	99 0f       	add	r25, r25
    1556:	ee 08       	sbc	r14, r14
    1558:	ff 08       	sbc	r15, r15
    155a:	2a e0       	ldi	r18, 0x0A	; 10                    ; Load immediate value
    155c:	b7 01       	movw	r22, r14
    155e:	a6 01       	movw	r20, r12
    1560:	f7 fe       	sbrs	r15, 7
    1562:	0d c0       	rjmp	.+26     	;  0x157e              ; Relative jump
    1564:	6d e2       	ldi	r22, 0x2D	; 45                    ; Load immediate value
    1566:	8d e1       	ldi	r24, 0x1D	; 29                    ; Load immediate value
    1568:	92 e0       	ldi	r25, 0x02	; 2                     ; Load immediate value
    156a:	0e 94 59 04 	call	0x8b2	;  0x8b2                   ; Function call
    156e:	44 27       	eor	r20, r20
    1570:	55 27       	eor	r21, r21
    1572:	ba 01       	movw	r22, r20
    1574:	4c 19       	sub	r20, r12
    1576:	5d 09       	sbc	r21, r13
    1578:	6e 09       	sbc	r22, r14
    157a:	7f 09       	sbc	r23, r15
    157c:	2a e0       	ldi	r18, 0x0A	; 10                    ; Load immediate value
    157e:	8d e1       	ldi	r24, 0x1D	; 29                    ; Load immediate value
    1580:	92 e0       	ldi	r25, 0x02	; 2                     ; Load immediate value
    1582:	0e 94 fe 04 	call	0x9fc	;  0x9fc                   ; Function call
    1586:	67 e3       	ldi	r22, 0x37	; 55                    ; Load immediate value
    1588:	71 e0       	ldi	r23, 0x01	; 1                     ; Load immediate value
    158a:	8d e1       	ldi	r24, 0x1D	; 29                    ; Load immediate value
    158c:	92 e0       	ldi	r25, 0x02	; 2                     ; Load immediate value
    158e:	0e 94 ef 04 	call	0x9de	;  0x9de                   ; Function call
    1592:	61 e0       	ldi	r22, 0x01	; 1                     ; Load immediate value
    1594:	8c e0       	ldi	r24, 0x0C	; 12                    ; Load immediate value
    1596:	0e 94 c2 02 	call	0x584	;  0x584                   ; Function call
    159a:	68 ee       	ldi	r22, 0xE8	; 232                   ; Load immediate value
    159c:	73 e0       	ldi	r23, 0x03	; 3                     ; Load immediate value
    159e:	80 e0       	ldi	r24, 0x00	; 0                     ; Load immediate value
    15a0:	90 e0       	ldi	r25, 0x00	; 0                     ; Load immediate value
    15a2:	0e 94 89 03 	call	0x712	;  0x712                   ; Function call
    15a6:	60 e0       	ldi	r22, 0x00	; 0                     ; Load immediate value
    15a8:	8d e0       	ldi	r24, 0x0D	; 13                    ; Load immediate value
    15aa:	0e 94 c2 02 	call	0x584	;  0x584                   ; Function call
    15ae:	6a ef       	ldi	r22, 0xFA	; 250                   ; Load immediate value
    15b0:	70 e0       	ldi	r23, 0x00	; 0                     ; Load immediate value
    15b2:	80 e0       	ldi	r24, 0x00	; 0                     ; Load immediate value
    15b4:	90 e0       	ldi	r25, 0x00	; 0                     ; Load immediate value
    15b6:	0e 94 89 03 	call	0x712	;  0x712                   ; Function call
    15ba:	6b e5       	ldi	r22, 0x5B	; 91                    ; Load immediate value
    15bc:	71 e0       	ldi	r23, 0x01	; 1                     ; Load immediate value
    15be:	8d ec       	ldi	r24, 0xCD	; 205                   ; Load immediate value
    15c0:	91 e0       	ldi	r25, 0x01	; 1                     ; Load immediate value
    15c2:	0e 94 4a 05 	call	0xa94	;  0xa94                   ; Function call
    15c6:	8d e1       	ldi	r24, 0x1D	; 29                    ; Load immediate value
    15c8:	92 e0       	ldi	r25, 0x02	; 2                     ; Load immediate value
    15ca:	0e 94 b5 04 	call	0x96a	;  0x96a                   ; Function call
    15ce:	89 2b       	or	r24, r25
    15d0:	91 f1       	breq	.+100    	;  0x1636              ; Branch if equal
    15d2:	8d e1       	ldi	r24, 0x1D	; 29                    ; Load immediate value
    15d4:	92 e0       	ldi	r25, 0x02	; 2                     ; Load immediate value
    15d6:	0e 94 cb 04 	call	0x996	;  0x996                   ; Function call
    15da:	6c 01       	movw	r12, r24
    15dc:	99 0f       	add	r25, r25
    15de:	ee 08       	sbc	r14, r14
    15e0:	ff 08       	sbc	r15, r15
    15e2:	2a e0       	ldi	r18, 0x0A	; 10                    ; Load immediate value
    15e4:	b7 01       	movw	r22, r14
    15e6:	a6 01       	movw	r20, r12
    15e8:	f7 fe       	sbrs	r15, 7
    15ea:	0d c0       	rjmp	.+26     	;  0x1606              ; Relative jump
    15ec:	6d e2       	ldi	r22, 0x2D	; 45                    ; Load immediate value
    15ee:	8d ec       	ldi	r24, 0xCD	; 205                   ; Load immediate value
    15f0:	91 e0       	ldi	r25, 0x01	; 1                     ; Load immediate value
    15f2:	0e 94 41 02 	call	0x482	;  0x482                   ; Function call
    15f6:	44 27       	eor	r20, r20
    15f8:	55 27       	eor	r21, r21
    15fa:	ba 01       	movw	r22, r20
    15fc:	4c 19       	sub	r20, r12
    15fe:	5d 09       	sbc	r21, r13
    1600:	6e 09       	sbc	r22, r14
    1602:	7f 09       	sbc	r23, r15
    1604:	2a e0       	ldi	r18, 0x0A	; 10                    ; Load immediate value
    1606:	8d ec       	ldi	r24, 0xCD	; 205                   ; Load immediate value
    1608:	91 e0       	ldi	r25, 0x01	; 1                     ; Load immediate value
    160a:	0e 94 fe 04 	call	0x9fc	;  0x9fc                   ; Function call
    160e:	67 e3       	ldi	r22, 0x37	; 55                    ; Load immediate value
    1610:	71 e0       	ldi	r23, 0x01	; 1                     ; Load immediate value
    1612:	8d ec       	ldi	r24, 0xCD	; 205                   ; Load immediate value
    1614:	91 e0       	ldi	r25, 0x01	; 1                     ; Load immediate value
    1616:	0e 94 ef 04 	call	0x9de	;  0x9de                   ; Function call
    161a:	61 e0       	ldi	r22, 0x01	; 1                     ; Load immediate value
    161c:	8d e0       	ldi	r24, 0x0D	; 13                    ; Load immediate value
    161e:	0e 94 c2 02 	call	0x584	;  0x584                   ; Function call
    1622:	68 ee       	ldi	r22, 0xE8	; 232                   ; Load immediate value
    1624:	73 e0       	ldi	r23, 0x03	; 3                     ; Load immediate value
    1626:	80 e0       	ldi	r24, 0x00	; 0                     ; Load immediate value
    1628:	90 e0       	ldi	r25, 0x00	; 0                     ; Load immediate value
    162a:	0e 94 89 03 	call	0x712	;  0x712                   ; Function call
    162e:	60 e0       	ldi	r22, 0x00	; 0                     ; Load immediate value
    1630:	8c e0       	ldi	r24, 0x0C	; 12                    ; Load immediate value
    1632:	0e 94 c2 02 	call	0x584	;  0x584                   ; Function call
    1636:	6a ef       	ldi	r22, 0xFA	; 250                   ; Load immediate value
    1638:	70 e0       	ldi	r23, 0x00	; 0                     ; Load immediate value
    163a:	80 e0       	ldi	r24, 0x00	; 0                     ; Load immediate value
    163c:	90 e0       	ldi	r25, 0x00	; 0                     ; Load immediate value
    163e:	0e 94 89 03 	call	0x712	;  0x712                   ; Function call
    1642:	20 97       	sbiw	r28, 0x00	; 0
    1644:	09 f4       	brne	.+2      	;  0x1648              ; Branch if not equal
    1646:	75 cf       	rjmp	.-278    	;  0x1532              ; Relative jump
    1648:	0e 94 00 00 	call	0	;  0x0                         ; Function call
    164c:	72 cf       	rjmp	.-284    	;  0x1532              ; Relative jump
    164e:	90 e0       	ldi	r25, 0x00	; 0                     ; Load immediate value
    1650:	80 e0       	ldi	r24, 0x00	; 0                     ; Load immediate value
    1652:	1c cf       	rjmp	.-456    	;  0x148c              ; Relative jump
    1654:	88 e0       	ldi	r24, 0x08	; 8                     ; Load immediate value
    1656:	2e 30       	cpi	r18, 0x0E	; 14                    ; Compare with immediate
    1658:	09 f4       	brne	.+2      	;  0x165c              ; Branch if not equal
    165a:	26 cf       	rjmp	.-436    	;  0x14a8              ; Relative jump
    165c:	82 e0       	ldi	r24, 0x02	; 2                     ; Load immediate value
    165e:	2f 30       	cpi	r18, 0x0F	; 15                    ; Compare with immediate
    1660:	09 f4       	brne	.+2      	;  0x1664              ; Branch if not equal
    1662:	22 cf       	rjmp	.-444    	;  0x14a8              ; Relative jump
    1664:	84 e0       	ldi	r24, 0x04	; 4                     ; Load immediate value
    1666:	20 31       	cpi	r18, 0x10	; 16                    ; Compare with immediate
    1668:	09 f4       	brne	.+2      	;  0x166c              ; Branch if not equal
    166a:	1e cf       	rjmp	.-452    	;  0x14a8              ; Relative jump
    166c:	81 e0       	ldi	r24, 0x01	; 1                     ; Load immediate value
    166e:	21 31       	cpi	r18, 0x11	; 17                    ; Compare with immediate
    1670:	09 f4       	brne	.+2      	;  0x1674              ; Branch if not equal
    1672:	1a cf       	rjmp	.-460    	;  0x14a8              ; Relative jump
    1674:	26 51       	subi	r18, 0x16	; 22
    1676:	33 0b       	sbc	r19, r19
    1678:	12 cf       	rjmp	.-476    	;  0x149e              ; Relative jump
    167a:	89 e2       	ldi	r24, 0x29	; 41                    ; Load immediate value
    167c:	91 e0       	ldi	r25, 0x01	; 1                     ; Load immediate value
    167e:	90 93 1e 02 	sts	0x021E, r25	;  0x80021e           ; Store to data space
    1682:	80 93 1d 02 	sts	0x021D, r24	;  0x80021d           ; Store to data space
    1686:	80 91 bd 01 	lds	r24, 0x01BD	;  0x8001bd           ; Load from data space
    168a:	90 91 be 01 	lds	r25, 0x01BE	;  0x8001be           ; Load from data space
    168e:	8d 51       	subi	r24, 0x1D	; 29
    1690:	92 40       	sbci	r25, 0x02	; 2
    1692:	71 f4       	brne	.+28     	;  0x16b0              ; Branch if not equal
    1694:	e0 91 30 02 	lds	r30, 0x0230	;  0x800230           ; Load from data space
    1698:	f0 91 31 02 	lds	r31, 0x0231	;  0x800231           ; Load from data space
    169c:	90 81       	ld	r25, Z
    169e:	80 91 32 02 	lds	r24, 0x0232	;  0x800232           ; Load from data space
    16a2:	80 95       	com	r24
    16a4:	89 23       	and	r24, r25
    16a6:	80 83       	st	Z, r24
    16a8:	10 92 be 01 	sts	0x01BE, r1	;  0x8001be            ; Store to data space
    16ac:	10 92 bd 01 	sts	0x01BD, r1	;  0x8001bd            ; Store to data space
    16b0:	08 95       	ret
    16b2:	a1 e2       	ldi	r26, 0x21	; 33                    ; Load immediate value
    16b4:	1a 2e       	mov	r1, r26                           ; Move register to register
    16b6:	aa 1b       	sub	r26, r26
    16b8:	bb 1b       	sub	r27, r27
    16ba:	fd 01       	movw	r30, r26
    16bc:	0d c0       	rjmp	.+26     	;  0x16d8              ; Relative jump
    16be:	aa 1f       	adc	r26, r26
    16c0:	bb 1f       	adc	r27, r27
    16c2:	ee 1f       	adc	r30, r30
    16c4:	ff 1f       	adc	r31, r31
    16c6:	a2 17       	cp	r26, r18
    16c8:	b3 07       	cpc	r27, r19
    16ca:	e4 07       	cpc	r30, r20
    16cc:	f5 07       	cpc	r31, r21
    16ce:	20 f0       	brcs	.+8      	;  0x16d8
    16d0:	a2 1b       	sub	r26, r18
    16d2:	b3 0b       	sbc	r27, r19
    16d4:	e4 0b       	sbc	r30, r20
    16d6:	f5 0b       	sbc	r31, r21
    16d8:	66 1f       	adc	r22, r22
    16da:	77 1f       	adc	r23, r23
    16dc:	88 1f       	adc	r24, r24
    16de:	99 1f       	adc	r25, r25
    16e0:	1a 94       	dec	r1
    16e2:	69 f7       	brne	.-38     	;  0x16be              ; Branch if not equal
    16e4:	60 95       	com	r22
    16e6:	70 95       	com	r23
    16e8:	80 95       	com	r24
    16ea:	90 95       	com	r25
    16ec:	9b 01       	movw	r18, r22
    16ee:	ac 01       	movw	r20, r24
    16f0:	bd 01       	movw	r22, r26
    16f2:	cf 01       	movw	r24, r30
    16f4:	08 95       	ret
    16f6:	ee 0f       	add	r30, r30
    16f8:	ff 1f       	adc	r31, r31
    16fa:	05 90       	lpm	r0, Z+
    16fc:	f4 91       	lpm	r31, Z
    16fe:	e0 2d       	mov	r30, r0                           ; Move register to register
    1700:	09 94       	ijmp
    1702:	10 e0       	ldi	r17, 0x00	; 0                     ; Load immediate value
    1704:	c5 ed       	ldi	r28, 0xD5	; 213                   ; Load immediate value
    1706:	d0 e0       	ldi	r29, 0x00	; 0                     ; Load immediate value
    1708:	04 c0       	rjmp	.+8      	;  0x1712              ; Relative jump
    170a:	fe 01       	movw	r30, r28
    170c:	0e 94 7b 0b 	call	0x16f6	;  0x16f6                 ; Function call
    1710:	21 96       	adiw	r28, 0x01	; 1
    1712:	c6 3d       	cpi	r28, 0xD6	; 214                   ; Compare with immediate
    1714:	d1 07       	cpc	r29, r17
    1716:	c9 f7       	brne	.-14     	;  0x170a              ; Branch if not equal
    1718:	f8 94       	cli
    171a:	ff cf       	rjmp	.-2      	;  0x171a              ; Relative jump
    171c:	ff ff       	.word	0xffff	; ????
    171e:	ff ff       	.word	0xffff	; ????
    1720:	00 e1       	ldi	r16, 0x10	; 16                    ; Load immediate value
    1722:	00 00       	nop
    1724:	00 00       	nop
    1726:	00 00       	nop
    1728:	00 c1       	rjmp	.+512    	;  0x192a              ; Relative jump
    172a:	80 81       	ld	r24, Z
    172c:	00 00       	nop
    172e:	00 00       	nop
    1730:	00 00       	nop
    1732:	00 41       	sbci	r16, 0x10	; 16
    1734:	02 bb       	out	0x12, r16	; 18                    ; Output to I/O port
    1736:	03 62       	ori	r16, 0x23	; 35
    1738:	02 57       	subi	r16, 0x72	; 114
    173a:	02 a8       	ldd	r0, Z+50	; 0x32
    173c:	02 66       	ori	r16, 0x62	; 98
    173e:	02 84       	ldd	r0, Z+10	; 0x0a
    1740:	02 00       	.word	0x0002	; ????
    1742:	00 00       	nop
    1744:	00 59       	subi	r16, 0x90	; 144
    1746:	04 14       	cp	r0, r4
    1748:	02 ec       	ldi	r16, 0xC2	; 194                   ; Load immediate value
    174a:	04 58       	subi	r16, 0x84	; 132
    174c:	04 b5       	in	r16, 0x24	; 36                     ; Input from I/O port
    174e:	04 cb       	rjmp	.-2552   	;  0xd58               ; Relative jump
    1750:	04 40       	sbci	r16, 0x04	; 4
    1752:	04 0d       	add	r16, r4
    1754:	0a 00       	.word	0x000a	; ????
    1756:	65 6e       	ori	r22, 0xE5	; 229
    1758:	74 65       	ori	r23, 0x54	; 84
    175a:	72 20       	and	r7, r2
    175c:	69 6e       	ori	r22, 0xE9	; 233
    175e:	70 75       	andi	r23, 0x50	; 80
    1760:	74 00       	.word	0x0074	; ????
    1762:	20 74       	andi	r18, 0x40	; 64
    1764:	68 69       	ori	r22, 0x98	; 152
    1766:	73 20       	and	r7, r3
    1768:	69 73       	andi	r22, 0x39	; 57
    176a:	20 61       	ori	r18, 0x10	; 16
    176c:	20 73       	andi	r18, 0x30	; 48
    176e:	6f 66       	ori	r22, 0x6F	; 111
    1770:	74 77       	andi	r23, 0x74	; 116
    1772:	61 72       	andi	r22, 0x21	; 33
    1774:	65 20       	and	r6, r5
    1776:	00 20       	and	r0, r0
    1778:	52 65       	ori	r21, 0x52	; 82
    177a:	67 75       	andi	r22, 0x57	; 87
    177c:	6c 61       	ori	r22, 0x1C	; 28
    177e:	72 20       	and	r7, r2
    1780:	70 6f       	ori	r23, 0xF0	; 240
    1782:	72 74       	andi	r23, 0x42	; 66
    1784:	20 00       	.word	0x0020	; ????
    1786:	ff ff       	.word	0xffff	; ????
    1788:	ff ff       	.word	0xffff	; ????
    178a:	ff ff       	.word	0xffff	; ????
    178c:	ff ff       	.word	0xffff	; ????
    178e:	ff ff       	.word	0xffff	; ????
    1790:	ff ff       	.word	0xffff	; ????
    1792:	ff ff       	.word	0xffff	; ????
    1794:	ff ff       	.word	0xffff	; ????
    1796:	ff ff       	.word	0xffff	; ????
    1798:	ff ff       	.word	0xffff	; ????
    179a:	ff ff       	.word	0xffff	; ????
    179c:	ff ff       	.word	0xffff	; ????
    179e:	ff ff       	.word	0xffff	; ????
    17a0:	ff ff       	.word	0xffff	; ????
    17a2:	ff ff       	.word	0xffff	; ????
    17a4:	ff ff       	.word	0xffff	; ????
    17a6:	ff ff       	.word	0xffff	; ????
    17a8:	ff ff       	.word	0xffff	; ????
    17aa:	ff ff       	.word	0xffff	; ????
    17ac:	ff ff       	.word	0xffff	; ????
    17ae:	ff ff       	.word	0xffff	; ????
    17b0:	ff ff       	.word	0xffff	; ????
    17b2:	ff ff       	.word	0xffff	; ????
    17b4:	ff ff       	.word	0xffff	; ????
    17b6:	ff ff       	.word	0xffff	; ????
    17b8:	ff ff       	.word	0xffff	; ????
    17ba:	ff ff       	.word	0xffff	; ????
    17bc:	ff ff       	.word	0xffff	; ????
    17be:	ff ff       	.word	0xffff	; ????
    17c0:	ff ff       	.word	0xffff	; ????
    17c2:	ff ff       	.word	0xffff	; ????
    17c4:	ff ff       	.word	0xffff	; ????
    17c6:	ff ff       	.word	0xffff	; ????
    17c8:	ff ff       	.word	0xffff	; ????
    17ca:	ff ff       	.word	0xffff	; ????
    17cc:	ff ff       	.word	0xffff	; ????
    17ce:	ff ff       	.word	0xffff	; ????
    17d0:	ff ff       	.word	0xffff	; ????
    17d2:	ff ff       	.word	0xffff	; ????
    17d4:	ff ff       	.word	0xffff	; ????
    17d6:	ff ff       	.word	0xffff	; ????
    17d8:	ff ff       	.word	0xffff	; ????
    17da:	ff ff       	.word	0xffff	; ????
    17dc:	ff ff       	.word	0xffff	; ????
    17de:	ff ff       	.word	0xffff	; ????
    17e0:	ff ff       	.word	0xffff	; ????
    17e2:	ff ff       	.word	0xffff	; ????
    17e4:	ff ff       	.word	0xffff	; ????
    17e6:	ff ff       	.word	0xffff	; ????
    17e8:	ff ff       	.word	0xffff	; ????
    17ea:	ff ff       	.word	0xffff	; ????
    17ec:	ff ff       	.word	0xffff	; ????
    17ee:	ff ff       	.word	0xffff	; ????
    17f0:	ff ff       	.word	0xffff	; ????
    17f2:	ff ff       	.word	0xffff	; ????
    17f4:	ff ff       	.word	0xffff	; ????
    17f6:	ff ff       	.word	0xffff	; ????
    17f8:	ff ff       	.word	0xffff	; ????
    17fa:	ff ff       	.word	0xffff	; ????
    17fc:	ff ff       	.word	0xffff	; ????
    17fe:	ff ff       	.word	0xffff	; ????
    1800:	1c 02       	muls	r17, r28
    1802:	f0 91 1d 02 	lds	r31, 0x021D	;  0x80021d           ; Load from data space
    1806:	90 81       	ld	r25, Z
    1808:	80 91 1e 02 	lds	r24, 0x021E	;  0x80021e           ; Load from data space
    180c:	80 95       	com	r24
    180e:	89 23       	and	r24, r25
    1810:	80 83       	st	Z, r24
    1812:	10 92 a4 01 	sts	0x01A4, r1	;  0x8001a4            ; Store to data space
    1816:	10 92 a3 01 	sts	0x01A3, r1	;  0x8001a3            ; Store to data space
    181a:	08 95       	ret
    181c:	0e 94 19 0c 	call	0x1832	;  0x1832                 ; Function call
    1820:	a5 9f       	mul	r26, r21
    1822:	90 0d       	add	r25, r0
    1824:	b4 9f       	mul	r27, r20
    1826:	90 0d       	add	r25, r0
    1828:	a4 9f       	mul	r26, r20
    182a:	80 0d       	add	r24, r0
    182c:	91 1d       	adc	r25, r1
    182e:	11 24       	eor	r1, r1
    1830:	08 95       	ret
    1832:	a2 9f       	mul	r26, r18
    1834:	b0 01       	movw	r22, r0
    1836:	b3 9f       	mul	r27, r19
    1838:	c0 01       	movw	r24, r0
    183a:	a3 9f       	mul	r26, r19
    183c:	70 0d       	add	r23, r0
    183e:	81 1d       	adc	r24, r1
    1840:	11 24       	eor	r1, r1
    1842:	91 1d       	adc	r25, r1
    1844:	b2 9f       	mul	r27, r18
    1846:	70 0d       	add	r23, r0
    1848:	81 1d       	adc	r24, r1
    184a:	11 24       	eor	r1, r1
    184c:	91 1d       	adc	r25, r1
    184e:	08 95       	ret
    1850:	97 fb       	bst	r25, 7
    1852:	07 2e       	mov	r0, r23                           ; Move register to register
    1854:	16 f4       	brtc	.+4      	;  0x185a
    1856:	00 94       	com	r0
    1858:	07 d0       	rcall	.+14     	;  0x1868
    185a:	77 fd       	sbrc	r23, 7
    185c:	09 d0       	rcall	.+18     	;  0x1870
    185e:	0e 94 64 0c 	call	0x18c8	;  0x18c8                 ; Function call
    1862:	07 fc       	sbrc	r0, 7
    1864:	05 d0       	rcall	.+10     	;  0x1870
    1866:	3e f4       	brtc	.+14     	;  0x1876
    1868:	90 95       	com	r25
    186a:	81 95       	neg	r24
    186c:	9f 4f       	sbci	r25, 0xFF	; 255
    186e:	08 95       	ret
    1870:	70 95       	com	r23
    1872:	61 95       	neg	r22
    1874:	7f 4f       	sbci	r23, 0xFF	; 255
    1876:	08 95       	ret
    1878:	a1 e2       	ldi	r26, 0x21	; 33                    ; Load immediate value
    187a:	1a 2e       	mov	r1, r26                           ; Move register to register
    187c:	aa 1b       	sub	r26, r26
    187e:	bb 1b       	sub	r27, r27
    1880:	fd 01       	movw	r30, r26
    1882:	0d c0       	rjmp	.+26     	;  0x189e              ; Relative jump
    1884:	aa 1f       	adc	r26, r26
    1886:	bb 1f       	adc	r27, r27
    1888:	ee 1f       	adc	r30, r30
    188a:	ff 1f       	adc	r31, r31
    188c:	a2 17       	cp	r26, r18
    188e:	b3 07       	cpc	r27, r19
    1890:	e4 07       	cpc	r30, r20
    1892:	f5 07       	cpc	r31, r21
    1894:	20 f0       	brcs	.+8      	;  0x189e
    1896:	a2 1b       	sub	r26, r18
    1898:	b3 0b       	sbc	r27, r19
    189a:	e4 0b       	sbc	r30, r20
    189c:	f5 0b       	sbc	r31, r21
    189e:	66 1f       	adc	r22, r22
    18a0:	77 1f       	adc	r23, r23
    18a2:	88 1f       	adc	r24, r24
    18a4:	99 1f       	adc	r25, r25
    18a6:	1a 94       	dec	r1
    18a8:	69 f7       	brne	.-38     	;  0x1884              ; Branch if not equal
    18aa:	60 95       	com	r22
    18ac:	70 95       	com	r23
    18ae:	80 95       	com	r24
    18b0:	90 95       	com	r25
    18b2:	9b 01       	movw	r18, r22
    18b4:	ac 01       	movw	r20, r24
    18b6:	bd 01       	movw	r22, r26
    18b8:	cf 01       	movw	r24, r30
    18ba:	08 95       	ret
    18bc:	ee 0f       	add	r30, r30
    18be:	ff 1f       	adc	r31, r31
    18c0:	05 90       	lpm	r0, Z+
    18c2:	f4 91       	lpm	r31, Z
    18c4:	e0 2d       	mov	r30, r0                           ; Move register to register
    18c6:	09 94       	ijmp
    18c8:	aa 1b       	sub	r26, r26
    18ca:	bb 1b       	sub	r27, r27
    18cc:	51 e1       	ldi	r21, 0x11	; 17                    ; Load immediate value
    18ce:	07 c0       	rjmp	.+14     	;  0x18de              ; Relative jump
    18d0:	aa 1f       	adc	r26, r26
    18d2:	bb 1f       	adc	r27, r27
    18d4:	a6 17       	cp	r26, r22
    18d6:	b7 07       	cpc	r27, r23
    18d8:	10 f0       	brcs	.+4      	;  0x18de
    18da:	a6 1b       	sub	r26, r22
    18dc:	b7 0b       	sbc	r27, r23
    18de:	88 1f       	adc	r24, r24
    18e0:	99 1f       	adc	r25, r25
    18e2:	5a 95       	dec	r21
    18e4:	a9 f7       	brne	.-22     	;  0x18d0              ; Branch if not equal
    18e6:	80 95       	com	r24
    18e8:	90 95       	com	r25
    18ea:	bc 01       	movw	r22, r24
    18ec:	cd 01       	movw	r24, r26
    18ee:	08 95       	ret
    18f0:	10 e0       	ldi	r17, 0x00	; 0                     ; Load immediate value
    18f2:	c5 ed       	ldi	r28, 0xD5	; 213                   ; Load immediate value
    18f4:	d0 e0       	ldi	r29, 0x00	; 0                     ; Load immediate value
    18f6:	04 c0       	rjmp	.+8      	;  0x1900              ; Relative jump
    18f8:	fe 01       	movw	r30, r28
    18fa:	0e 94 5e 0c 	call	0x18bc	;  0x18bc                 ; Function call
    18fe:	21 96       	adiw	r28, 0x01	; 1
    1900:	c6 3d       	cpi	r28, 0xD6	; 214                   ; Compare with immediate
    1902:	d1 07       	cpc	r29, r17
    1904:	c9 f7       	brne	.-14     	;  0x18f8              ; Branch if not equal
    1906:	f8 94       	cli
    1908:	ff cf       	rjmp	.-2      	;  0x1908              ; Relative jump
    190a:	ff ff       	.word	0xffff	; ????
    190c:	ff ff       	.word	0xffff	; ????
    190e:	00 e1       	ldi	r16, 0x10	; 16                    ; Load immediate value
    1910:	00 00       	nop
    1912:	00 00       	nop
    1914:	00 00       	nop
    1916:	00 c1       	rjmp	.+512    	;  0x1b18              ; Relative jump
    1918:	80 81       	ld	r24, Z
    191a:	00 00       	nop
    191c:	00 00       	nop
    191e:	00 00       	nop
    1920:	00 41       	sbci	r16, 0x10	; 16
    1922:	02 fb       	bst	r16, 2
    1924:	03 62       	ori	r16, 0x23	; 35
    1926:	02 57       	subi	r16, 0x72	; 114
    1928:	02 e8       	ldi	r16, 0x82	; 130                   ; Load immediate value
    192a:	02 66       	ori	r16, 0x62	; 98
    192c:	02 84       	ldd	r0, Z+10	; 0x0a
    192e:	02 00       	.word	0x0002	; ????
    1930:	00 00       	nop
    1932:	00 99       	sbic	0x00, 0	; 0
    1934:	04 14       	cp	r0, r4
    1936:	02 2e       	mov	r0, r18                           ; Move register to register
    1938:	05 98       	cbi	0x00, 5	; 0
    193a:	04 f5       	brge	.+64     	;  0x197c
    193c:	04 0d       	add	r16, r4
    193e:	05 80       	ldd	r0, Z+5	; 0x05
    1940:	04 0d       	add	r16, r4
    1942:	0a 00       	.word	0x000a	; ????
    1944:	53 74       	andi	r21, 0x43	; 67
    1946:	61 74       	andi	r22, 0x41	; 65
    1948:	65 20       	and	r6, r5
    194a:	43 68       	ori	r20, 0x83	; 131
    194c:	61 6e       	ori	r22, 0xE1	; 225
    194e:	67 65       	ori	r22, 0x57	; 87
    1950:	64 20       	and	r6, r4
    1952:	74 6f       	ori	r23, 0xF4	; 244
    1954:	20 00       	.word	0x0020	; ????
    1956:	53 74       	andi	r21, 0x43	; 67
    1958:	61 74       	andi	r22, 0x41	; 65
    195a:	65 3a       	cpi	r22, 0xA5	; 165                   ; Compare with immediate
    195c:	20 00       	.word	0x0020	; ????
    195e:	ff ff       	.word	0xffff	; ????
    1960:	ff ff       	.word	0xffff	; ????
    1962:	ff ff       	.word	0xffff	; ????
    1964:	ff ff       	.word	0xffff	; ????
    1966:	ff ff       	.word	0xffff	; ????
    1968:	ff ff       	.word	0xffff	; ????
    196a:	ff ff       	.word	0xffff	; ????
    196c:	ff ff       	.word	0xffff	; ????
    196e:	ff ff       	.word	0xffff	; ????
    1970:	ff ff       	.word	0xffff	; ????
    1972:	ff ff       	.word	0xffff	; ????
    1974:	ff ff       	.word	0xffff	; ????
    1976:	ff ff       	.word	0xffff	; ????
    1978:	ff ff       	.word	0xffff	; ????
    197a:	ff ff       	.word	0xffff	; ????
    197c:	ff ff       	.word	0xffff	; ????
    197e:	ff ff       	.word	0xffff	; ????
    1980:	11 c0       	rjmp	.+34     	;  0x19a4              ; Relative jump
    1982:	40 81       	ld	r20, Z
    1984:	51 81       	ldd	r21, Z+1	; 0x01
    1986:	02 81       	ldd	r16, Z+2	; 0x02
    1988:	13 81       	ldd	r17, Z+3	; 0x03
    198a:	48 17       	cp	r20, r24
    198c:	59 07       	cpc	r21, r25
    198e:	e0 f0       	brcs	.+56     	;  0x19c8
    1990:	48 17       	cp	r20, r24
    1992:	59 07       	cpc	r21, r25
    1994:	99 f4       	brne	.+38     	;  0x19bc              ; Branch if not equal
    1996:	10 97       	sbiw	r26, 0x00	; 0
    1998:	61 f0       	breq	.+24     	;  0x19b2              ; Branch if equal
    199a:	12 96       	adiw	r26, 0x02	; 2
    199c:	0c 93       	st	X, r16
    199e:	12 97       	sbiw	r26, 0x02	; 2
    19a0:	13 96       	adiw	r26, 0x03	; 3
    19a2:	1c 93       	st	X, r17
    19a4:	32 96       	adiw	r30, 0x02	; 2
    19a6:	cf 01       	movw	r24, r30
    19a8:	df 91       	pop	r29                               ; Pop from stack
    19aa:	cf 91       	pop	r28                               ; Pop from stack
    19ac:	1f 91       	pop	r17                               ; Pop from stack
    19ae:	0f 91       	pop	r16                               ; Pop from stack
    19b0:	08 95       	ret
    19b2:	00 93 44 02 	sts	0x0244, r16	;  0x800244           ; Store to data space
    19b6:	10 93 45 02 	sts	0x0245, r17	;  0x800245           ; Store to data space
    19ba:	f4 cf       	rjmp	.-24     	;  0x19a4              ; Relative jump
    19bc:	21 15       	cp	r18, r1
    19be:	31 05       	cpc	r19, r1
    19c0:	51 f0       	breq	.+20     	;  0x19d6              ; Branch if equal
    19c2:	42 17       	cp	r20, r18
    19c4:	53 07       	cpc	r21, r19
    19c6:	38 f0       	brcs	.+14     	;  0x19d6
    19c8:	a9 01       	movw	r20, r18
    19ca:	db 01       	movw	r26, r22
    19cc:	9a 01       	movw	r18, r20
    19ce:	bd 01       	movw	r22, r26
    19d0:	df 01       	movw	r26, r30
    19d2:	f8 01       	movw	r30, r16
    19d4:	c1 cf       	rjmp	.-126    	;  0x1958              ; Relative jump
    19d6:	ef 01       	movw	r28, r30
    19d8:	f9 cf       	rjmp	.-14     	;  0x19cc              ; Relative jump
    19da:	90 93 45 02 	sts	0x0245, r25	;  0x800245           ; Store to data space
    19de:	80 93 44 02 	sts	0x0244, r24	;  0x800244           ; Store to data space
    19e2:	cd cf       	rjmp	.-102    	;  0x197e              ; Relative jump
    19e4:	fe 01       	movw	r30, r28
    19e6:	e2 0f       	add	r30, r18
    19e8:	f3 1f       	adc	r31, r19
    19ea:	81 93       	st	Z+, r24
    19ec:	91 93       	st	Z+, r25
    19ee:	22 50       	subi	r18, 0x02	; 2
    19f0:	31 09       	sbc	r19, r1
    19f2:	39 83       	std	Y+1, r19	; 0x01
    19f4:	28 83       	st	Y, r18
    19f6:	d7 cf       	rjmp	.-82     	;  0x19a6              ; Relative jump
    19f8:	20 91 42 02 	lds	r18, 0x0242	;  0x800242           ; Load from data space
    19fc:	30 91 43 02 	lds	r19, 0x0243	;  0x800243           ; Load from data space
    1a00:	23 2b       	or	r18, r19
    1a02:	41 f4       	brne	.+16     	;  0x1a14              ; Branch if not equal
    1a04:	20 91 0e 01 	lds	r18, 0x010E	;  0x80010e           ; Load from data space
    1a08:	30 91 0f 01 	lds	r19, 0x010F	;  0x80010f           ; Load from data space
    1a0c:	30 93 43 02 	sts	0x0243, r19	;  0x800243           ; Store to data space
    1a10:	20 93 42 02 	sts	0x0242, r18	;  0x800242           ; Store to data space
    1a14:	20 91 0c 01 	lds	r18, 0x010C	;  0x80010c           ; Load from data space
    1a18:	30 91 0d 01 	lds	r19, 0x010D	;  0x80010d           ; Load from data space
    1a1c:	21 15       	cp	r18, r1
    1a1e:	31 05       	cpc	r19, r1
    1a20:	41 f4       	brne	.+16     	;  0x1a32              ; Branch if not equal
    1a22:	2d b7       	in	r18, 0x3d	; 61                     ; Input from I/O port
    1a24:	3e b7       	in	r19, 0x3e	; 62                     ; Input from I/O port
    1a26:	40 91 10 01 	lds	r20, 0x0110	;  0x800110           ; Load from data space
    1a2a:	50 91 11 01 	lds	r21, 0x0111	;  0x800111           ; Load from data space
    1a2e:	24 1b       	sub	r18, r20
    1a30:	35 0b       	sbc	r19, r21
    1a32:	e0 91 42 02 	lds	r30, 0x0242	;  0x800242           ; Load from data space
    1a36:	f0 91 43 02 	lds	r31, 0x0243	;  0x800243           ; Load from data space
    1a3a:	e2 17       	cp	r30, r18
    1a3c:	f3 07       	cpc	r31, r19
    1a3e:	a0 f4       	brcc	.+40     	;  0x1a68
    1a40:	2e 1b       	sub	r18, r30
    1a42:	3f 0b       	sbc	r19, r31
    1a44:	28 17       	cp	r18, r24
    1a46:	39 07       	cpc	r19, r25
    1a48:	78 f0       	brcs	.+30     	;  0x1a68
    1a4a:	ac 01       	movw	r20, r24
    1a4c:	4e 5f       	subi	r20, 0xFE	; 254
    1a4e:	5f 4f       	sbci	r21, 0xFF	; 255
    1a50:	24 17       	cp	r18, r20
    1a52:	35 07       	cpc	r19, r21
    1a54:	48 f0       	brcs	.+18     	;  0x1a68
    1a56:	4e 0f       	add	r20, r30
    1a58:	5f 1f       	adc	r21, r31
    1a5a:	50 93 43 02 	sts	0x0243, r21	;  0x800243           ; Store to data space
    1a5e:	40 93 42 02 	sts	0x0242, r20	;  0x800242           ; Store to data space
    1a62:	81 93       	st	Z+, r24
    1a64:	91 93       	st	Z+, r25
    1a66:	9f cf       	rjmp	.-194    	;  0x19a6              ; Relative jump
    1a68:	f0 e0       	ldi	r31, 0x00	; 0                     ; Load immediate value
    1a6a:	e0 e0       	ldi	r30, 0x00	; 0                     ; Load immediate value
    1a6c:	9c cf       	rjmp	.-200    	;  0x19a6              ; Relative jump
    1a6e:	cf 93       	push	r28                              ; Push onto stack
    1a70:	df 93       	push	r29                              ; Push onto stack
    1a72:	00 97       	sbiw	r24, 0x00	; 0
    1a74:	e9 f0       	breq	.+58     	;  0x1ab0              ; Branch if equal
    1a76:	fc 01       	movw	r30, r24
    1a78:	32 97       	sbiw	r30, 0x02	; 2
    1a7a:	13 82       	std	Z+3, r1	; 0x03
    1a7c:	12 82       	std	Z+2, r1	; 0x02
    1a7e:	a0 91 44 02 	lds	r26, 0x0244	;  0x800244           ; Load from data space
    1a82:	b0 91 45 02 	lds	r27, 0x0245	;  0x800245           ; Load from data space
    1a86:	ed 01       	movw	r28, r26
    1a88:	30 e0       	ldi	r19, 0x00	; 0                     ; Load immediate value
    1a8a:	20 e0       	ldi	r18, 0x00	; 0                     ; Load immediate value
    1a8c:	10 97       	sbiw	r26, 0x00	; 0
    1a8e:	a1 f4       	brne	.+40     	;  0x1ab8              ; Branch if not equal
    1a90:	20 81       	ld	r18, Z
    1a92:	31 81       	ldd	r19, Z+1	; 0x01
    1a94:	82 0f       	add	r24, r18
    1a96:	93 1f       	adc	r25, r19
    1a98:	20 91 42 02 	lds	r18, 0x0242	;  0x800242           ; Load from data space
    1a9c:	30 91 43 02 	lds	r19, 0x0243	;  0x800243           ; Load from data space
    1aa0:	28 17       	cp	r18, r24
    1aa2:	39 07       	cpc	r19, r25
    1aa4:	09 f0       	breq	.+2      	;  0x1aa8              ; Branch if equal
    1aa6:	61 c0       	rjmp	.+194    	;  0x1b6a              ; Relative jump
    1aa8:	f0 93 43 02 	sts	0x0243, r31	;  0x800243           ; Store to data space
    1aac:	e0 93 42 02 	sts	0x0242, r30	;  0x800242           ; Store to data space
    1ab0:	df 91       	pop	r29                               ; Pop from stack
    1ab2:	cf 91       	pop	r28                               ; Pop from stack
    1ab4:	08 95       	ret
    1ab6:	ea 01       	movw	r28, r20
    1ab8:	ce 17       	cp	r28, r30
    1aba:	df 07       	cpc	r29, r31
    1abc:	e8 f5       	brcc	.+122    	;  0x1b38
    1abe:	4a 81       	ldd	r20, Y+2	; 0x02
    1ac0:	5b 81       	ldd	r21, Y+3	; 0x03
    1ac2:	9e 01       	movw	r18, r28
    1ac4:	41 15       	cp	r20, r1
    1ac6:	51 05       	cpc	r21, r1
    1ac8:	b1 f7       	brne	.-20     	;  0x1ab6              ; Branch if not equal
    1aca:	e9 01       	movw	r28, r18
    1acc:	fb 83       	std	Y+3, r31	; 0x03
    1ace:	ea 83       	std	Y+2, r30	; 0x02
    1ad0:	49 91       	ld	r20, Y+
    1ad2:	59 91       	ld	r21, Y+
    1ad4:	c4 0f       	add	r28, r20
    1ad6:	d5 1f       	adc	r29, r21
    1ad8:	ec 17       	cp	r30, r28
    1ada:	fd 07       	cpc	r31, r29
    1adc:	61 f4       	brne	.+24     	;  0x1af6              ; Branch if not equal
    1ade:	80 81       	ld	r24, Z
    1ae0:	91 81       	ldd	r25, Z+1	; 0x01
    1ae2:	02 96       	adiw	r24, 0x02	; 2
    1ae4:	84 0f       	add	r24, r20
    1ae6:	95 1f       	adc	r25, r21
    1ae8:	e9 01       	movw	r28, r18
    1aea:	99 83       	std	Y+1, r25	; 0x01
    1aec:	88 83       	st	Y, r24
    1aee:	82 81       	ldd	r24, Z+2	; 0x02
    1af0:	93 81       	ldd	r25, Z+3	; 0x03
    1af2:	9b 83       	std	Y+3, r25	; 0x03
    1af4:	8a 83       	std	Y+2, r24	; 0x02
    1af6:	f0 e0       	ldi	r31, 0x00	; 0                     ; Load immediate value
    1af8:	e0 e0       	ldi	r30, 0x00	; 0                     ; Load immediate value
    1afa:	12 96       	adiw	r26, 0x02	; 2
    1afc:	8d 91       	ld	r24, X+
    1afe:	9c 91       	ld	r25, X
    1b00:	13 97       	sbiw	r26, 0x03	; 3
    1b02:	00 97       	sbiw	r24, 0x00	; 0
    1b04:	b9 f5       	brne	.+110    	;  0x1b74              ; Branch if not equal
    1b06:	2d 91       	ld	r18, X+
    1b08:	3c 91       	ld	r19, X
    1b0a:	11 97       	sbiw	r26, 0x01	; 1
    1b0c:	cd 01       	movw	r24, r26
    1b0e:	02 96       	adiw	r24, 0x02	; 2
    1b10:	82 0f       	add	r24, r18
    1b12:	93 1f       	adc	r25, r19
    1b14:	20 91 42 02 	lds	r18, 0x0242	;  0x800242           ; Load from data space
    1b18:	30 91 43 02 	lds	r19, 0x0243	;  0x800243           ; Load from data space
    1b1c:	28 17       	cp	r18, r24
    1b1e:	39 07       	cpc	r19, r25
    1b20:	39 f6       	brne	.-114    	;  0x1ab0              ; Branch if not equal
    1b22:	30 97       	sbiw	r30, 0x00	; 0
    1b24:	51 f5       	brne	.+84     	;  0x1b7a              ; Branch if not equal
    1b26:	10 92 45 02 	sts	0x0245, r1	;  0x800245            ; Store to data space
    1b2a:	10 92 44 02 	sts	0x0244, r1	;  0x800244            ; Store to data space
    1b2e:	b0 93 43 02 	sts	0x0243, r27	;  0x800243           ; Store to data space
    1b32:	a0 93 42 02 	sts	0x0242, r26	;  0x800242           ; Store to data space
    1b36:	bc cf       	rjmp	.-136    	;  0x1ab0              ; Relative jump
    1b38:	d3 83       	std	Z+3, r29	; 0x03
    1b3a:	c2 83       	std	Z+2, r28	; 0x02
    1b3c:	40 81       	ld	r20, Z
    1b3e:	51 81       	ldd	r21, Z+1	; 0x01
    1b40:	84 0f       	add	r24, r20
    1b42:	95 1f       	adc	r25, r21
    1b44:	c8 17       	cp	r28, r24
    1b46:	d9 07       	cpc	r29, r25
    1b48:	61 f4       	brne	.+24     	;  0x1b62              ; Branch if not equal
    1b4a:	4e 5f       	subi	r20, 0xFE	; 254
    1b4c:	5f 4f       	sbci	r21, 0xFF	; 255
    1b4e:	88 81       	ld	r24, Y
    1b50:	99 81       	ldd	r25, Y+1	; 0x01
    1b52:	48 0f       	add	r20, r24
    1b54:	59 1f       	adc	r21, r25
    1b56:	51 83       	std	Z+1, r21	; 0x01
    1b58:	40 83       	st	Z, r20
    1b5a:	8a 81       	ldd	r24, Y+2	; 0x02
    1b5c:	9b 81       	ldd	r25, Y+3	; 0x03
    1b5e:	93 83       	std	Z+3, r25	; 0x03
    1b60:	82 83       	std	Z+2, r24	; 0x02
    1b62:	21 15       	cp	r18, r1
    1b64:	31 05       	cpc	r19, r1
    1b66:	09 f0       	breq	.+2      	;  0x1b6a              ; Branch if equal
    1b68:	b0 cf       	rjmp	.-160    	;  0x1aca              ; Relative jump
    1b6a:	f0 93 45 02 	sts	0x0245, r31	;  0x800245           ; Store to data space
    1b6e:	e0 93 44 02 	sts	0x0244, r30	;  0x800244           ; Store to data space
    1b72:	9e cf       	rjmp	.-196    	;  0x1ab0              ; Relative jump
    1b74:	fd 01       	movw	r30, r26
    1b76:	dc 01       	movw	r26, r24
    1b78:	c0 cf       	rjmp	.-128    	;  0x1afa              ; Relative jump
    1b7a:	13 82       	std	Z+3, r1	; 0x03
    1b7c:	12 82       	std	Z+2, r1	; 0x02
    1b7e:	d7 cf       	rjmp	.-82     	;  0x1b2e              ; Relative jump
    1b80:	b0 e0       	ldi	r27, 0x00	; 0                     ; Load immediate value
    1b82:	a0 e0       	ldi	r26, 0x00	; 0                     ; Load immediate value
    1b84:	e6 ec       	ldi	r30, 0xC6	; 198                   ; Load immediate value
    1b86:	fd e0       	ldi	r31, 0x0D	; 13                    ; Load immediate value
    1b88:	0c 94 38 0c 	jmp	0x1870	;  0x1870                  ; Jump
    1b8c:	8c 01       	movw	r16, r24
    1b8e:	00 97       	sbiw	r24, 0x00	; 0
    1b90:	51 f4       	brne	.+20     	;  0x1ba6              ; Branch if not equal
    1b92:	cb 01       	movw	r24, r22
    1b94:	0e 94 9b 0c 	call	0x1936	;  0x1936                 ; Function call
    1b98:	8c 01       	movw	r16, r24
    1b9a:	c8 01       	movw	r24, r16
    1b9c:	cd b7       	in	r28, 0x3d	; 61                     ; Input from I/O port
    1b9e:	de b7       	in	r29, 0x3e	; 62                     ; Input from I/O port
    1ba0:	e0 e1       	ldi	r30, 0x10	; 16                    ; Load immediate value
    1ba2:	0c 94 54 0c 	jmp	0x18a8	;  0x18a8                  ; Jump
    1ba6:	fc 01       	movw	r30, r24
    1ba8:	e6 0f       	add	r30, r22
    1baa:	f7 1f       	adc	r31, r23
    1bac:	9c 01       	movw	r18, r24
    1bae:	22 50       	subi	r18, 0x02	; 2
    1bb0:	31 09       	sbc	r19, r1
    1bb2:	e2 17       	cp	r30, r18
    1bb4:	f3 07       	cpc	r31, r19
    1bb6:	08 f4       	brcc	.+2      	;  0x1bba
    1bb8:	9d c0       	rjmp	.+314    	;  0x1cf4              ; Relative jump
    1bba:	d9 01       	movw	r26, r18
    1bbc:	cd 91       	ld	r28, X+
    1bbe:	dc 91       	ld	r29, X
    1bc0:	11 97       	sbiw	r26, 0x01	; 1
    1bc2:	c6 17       	cp	r28, r22
    1bc4:	d7 07       	cpc	r29, r23
    1bc6:	98 f0       	brcs	.+38     	;  0x1bee
    1bc8:	c5 30       	cpi	r28, 0x05	; 5                     ; Compare with immediate
    1bca:	d1 05       	cpc	r29, r1
    1bcc:	30 f3       	brcs	.-52     	;  0x1b9a
    1bce:	ce 01       	movw	r24, r28
    1bd0:	04 97       	sbiw	r24, 0x04	; 4
    1bd2:	86 17       	cp	r24, r22
    1bd4:	97 07       	cpc	r25, r23
    1bd6:	08 f3       	brcs	.-62     	;  0x1b9a
    1bd8:	c6 1b       	sub	r28, r22
    1bda:	d7 0b       	sbc	r29, r23
    1bdc:	22 97       	sbiw	r28, 0x02	; 2
    1bde:	c1 93       	st	Z+, r28
    1be0:	d1 93       	st	Z+, r29
    1be2:	6d 93       	st	X+, r22
    1be4:	7c 93       	st	X, r23
    1be6:	cf 01       	movw	r24, r30
    1be8:	0e 94 37 0d 	call	0x1a6e	;  0x1a6e                 ; Function call
    1bec:	d6 cf       	rjmp	.-84     	;  0x1b9a              ; Relative jump
    1bee:	5b 01       	movw	r10, r22
    1bf0:	ac 1a       	sub	r10, r28
    1bf2:	bd 0a       	sbc	r11, r29
    1bf4:	4c 01       	movw	r8, r24
    1bf6:	8c 0e       	add	r8, r28
    1bf8:	9d 1e       	adc	r9, r29
    1bfa:	a0 91 44 02 	lds	r26, 0x0244	;  0x800244           ; Load from data space
    1bfe:	b0 91 45 02 	lds	r27, 0x0245	;  0x800245           ; Load from data space
    1c02:	51 2c       	mov	r5, r1                            ; Move register to register
    1c04:	41 2c       	mov	r4, r1                            ; Move register to register
    1c06:	f1 2c       	mov	r15, r1                           ; Move register to register
    1c08:	e1 2c       	mov	r14, r1                           ; Move register to register
    1c0a:	10 97       	sbiw	r26, 0x00	; 0
    1c0c:	31 f5       	brne	.+76     	;  0x1c5a              ; Branch if not equal
    1c0e:	80 91 42 02 	lds	r24, 0x0242	;  0x800242           ; Load from data space
    1c12:	90 91 43 02 	lds	r25, 0x0243	;  0x800243           ; Load from data space
    1c16:	88 15       	cp	r24, r8
    1c18:	99 05       	cpc	r25, r9
    1c1a:	09 f0       	breq	.+2      	;  0x1c1e              ; Branch if equal
    1c1c:	5c c0       	rjmp	.+184    	;  0x1cd6              ; Relative jump
    1c1e:	46 16       	cp	r4, r22
    1c20:	57 06       	cpc	r5, r23
    1c22:	08 f0       	brcs	.+2      	;  0x1c26
    1c24:	58 c0       	rjmp	.+176    	;  0x1cd6              ; Relative jump
    1c26:	80 91 0c 01 	lds	r24, 0x010C	;  0x80010c           ; Load from data space
    1c2a:	90 91 0d 01 	lds	r25, 0x010D	;  0x80010d           ; Load from data space
    1c2e:	00 97       	sbiw	r24, 0x00	; 0
    1c30:	41 f4       	brne	.+16     	;  0x1c42              ; Branch if not equal
    1c32:	8d b7       	in	r24, 0x3d	; 61                     ; Input from I/O port
    1c34:	9e b7       	in	r25, 0x3e	; 62                     ; Input from I/O port
    1c36:	40 91 10 01 	lds	r20, 0x0110	;  0x800110           ; Load from data space
    1c3a:	50 91 11 01 	lds	r21, 0x0111	;  0x800111           ; Load from data space
    1c3e:	84 1b       	sub	r24, r20
    1c40:	95 0b       	sbc	r25, r21
    1c42:	e8 17       	cp	r30, r24
    1c44:	f9 07       	cpc	r31, r25
    1c46:	08 f0       	brcs	.+2      	;  0x1c4a
    1c48:	55 c0       	rjmp	.+170    	;  0x1cf4              ; Relative jump
    1c4a:	f0 93 43 02 	sts	0x0243, r31	;  0x800243           ; Store to data space
    1c4e:	e0 93 42 02 	sts	0x0242, r30	;  0x800242           ; Store to data space
    1c52:	f9 01       	movw	r30, r18
    1c54:	71 83       	std	Z+1, r23	; 0x01
    1c56:	60 83       	st	Z, r22
    1c58:	a0 cf       	rjmp	.-192    	;  0x1b9a              ; Relative jump
    1c5a:	8d 91       	ld	r24, X+
    1c5c:	9c 91       	ld	r25, X
    1c5e:	11 97       	sbiw	r26, 0x01	; 1
    1c60:	12 96       	adiw	r26, 0x02	; 2
    1c62:	6c 90       	ld	r6, X
    1c64:	12 97       	sbiw	r26, 0x02	; 2
    1c66:	13 96       	adiw	r26, 0x03	; 3
    1c68:	7c 90       	ld	r7, X
    1c6a:	13 97       	sbiw	r26, 0x03	; 3
    1c6c:	a8 15       	cp	r26, r8
    1c6e:	b9 05       	cpc	r27, r9
    1c70:	59 f5       	brne	.+86     	;  0x1cc8              ; Branch if not equal
    1c72:	6c 01       	movw	r12, r24
    1c74:	42 e0       	ldi	r20, 0x02	; 2                     ; Load immediate value
    1c76:	c4 0e       	add	r12, r20
    1c78:	d1 1c       	adc	r13, r1
    1c7a:	ca 14       	cp	r12, r10
    1c7c:	db 04       	cpc	r13, r11
    1c7e:	20 f1       	brcs	.+72     	;  0x1cc8
    1c80:	ac 01       	movw	r20, r24
    1c82:	4a 19       	sub	r20, r10
    1c84:	5b 09       	sbc	r21, r11
    1c86:	da 01       	movw	r26, r20
    1c88:	12 96       	adiw	r26, 0x02	; 2
    1c8a:	15 97       	sbiw	r26, 0x05	; 5
    1c8c:	80 f0       	brcs	.+32     	;  0x1cae
    1c8e:	62 82       	std	Z+2, r6	; 0x02
    1c90:	73 82       	std	Z+3, r7	; 0x03
    1c92:	51 83       	std	Z+1, r21	; 0x01
    1c94:	40 83       	st	Z, r20
    1c96:	d9 01       	movw	r26, r18
    1c98:	6d 93       	st	X+, r22
    1c9a:	7c 93       	st	X, r23
    1c9c:	e1 14       	cp	r14, r1
    1c9e:	f1 04       	cpc	r15, r1
    1ca0:	71 f0       	breq	.+28     	;  0x1cbe              ; Branch if equal
    1ca2:	d7 01       	movw	r26, r14
    1ca4:	13 96       	adiw	r26, 0x03	; 3
    1ca6:	fc 93       	st	X, r31
    1ca8:	ee 93       	st	-X, r30
    1caa:	12 97       	sbiw	r26, 0x02	; 2
    1cac:	76 cf       	rjmp	.-276    	;  0x1b9a              ; Relative jump
    1cae:	22 96       	adiw	r28, 0x02	; 2
    1cb0:	8c 0f       	add	r24, r28
    1cb2:	9d 1f       	adc	r25, r29
    1cb4:	f9 01       	movw	r30, r18
    1cb6:	91 83       	std	Z+1, r25	; 0x01
    1cb8:	80 83       	st	Z, r24
    1cba:	f3 01       	movw	r30, r6
    1cbc:	ef cf       	rjmp	.-34     	;  0x1c9c              ; Relative jump
    1cbe:	f0 93 45 02 	sts	0x0245, r31	;  0x800245           ; Store to data space
    1cc2:	e0 93 44 02 	sts	0x0244, r30	;  0x800244           ; Store to data space
    1cc6:	69 cf       	rjmp	.-302    	;  0x1b9a              ; Relative jump
    1cc8:	48 16       	cp	r4, r24
    1cca:	59 06       	cpc	r5, r25
    1ccc:	08 f4       	brcc	.+2      	;  0x1cd0
    1cce:	2c 01       	movw	r4, r24
    1cd0:	7d 01       	movw	r14, r26
    1cd2:	d3 01       	movw	r26, r6
    1cd4:	9a cf       	rjmp	.-204    	;  0x1c0a              ; Relative jump
    1cd6:	cb 01       	movw	r24, r22
    1cd8:	0e 94 9b 0c 	call	0x1936	;  0x1936                 ; Function call
    1cdc:	7c 01       	movw	r14, r24
    1cde:	00 97       	sbiw	r24, 0x00	; 0
    1ce0:	49 f0       	breq	.+18     	;  0x1cf4              ; Branch if equal
    1ce2:	ae 01       	movw	r20, r28
    1ce4:	b8 01       	movw	r22, r16
    1ce6:	0e 94 7d 0e 	call	0x1cfa	;  0x1cfa                 ; Function call
    1cea:	c8 01       	movw	r24, r16
    1cec:	0e 94 37 0d 	call	0x1a6e	;  0x1a6e                 ; Function call
    1cf0:	87 01       	movw	r16, r14
    1cf2:	53 cf       	rjmp	.-346    	;  0x1b9a              ; Relative jump
    1cf4:	10 e0       	ldi	r17, 0x00	; 0                     ; Load immediate value
    1cf6:	00 e0       	ldi	r16, 0x00	; 0                     ; Load immediate value
    1cf8:	50 cf       	rjmp	.-352    	;  0x1b9a              ; Relative jump
    1cfa:	fb 01       	movw	r30, r22
    1cfc:	dc 01       	movw	r26, r24
    1cfe:	02 c0       	rjmp	.+4      	;  0x1d04              ; Relative jump
    1d00:	01 90       	ld	r0, Z+
    1d02:	0d 92       	st	X+, r0
    1d04:	41 50       	subi	r20, 0x01	; 1
    1d06:	50 40       	sbci	r21, 0x00	; 0
    1d08:	d8 f7       	brcc	.-10     	;  0x1d00
    1d0a:	08 95       	ret
    1d0c:	fb 01       	movw	r30, r22
    1d0e:	dc 01       	movw	r26, r24
    1d10:	01 90       	ld	r0, Z+
    1d12:	0d 92       	st	X+, r0
    1d14:	00 20       	and	r0, r0
    1d16:	e1 f7       	brne	.-8      	;  0x1d10              ; Branch if not equal
    1d18:	08 95       	ret
    1d1a:	10 e0       	ldi	r17, 0x00	; 0                     ; Load immediate value
    1d1c:	c5 ed       	ldi	r28, 0xD5	; 213                   ; Load immediate value
    1d1e:	d0 e0       	ldi	r29, 0x00	; 0                     ; Load immediate value
    1d20:	04 c0       	rjmp	.+8      	;  0x1d2a              ; Relative jump
    1d22:	fe 01       	movw	r30, r28
    1d24:	0e 94 81 0c 	call	0x1902	;  0x1902                 ; Function call
    1d28:	21 96       	adiw	r28, 0x01	; 1
    1d2a:	c6 3d       	cpi	r28, 0xD6	; 214                   ; Compare with immediate
    1d2c:	d1 07       	cpc	r29, r17
    1d2e:	c9 f7       	brne	.-14     	;  0x1d22              ; Branch if not equal
    1d30:	f8 94       	cli
    1d32:	ff cf       	rjmp	.-2      	;  0x1d32              ; Relative jump
    1d34:	ff ff       	.word	0xffff	; ????
    1d36:	ff ff       	.word	0xffff	; ????
    1d38:	00 e1       	ldi	r16, 0x10	; 16                    ; Load immediate value
	...
    1d42:	46 02       	muls	r20, r22
    1d44:	80 00       	.word	0x0080	; ????
    1d46:	00 c1       	rjmp	.+512    	;  0x1f48              ; Relative jump
    1d48:	80 81       	ld	r24, Z
    1d4a:	00 00       	nop
    1d4c:	00 00       	nop
    1d4e:	00 00       	nop
    1d50:	00 42       	sbci	r16, 0x20	; 32
    1d52:	02 bc       	out	0x22, r0	; 34                     ; Output to I/O port
    1d54:	03 63       	ori	r16, 0x33	; 51
    1d56:	02 58       	subi	r16, 0x82	; 130
    1d58:	02 a9       	ldd	r16, Z+50	; 0x32
    1d5a:	02 67       	ori	r16, 0x72	; 114
    1d5c:	02 85       	ldd	r16, Z+10	; 0x0a
    1d5e:	02 00       	.word	0x0002	; ????
    1d60:	00 00       	nop
    1d62:	00 5a       	subi	r16, 0xA0	; 160
    1d64:	04 15       	cp	r16, r4
    1d66:	02 ef       	ldi	r16, 0xF2	; 242                   ; Load immediate value
    1d68:	04 59       	subi	r16, 0x94	; 148
    1d6a:	04 b6       	in	r0, 0x34	; 52                      ; Input from I/O port
    1d6c:	04 ce       	rjmp	.-1016   	;  0x1976              ; Relative jump
    1d6e:	04 41       	sbci	r16, 0x14	; 20
    1d70:	04 0d       	add	r16, r4
    1d72:	0a 00       	.word	0x000a	; ????
    1d74:	20 74       	andi	r18, 0x40	; 64
    1d76:	68 69       	ori	r22, 0x98	; 152
    1d78:	73 20       	and	r7, r3
    1d7a:	69 73       	andi	r22, 0x39	; 57
    1d7c:	20 61       	ori	r18, 0x10	; 16
    1d7e:	20 73       	andi	r18, 0x30	; 48
    1d80:	6f 66       	ori	r22, 0x6F	; 111
    1d82:	74 77       	andi	r23, 0x74	; 116
    1d84:	61 72       	andi	r22, 0x21	; 33
    1d86:	65 20       	and	r6, r5
    1d88:	00 20       	and	r0, r0
    1d8a:	52 65       	ori	r21, 0x52	; 82
    1d8c:	67 75       	andi	r22, 0x57	; 87
    1d8e:	6c 61       	ori	r22, 0x1C	; 28
    1d90:	72 20       	and	r7, r2
    1d92:	70 6f       	ori	r23, 0xF0	; 240
    1d94:	72 74       	andi	r23, 0x42	; 66
    1d96:	20 00       	.word	0x0020	; ????
    1d98:	ff ff       	.word	0xffff	; ????
    1d9a:	ff ff       	.word	0xffff	; ????
    1d9c:	ff ff       	.word	0xffff	; ????
    1d9e:	ff ff       	.word	0xffff	; ????
    1da0:	ff ff       	.word	0xffff	; ????
    1da2:	ff ff       	.word	0xffff	; ????
    1da4:	ff ff       	.word	0xffff	; ????
    1da6:	ff ff       	.word	0xffff	; ????
    1da8:	ff ff       	.word	0xffff	; ????
    1daa:	ff ff       	.word	0xffff	; ????
    1dac:	ff ff       	.word	0xffff	; ????
    1dae:	ff ff       	.word	0xffff	; ????
    1db0:	ff ff       	.word	0xffff	; ????
    1db2:	ff ff       	.word	0xffff	; ????
    1db4:	ff ff       	.word	0xffff	; ????
    1db6:	ff ff       	.word	0xffff	; ????
    1db8:	ff ff       	.word	0xffff	; ????
    1dba:	ff ff       	.word	0xffff	; ????
    1dbc:	ff ff       	.word	0xffff	; ????
    1dbe:	ff ff       	.word	0xffff	; ????
    1dc0:	ff ff       	.word	0xffff	; ????
    1dc2:	ff ff       	.word	0xffff	; ????
    1dc4:	ff ff       	.word	0xffff	; ????
    1dc6:	ff ff       	.word	0xffff	; ????
    1dc8:	ff ff       	.word	0xffff	; ????
    1dca:	ff ff       	.word	0xffff	; ????
    1dcc:	ff ff       	.word	0xffff	; ????
    1dce:	ff ff       	.word	0xffff	; ????
    1dd0:	ff ff       	.word	0xffff	; ????
    1dd2:	ff ff       	.word	0xffff	; ????
    1dd4:	ff ff       	.word	0xffff	; ????
    1dd6:	ff ff       	.word	0xffff	; ????
    1dd8:	ff ff       	.word	0xffff	; ????
    1dda:	ff ff       	.word	0xffff	; ????
    1ddc:	ff ff       	.word	0xffff	; ????
    1dde:	ff ff       	.word	0xffff	; ????
    1de0:	ff ff       	.word	0xffff	; ????
    1de2:	ff ff       	.word	0xffff	; ????
    1de4:	ff ff       	.word	0xffff	; ????
    1de6:	ff ff       	.word	0xffff	; ????
    1de8:	ff ff       	.word	0xffff	; ????
    1dea:	ff ff       	.word	0xffff	; ????
    1dec:	ff ff       	.word	0xffff	; ????
    1dee:	ff ff       	.word	0xffff	; ????
    1df0:	ff ff       	.word	0xffff	; ????
    1df2:	ff ff       	.word	0xffff	; ????
    1df4:	ff ff       	.word	0xffff	; ????
    1df6:	ff ff       	.word	0xffff	; ????
    1df8:	ff ff       	.word	0xffff	; ????
    1dfa:	ff ff       	.word	0xffff	; ????
    1dfc:	ff ff       	.word	0xffff	; ????
    1dfe:	ff ff       	.word	0xffff	; ????
    1e00:	08 95       	ret
    1e02:	fb 01       	movw	r30, r22
    1e04:	dc 01       	movw	r26, r24
    1e06:	01 90       	ld	r0, Z+
    1e08:	0d 92       	st	X+, r0
    1e0a:	00 20       	and	r0, r0
    1e0c:	e1 f7       	brne	.-8      	;  0x1e06              ; Branch if not equal
    1e0e:	08 95       	ret
    1e10:	10 e0       	ldi	r17, 0x00	; 0                     ; Load immediate value
    1e12:	c5 ed       	ldi	r28, 0xD5	; 213                   ; Load immediate value
    1e14:	d0 e0       	ldi	r29, 0x00	; 0                     ; Load immediate value
    1e16:	04 c0       	rjmp	.+8      	;  0x1e20              ; Relative jump
    1e18:	fe 01       	movw	r30, r28
    1e1a:	0e 94 f3 0c 	call	0x19e6	;  0x19e6                 ; Function call
    1e1e:	21 96       	adiw	r28, 0x01	; 1
    1e20:	c6 3d       	cpi	r28, 0xD6	; 214                   ; Compare with immediate
    1e22:	d1 07       	cpc	r29, r17
    1e24:	c9 f7       	brne	.-14     	;  0x1e18              ; Branch if not equal
    1e26:	f8 94       	cli
    1e28:	ff cf       	rjmp	.-2      	;  0x1e28              ; Relative jump
    1e2a:	ff ff       	.word	0xffff	; ????
    1e2c:	ff ff       	.word	0xffff	; ????
    1e2e:	00 e1       	ldi	r16, 0x10	; 16                    ; Load immediate value
	...
    1e38:	7a 02       	muls	r23, r26
    1e3a:	80 00       	.word	0x0080	; ????
    1e3c:	00 c1       	rjmp	.+512    	;  0x203e              ; Relative jump
    1e3e:	80 81       	ld	r24, Z
    1e40:	00 00       	nop
    1e42:	00 00       	nop
    1e44:	00 00       	nop
    1e46:	00 42       	sbci	r16, 0x20	; 32
    1e48:	02 fc       	sbrc	r0, 2
    1e4a:	03 63       	ori	r16, 0x33	; 51
    1e4c:	02 58       	subi	r16, 0x82	; 130
    1e4e:	02 e9       	ldi	r16, 0x92	; 146                   ; Load immediate value
    1e50:	02 67       	ori	r16, 0x72	; 114
    1e52:	02 c5       	rjmp	.+2564   	;  0x2858              ; Relative jump
    1e54:	02 00       	.word	0x0002	; ????
    1e56:	00 00       	nop
    1e58:	00 9a       	sbi	0x00, 0	; 0
    1e5a:	04 15       	cp	r16, r4
    1e5c:	02 2f       	mov	r16, r18                          ; Move register to register
    1e5e:	05 99       	sbic	0x00, 5	; 0
    1e60:	04 f6       	brge	.-128    	;  0x1de2
    1e62:	04 0e       	add	r0, r20
    1e64:	05 81       	ldd	r16, Z+5	; 0x05
    1e66:	04 0d       	add	r16, r4
    1e68:	0a 00       	.word	0x000a	; ????
    1e6a:	52 65       	ori	r21, 0x52	; 82
    1e6c:	61 64       	ori	r22, 0x41	; 65
    1e6e:	79 20       	and	r7, r9
    1e70:	66 6f       	ori	r22, 0xF6	; 246
    1e72:	72 20       	and	r7, r2
    1e74:	69 6e       	ori	r22, 0xE9	; 233
    1e76:	70 75       	andi	r23, 0x50	; 80
    1e78:	74 21       	and	r23, r4
    1e7a:	00 52       	subi	r16, 0x20	; 32
    1e7c:	65 63       	ori	r22, 0x35	; 53
    1e7e:	65 69       	ori	r22, 0x95	; 149
    1e80:	76 65       	ori	r23, 0x56	; 86
    1e82:	64 3a       	cpi	r22, 0xA4	; 164                   ; Compare with immediate
    1e84:	20 00       	.word	0x0020	; ????
    1e86:	53 6f       	ori	r21, 0xF3	; 243
    1e88:	66 74       	andi	r22, 0x46	; 70
    1e8a:	77 61       	ori	r23, 0x17	; 23
    1e8c:	72 65       	ori	r23, 0x52	; 82
    1e8e:	20 53       	subi	r18, 0x30	; 48
    1e90:	65 72       	andi	r22, 0x25	; 37
    1e92:	69 61       	ori	r22, 0x19	; 25
    1e94:	6c 20       	and	r6, r12
    1e96:	65 63       	ori	r22, 0x35	; 53
    1e98:	68 6f       	ori	r22, 0xF8	; 248
    1e9a:	3a 20       	and	r3, r10
    1e9c:	00 72       	andi	r16, 0x20	; 32
    1e9e:	00 52       	subi	r16, 0x20	; 32
    1ea0:	00 67       	ori	r16, 0x70	; 112
    1ea2:	00 47       	sbci	r16, 0x70	; 112
    1ea4:	00 55       	subi	r16, 0x50	; 80
    1ea6:	6e 6b       	ori	r22, 0xBE	; 190
    1ea8:	6e 6f       	ori	r22, 0xFE	; 254
    1eaa:	77 6e       	ori	r23, 0xE7	; 231
    1eac:	20 63       	ori	r18, 0x30	; 48
    1eae:	6f 6d       	ori	r22, 0xDF	; 223
    1eb0:	6d 61       	ori	r22, 0x1D	; 29
    1eb2:	6e 64       	ori	r22, 0x4E	; 78
    1eb4:	2e 20       	and	r2, r14
    1eb6:	54 79       	andi	r21, 0x94	; 148
    1eb8:	70 65       	ori	r23, 0x50	; 80
    1eba:	20 27       	eor	r18, r16
    1ebc:	72 27       	eor	r23, r18
    1ebe:	20 6f       	ori	r18, 0xF0	; 240
    1ec0:	72 20       	and	r7, r2
    1ec2:	27 67       	ori	r18, 0x77	; 119
    1ec4:	27 2e       	mov	r2, r23                           ; Move register to register
    1ec6:	00 00       	nop
    1ec8:	ff ff       	.word	0xffff	; ????
    1eca:	ff ff       	.word	0xffff	; ????
    1ecc:	ff ff       	.word	0xffff	; ????
    1ece:	ff ff       	.word	0xffff	; ????
    1ed0:	ff ff       	.word	0xffff	; ????
    1ed2:	ff ff       	.word	0xffff	; ????
    1ed4:	ff ff       	.word	0xffff	; ????
    1ed6:	ff ff       	.word	0xffff	; ????
    1ed8:	ff ff       	.word	0xffff	; ????
    1eda:	ff ff       	.word	0xffff	; ????
    1edc:	ff ff       	.word	0xffff	; ????
    1ede:	ff ff       	.word	0xffff	; ????
    1ee0:	ff ff       	.word	0xffff	; ????
    1ee2:	ff ff       	.word	0xffff	; ????
    1ee4:	ff ff       	.word	0xffff	; ????
    1ee6:	ff ff       	.word	0xffff	; ????
    1ee8:	ff ff       	.word	0xffff	; ????
    1eea:	ff ff       	.word	0xffff	; ????
    1eec:	ff ff       	.word	0xffff	; ????
    1eee:	ff ff       	.word	0xffff	; ????
    1ef0:	ff ff       	.word	0xffff	; ????
    1ef2:	ff ff       	.word	0xffff	; ????
    1ef4:	ff ff       	.word	0xffff	; ????
    1ef6:	ff ff       	.word	0xffff	; ????
    1ef8:	ff ff       	.word	0xffff	; ????
    1efa:	ff ff       	.word	0xffff	; ????
    1efc:	ff ff       	.word	0xffff	; ????
    1efe:	ff ff       	.word	0xffff	; ????
    1f00:	11 24       	eor	r1, r1
    1f02:	e1 51       	subi	r30, 0x11	; 17
    1f04:	fd 4f       	sbci	r31, 0xFD	; 253
    1f06:	d3 01       	movw	r26, r6
    1f08:	c2 01       	movw	r24, r4
    1f0a:	a3 70       	andi	r26, 0x03	; 3
    1f0c:	bb 27       	eor	r27, r27
    1f0e:	85 83       	std	Z+5, r24	; 0x05
    1f10:	96 83       	std	Z+6, r25	; 0x06
    1f12:	a7 83       	std	Z+7, r26	; 0x07
    1f14:	b0 87       	std	Z+8, r27	; 0x08
    1f16:	80 91 f2 02 	lds	r24, 0x02F2	;  0x8002f2           ; Load from data space
    1f1a:	82 30       	cpi	r24, 0x02	; 2                     ; Compare with immediate
    1f1c:	a0 f1       	brcs	.+104    	;  0x1f86
    1f1e:	80 91 ef 02 	lds	r24, 0x02EF	;  0x8002ef           ; Load from data space
    1f22:	90 91 f0 02 	lds	r25, 0x02F0	;  0x8002f0           ; Load from data space
    1f26:	dc 01       	movw	r26, r24
    1f28:	ed 91       	ld	r30, X+
    1f2a:	fc 91       	ld	r31, X
    1f2c:	02 84       	ldd	r0, Z+10	; 0x0a
    1f2e:	f3 85       	ldd	r31, Z+11	; 0x0b
    1f30:	e0 2d       	mov	r30, r0                           ; Move register to register
    1f32:	09 95       	icall
    1f34:	68 2e       	mov	r6, r24                           ; Move register to register
    1f36:	80 91 ef 02 	lds	r24, 0x02EF	;  0x8002ef           ; Load from data space
    1f3a:	90 91 f0 02 	lds	r25, 0x02F0	;  0x8002f0           ; Load from data space
    1f3e:	dc 01       	movw	r26, r24
    1f40:	ed 91       	ld	r30, X+
    1f42:	fc 91       	ld	r31, X
    1f44:	02 84       	ldd	r0, Z+10	; 0x0a
    1f46:	f3 85       	ldd	r31, Z+11	; 0x0b
    1f48:	e0 2d       	mov	r30, r0                           ; Move register to register
    1f4a:	09 95       	icall
    1f4c:	58 2e       	mov	r5, r24                           ; Move register to register
    1f4e:	80 91 ef 02 	lds	r24, 0x02EF	;  0x8002ef           ; Load from data space
    1f52:	90 91 f0 02 	lds	r25, 0x02F0	;  0x8002f0           ; Load from data space
    1f56:	dc 01       	movw	r26, r24
    1f58:	ed 91       	ld	r30, X+
    1f5a:	fc 91       	ld	r31, X
    1f5c:	02 84       	ldd	r0, Z+10	; 0x0a
    1f5e:	f3 85       	ldd	r31, Z+11	; 0x0b
    1f60:	e0 2d       	mov	r30, r0                           ; Move register to register
    1f62:	09 95       	icall
    1f64:	48 2e       	mov	r4, r24                           ; Move register to register
    1f66:	e0 91 24 03 	lds	r30, 0x0324	;  0x800324           ; Load from data space
    1f6a:	b4 e0       	ldi	r27, 0x04	; 4                     ; Load immediate value
    1f6c:	eb 9f       	mul	r30, r27
    1f6e:	f0 01       	movw	r30, r0
    1f70:	11 24       	eor	r1, r1
    1f72:	e1 50       	subi	r30, 0x01	; 1
    1f74:	fd 4f       	sbci	r31, 0xFD	; 253
    1f76:	d3 01       	movw	r26, r6
    1f78:	c2 01       	movw	r24, r4
    1f7a:	a3 70       	andi	r26, 0x03	; 3
    1f7c:	bb 27       	eor	r27, r27
    1f7e:	85 83       	std	Z+5, r24	; 0x05
    1f80:	96 83       	std	Z+6, r25	; 0x06
    1f82:	a7 83       	std	Z+7, r26	; 0x07
    1f84:	b0 87       	std	Z+8, r27	; 0x08
    1f86:	80 91 f2 02 	lds	r24, 0x02F2	;  0x8002f2           ; Load from data space
    1f8a:	83 30       	cpi	r24, 0x03	; 3                     ; Compare with immediate
    1f8c:	a0 f1       	brcs	.+104    	;  0x1ff6
    1f8e:	80 91 ef 02 	lds	r24, 0x02EF	;  0x8002ef           ; Load from data space
    1f92:	90 91 f0 02 	lds	r25, 0x02F0	;  0x8002f0           ; Load from data space
    1f96:	dc 01       	movw	r26, r24
    1f98:	ed 91       	ld	r30, X+
    1f9a:	fc 91       	ld	r31, X
    1f9c:	02 84       	ldd	r0, Z+10	; 0x0a
    1f9e:	f3 85       	ldd	r31, Z+11	; 0x0b
    1fa0:	e0 2d       	mov	r30, r0                           ; Move register to register
    1fa2:	09 95       	icall
    1fa4:	68 2e       	mov	r6, r24                           ; Move register to register
    1fa6:	80 91 ef 02 	lds	r24, 0x02EF	;  0x8002ef           ; Load from data space
    1faa:	90 91 f0 02 	lds	r25, 0x02F0	;  0x8002f0           ; Load from data space
    1fae:	dc 01       	movw	r26, r24
    1fb0:	ed 91       	ld	r30, X+
    1fb2:	fc 91       	ld	r31, X
    1fb4:	02 84       	ldd	r0, Z+10	; 0x0a
    1fb6:	f3 85       	ldd	r31, Z+11	; 0x0b
    1fb8:	e0 2d       	mov	r30, r0                           ; Move register to register
    1fba:	09 95       	icall
    1fbc:	58 2e       	mov	r5, r24                           ; Move register to register
    1fbe:	80 91 ef 02 	lds	r24, 0x02EF	;  0x8002ef           ; Load from data space
    1fc2:	90 91 f0 02 	lds	r25, 0x02F0	;  0x8002f0           ; Load from data space
    1fc6:	dc 01       	movw	r26, r24
    1fc8:	ed 91       	ld	r30, X+
    1fca:	fc 91       	ld	r31, X
    1fcc:	02 84       	ldd	r0, Z+10	; 0x0a
    1fce:	f3 85       	ldd	r31, Z+11	; 0x0b
    1fd0:	e0 2d       	mov	r30, r0                           ; Move register to register
    1fd2:	09 95       	icall
    1fd4:	48 2e       	mov	r4, r24                           ; Move register to register
    1fd6:	e0 91 24 03 	lds	r30, 0x0324	;  0x800324           ; Load from data space
    1fda:	b4 e0       	ldi	r27, 0x04	; 4                     ; Load immediate value
    1fdc:	eb 9f       	mul	r30, r27
    1fde:	f0 01       	movw	r30, r0
    1fe0:	11 24       	eor	r1, r1
    1fe2:	e1 5f       	subi	r30, 0xF1	; 241
    1fe4:	fc 4f       	sbci	r31, 0xFC	; 252
    1fe6:	d3 01       	movw	r26, r6
    1fe8:	c2 01       	movw	r24, r4
    1fea:	a3 70       	andi	r26, 0x03	; 3
    1fec:	bb 27       	eor	r27, r27
    1fee:	85 83       	std	Z+5, r24	; 0x05
    1ff0:	96 83       	std	Z+6, r25	; 0x06
    1ff2:	a7 83       	std	Z+7, r26	; 0x07
    1ff4:	b0 87       	std	Z+8, r27	; 0x08
    1ff6:	20 91 f2 02 	lds	r18, 0x02F2	;  0x8002f2           ; Load from data space
    1ffa:	4d ef       	ldi	r20, 0xFD	; 253                   ; Load immediate value
    1ffc:	42 03       	mulsu	r20, r18
    1ffe:	90 01       	movw	r18, r0
    2000:	11 24       	eor	r1, r1
    2002:	e2 0e       	add	r14, r18
    2004:	f3 1e       	adc	r15, r19
    2006:	49 cf       	rjmp	.-366    	;  0x1e9a              ; Relative jump
    2008:	ca 94       	dec	r12
    200a:	cd 28       	or	r12, r13
    200c:	09 f0       	breq	.+2      	;  0x2010              ; Branch if equal
    200e:	ef ce       	rjmp	.-546    	;  0x1dee              ; Relative jump
    2010:	e0 91 24 03 	lds	r30, 0x0324	;  0x800324           ; Load from data space
    2014:	34 e0       	ldi	r19, 0x04	; 4                     ; Load immediate value
    2016:	e3 9f       	mul	r30, r19
    2018:	f0 01       	movw	r30, r0
    201a:	11 24       	eor	r1, r1
    201c:	e1 50       	subi	r30, 0x01	; 1
    201e:	fd 4f       	sbci	r31, 0xFD	; 253
    2020:	85 81       	ldd	r24, Z+5	; 0x05
    2022:	96 81       	ldd	r25, Z+6	; 0x06
    2024:	a7 81       	ldd	r26, Z+7	; 0x07
    2026:	b0 85       	ldd	r27, Z+8	; 0x08
    2028:	03 c0       	rjmp	.+6      	;  0x2030              ; Relative jump
    202a:	80 e0       	ldi	r24, 0x00	; 0                     ; Load immediate value
    202c:	90 e0       	ldi	r25, 0x00	; 0                     ; Load immediate value
    202e:	dc 01       	movw	r26, r24
    2030:	40 91 fd 01 	lds	r20, 0x01FD	;  0x8001fd           ; Load from data space
    2034:	50 91 fe 01 	lds	r21, 0x01FE	;  0x8001fe           ; Load from data space
    2038:	50 93 fc 01 	sts	0x01FC, r21	;  0x8001fc           ; Store to data space
    203c:	40 93 fb 01 	sts	0x01FB, r20	;  0x8001fb           ; Store to data space
    2040:	00 91 f7 01 	lds	r16, 0x01F7	;  0x8001f7           ; Load from data space
    2044:	10 91 f8 01 	lds	r17, 0x01F8	;  0x8001f8           ; Load from data space
    2048:	20 91 f9 01 	lds	r18, 0x01F9	;  0x8001f9           ; Load from data space
    204c:	30 91 fa 01 	lds	r19, 0x01FA	;  0x8001fa           ; Load from data space
    2050:	6c 01       	movw	r12, r24
    2052:	7d 01       	movw	r14, r26
    2054:	6f e0       	ldi	r22, 0x0F	; 15                    ; Load immediate value
    2056:	cc 0c       	add	r12, r12
    2058:	dd 1c       	adc	r13, r13
    205a:	ee 1c       	adc	r14, r14
    205c:	ff 1c       	adc	r15, r15
    205e:	6a 95       	dec	r22
    2060:	d1 f7       	brne	.-12     	;  0x2056              ; Branch if not equal
    2062:	cc 24       	eor	r12, r12
    2064:	e0 e8       	ldi	r30, 0x80	; 128                   ; Load immediate value
    2066:	de 22       	and	r13, r30
    2068:	e8 94       	clt
    206a:	f7 f8       	bld	r15, 7
    206c:	c0 1a       	sub	r12, r16
    206e:	d1 0a       	sbc	r13, r17
    2070:	e2 0a       	sbc	r14, r18
    2072:	f3 0a       	sbc	r15, r19
    2074:	74 e0       	ldi	r23, 0x04	; 4                     ; Load immediate value
    2076:	f5 94       	asr	r15
    2078:	e7 94       	ror	r14
    207a:	d7 94       	ror	r13
    207c:	c7 94       	ror	r12
    207e:	7a 95       	dec	r23
    2080:	d1 f7       	brne	.-12     	;  0x2076              ; Branch if not equal
    2082:	c0 0e       	add	r12, r16
    2084:	d1 1e       	adc	r13, r17
    2086:	e2 1e       	adc	r14, r18
    2088:	f3 1e       	adc	r15, r19
    208a:	c0 92 f7 01 	sts	0x01F7, r12	;  0x8001f7           ; Store to data space
    208e:	d0 92 f8 01 	sts	0x01F8, r13	;  0x8001f8           ; Store to data space
    2092:	e0 92 f9 01 	sts	0x01F9, r14	;  0x8001f9           ; Store to data space
    2096:	f0 92 fa 01 	sts	0x01FA, r15	;  0x8001fa           ; Store to data space
    209a:	10 91 ee 01 	lds	r17, 0x01EE	;  0x8001ee           ; Load from data space
    209e:	a1 2e       	mov	r10, r17                          ; Move register to register
    20a0:	b1 2c       	mov	r11, r1                           ; Move register to register
    20a2:	f5 01       	movw	r30, r10
    20a4:	ee 0f       	add	r30, r30
    20a6:	ff 1f       	adc	r31, r31
    20a8:	e2 55       	subi	r30, 0x52	; 82
    20aa:	fe 4f       	sbci	r31, 0xFE	; 254
    20ac:	bf e0       	ldi	r27, 0x0F	; 15                    ; Load immediate value
    20ae:	f5 94       	asr	r15
    20b0:	e7 94       	ror	r14
    20b2:	d7 94       	ror	r13
    20b4:	c7 94       	ror	r12
    20b6:	ba 95       	dec	r27
    20b8:	d1 f7       	brne	.-12     	;  0x20ae              ; Branch if not equal
    20ba:	8c 19       	sub	r24, r12
    20bc:	9d 09       	sbc	r25, r13
    20be:	91 83       	std	Z+1, r25	; 0x01
    20c0:	80 83       	st	Z, r24
    20c2:	f5 01       	movw	r30, r10
    20c4:	3b 97       	sbiw	r30, 0x0b	; 11
    20c6:	ef 71       	andi	r30, 0x1F	; 31
    20c8:	ff 27       	eor	r31, r31
    20ca:	ee 0f       	add	r30, r30
    20cc:	ff 1f       	adc	r31, r31
    20ce:	e2 55       	subi	r30, 0x52	; 82
    20d0:	fe 4f       	sbci	r31, 0xFE	; 254
    20d2:	c0 80       	ld	r12, Z
    20d4:	d1 80       	ldd	r13, Z+1	; 0x01
    20d6:	0d 2c       	mov	r0, r13                           ; Move register to register
    20d8:	00 0c       	add	r0, r0
    20da:	ee 08       	sbc	r14, r14
    20dc:	ff 08       	sbc	r15, r15
    20de:	8c e0       	ldi	r24, 0x0C	; 12                    ; Load immediate value
    20e0:	cc 0c       	add	r12, r12
    20e2:	dd 1c       	adc	r13, r13
    20e4:	ee 1c       	adc	r14, r14
    20e6:	ff 1c       	adc	r15, r15
    20e8:	8a 95       	dec	r24
    20ea:	d1 f7       	brne	.-12     	;  0x20e0              ; Branch if not equal
    20ec:	f6 e1       	ldi	r31, 0x16	; 22                    ; Load immediate value
    20ee:	af 1a       	sub	r10, r31
    20f0:	b1 08       	sbc	r11, r1
    20f2:	92 e1       	ldi	r25, 0x12	; 18                    ; Load immediate value
    20f4:	89 2e       	mov	r8, r25                           ; Move register to register
    20f6:	91 e0       	ldi	r25, 0x01	; 1                     ; Load immediate value
    20f8:	99 2e       	mov	r9, r25                           ; Move register to register
    20fa:	00 e0       	ldi	r16, 0x00	; 0                     ; Load immediate value
    20fc:	d4 01       	movw	r26, r8
    20fe:	6d 91       	ld	r22, X+
    2100:	7d 91       	ld	r23, X+
    2102:	4d 01       	movw	r8, r26
    2104:	e1 2f       	mov	r30, r17                          ; Move register to register
    2106:	e0 1b       	sub	r30, r16
    2108:	ef 71       	andi	r30, 0x1F	; 31
    210a:	f0 e0       	ldi	r31, 0x00	; 0                     ; Load immediate value
    210c:	ee 0f       	add	r30, r30
    210e:	ff 1f       	adc	r31, r31
    2110:	e2 55       	subi	r30, 0x52	; 82
    2112:	fe 4f       	sbci	r31, 0xFE	; 254
    2114:	d5 01       	movw	r26, r10
    2116:	af 71       	andi	r26, 0x1F	; 31
    2118:	bb 27       	eor	r27, r27
    211a:	aa 0f       	add	r26, r26
    211c:	bb 1f       	adc	r27, r27
    211e:	a2 55       	subi	r26, 0x52	; 82
    2120:	be 4f       	sbci	r27, 0xFE	; 254
    2122:	20 81       	ld	r18, Z
    2124:	31 81       	ldd	r19, Z+1	; 0x01
    2126:	8d 91       	ld	r24, X+
    2128:	9c 91       	ld	r25, X
    212a:	28 0f       	add	r18, r24
    212c:	39 1f       	adc	r19, r25
    212e:	db 01       	movw	r26, r22
    2130:	0e 94 1f 14 	call	0x283e	;  0x283e                 ; Function call
    2134:	c6 0e       	add	r12, r22
    2136:	d7 1e       	adc	r13, r23
    2138:	e8 1e       	adc	r14, r24
    213a:	f9 1e       	adc	r15, r25
    213c:	0f 5f       	subi	r16, 0xFF	; 255
    213e:	bf ef       	ldi	r27, 0xFF	; 255                   ; Load immediate value
    2140:	ab 1a       	sub	r10, r27
    2142:	bb 0a       	sbc	r11, r27
    2144:	0b 30       	cpi	r16, 0x0B	; 11                    ; Compare with immediate
    2146:	d1 f6       	brne	.-76     	;  0x20fc              ; Branch if not equal
    2148:	1f 5f       	subi	r17, 0xFF	; 255
    214a:	1f 71       	andi	r17, 0x1F	; 31
    214c:	10 93 ee 01 	sts	0x01EE, r17	;  0x8001ee           ; Store to data space
    2150:	3f e0       	ldi	r19, 0x0F	; 15                    ; Load immediate value
    2152:	f5 94       	asr	r15
    2154:	e7 94       	ror	r14
    2156:	d7 94       	ror	r13
    2158:	c7 94       	ror	r12
    215a:	3a 95       	dec	r19
    215c:	d1 f7       	brne	.-12     	;  0x2152              ; Branch if not equal
    215e:	96 01       	movw	r18, r12
    2160:	d0 92 fe 01 	sts	0x01FE, r13	;  0x8001fe           ; Store to data space
    2164:	c0 92 fd 01 	sts	0x01FD, r12	;  0x8001fd           ; Store to data space
    2168:	ed 2d       	mov	r30, r13                          ; Move register to register
    216a:	e0 95       	com	r30
    216c:	e5 23       	and	r30, r21
    216e:	ee 1f       	adc	r30, r30
    2170:	ee 27       	eor	r30, r30
    2172:	ee 1f       	adc	r30, r30
    2174:	e9 f0       	breq	.+58     	;  0x21b0              ; Branch if equal
    2176:	80 91 f5 01 	lds	r24, 0x01F5	;  0x8001f5           ; Load from data space
    217a:	90 91 f6 01 	lds	r25, 0x01F6	;  0x8001f6           ; Load from data space
    217e:	60 91 f3 01 	lds	r22, 0x01F3	;  0x8001f3           ; Load from data space
    2182:	70 91 f4 01 	lds	r23, 0x01F4	;  0x8001f4           ; Load from data space
    2186:	e1 e0       	ldi	r30, 0x01	; 1                     ; Load immediate value
    2188:	f0 e0       	ldi	r31, 0x00	; 0                     ; Load immediate value
    218a:	f0 93 f2 01 	sts	0x01F2, r31	;  0x8001f2           ; Store to data space
    218e:	e0 93 f1 01 	sts	0x01F1, r30	;  0x8001f1           ; Store to data space
    2192:	10 92 f0 01 	sts	0x01F0, r1	;  0x8001f0            ; Store to data space
    2196:	10 92 ef 01 	sts	0x01EF, r1	;  0x8001ef            ; Store to data space
    219a:	10 92 f6 01 	sts	0x01F6, r1	;  0x8001f6            ; Store to data space
    219e:	10 92 f5 01 	sts	0x01F5, r1	;  0x8001f5            ; Store to data space
    21a2:	86 1b       	sub	r24, r22
    21a4:	97 0b       	sbc	r25, r23
    21a6:	45 97       	sbiw	r24, 0x15	; 21
    21a8:	83 3d       	cpi	r24, 0xD3	; 211                   ; Compare with immediate
    21aa:	93 40       	sbci	r25, 0x03	; 3
    21ac:	08 f0       	brcs	.+2      	;  0x21b0
    21ae:	e0 e0       	ldi	r30, 0x00	; 0                     ; Load immediate value
    21b0:	14 16       	cp	r1, r20
    21b2:	15 06       	cpc	r1, r21
    21b4:	8c f4       	brge	.+34     	;  0x21d8
    21b6:	12 16       	cp	r1, r18
    21b8:	13 06       	cpc	r1, r19
    21ba:	74 f0       	brlt	.+28     	;  0x21d8
    21bc:	10 92 f2 01 	sts	0x01F2, r1	;  0x8001f2            ; Store to data space
    21c0:	10 92 f1 01 	sts	0x01F1, r1	;  0x8001f1            ; Store to data space
    21c4:	81 e0       	ldi	r24, 0x01	; 1                     ; Load immediate value
    21c6:	90 e0       	ldi	r25, 0x00	; 0                     ; Load immediate value
    21c8:	90 93 f0 01 	sts	0x01F0, r25	;  0x8001f0           ; Store to data space
    21cc:	80 93 ef 01 	sts	0x01EF, r24	;  0x8001ef           ; Store to data space
    21d0:	10 92 f4 01 	sts	0x01F4, r1	;  0x8001f4            ; Store to data space
    21d4:	10 92 f3 01 	sts	0x01F3, r1	;  0x8001f3            ; Store to data space
    21d8:	81 e0       	ldi	r24, 0x01	; 1                     ; Load immediate value
    21da:	90 e0       	ldi	r25, 0x00	; 0                     ; Load immediate value
    21dc:	42 17       	cp	r20, r18
    21de:	53 07       	cpc	r21, r19
    21e0:	14 f0       	brlt	.+4      	;  0x21e6
    21e2:	90 e0       	ldi	r25, 0x00	; 0                     ; Load immediate value
    21e4:	80 e0       	ldi	r24, 0x00	; 0                     ; Load immediate value
    21e6:	60 91 f1 01 	lds	r22, 0x01F1	;  0x8001f1           ; Load from data space
    21ea:	70 91 f2 01 	lds	r23, 0x01F2	;  0x8001f2           ; Load from data space
    21ee:	86 23       	and	r24, r22
    21f0:	97 23       	and	r25, r23
    21f2:	89 2b       	or	r24, r25
    21f4:	21 f0       	breq	.+8      	;  0x21fe              ; Branch if equal
    21f6:	d0 92 f6 01 	sts	0x01F6, r13	;  0x8001f6           ; Store to data space
    21fa:	c0 92 f5 01 	sts	0x01F5, r12	;  0x8001f5           ; Store to data space
    21fe:	81 e0       	ldi	r24, 0x01	; 1                     ; Load immediate value
    2200:	90 e0       	ldi	r25, 0x00	; 0                     ; Load immediate value
    2202:	24 17       	cp	r18, r20
    2204:	35 07       	cpc	r19, r21
    2206:	14 f0       	brlt	.+4      	;  0x220c
    2208:	90 e0       	ldi	r25, 0x00	; 0                     ; Load immediate value
    220a:	80 e0       	ldi	r24, 0x00	; 0                     ; Load immediate value
    220c:	20 91 ef 01 	lds	r18, 0x01EF	;  0x8001ef           ; Load from data space
    2210:	30 91 f0 01 	lds	r19, 0x01F0	;  0x8001f0           ; Load from data space
    2214:	82 23       	and	r24, r18
    2216:	93 23       	and	r25, r19
    2218:	89 2b       	or	r24, r25
    221a:	21 f0       	breq	.+8      	;  0x2224              ; Branch if equal
    221c:	d0 92 f4 01 	sts	0x01F4, r13	;  0x8001f4           ; Store to data space
    2220:	c0 92 f3 01 	sts	0x01F3, r12	;  0x8001f3           ; Store to data space
    2224:	ee 23       	and	r30, r30
    2226:	09 f4       	brne	.+2      	;  0x222a              ; Branch if not equal
    2228:	02 c1       	rjmp	.+516    	;  0x242e              ; Relative jump
    222a:	0e 94 1e 04 	call	0x83c	;  0x83c                   ; Function call
    222e:	00 91 06 02 	lds	r16, 0x0206	;  0x800206           ; Load from data space
    2232:	10 91 07 02 	lds	r17, 0x0207	;  0x800207           ; Load from data space
    2236:	20 91 08 02 	lds	r18, 0x0208	;  0x800208           ; Load from data space
    223a:	30 91 09 02 	lds	r19, 0x0209	;  0x800209           ; Load from data space
    223e:	6b 01       	movw	r12, r22
    2240:	7c 01       	movw	r14, r24
    2242:	c0 1a       	sub	r12, r16
    2244:	d1 0a       	sbc	r13, r17
    2246:	e2 0a       	sbc	r14, r18
    2248:	f3 0a       	sbc	r15, r19
    224a:	0e 94 1e 04 	call	0x83c	;  0x83c                   ; Function call
    224e:	60 93 06 02 	sts	0x0206, r22	;  0x800206           ; Store to data space
    2252:	70 93 07 02 	sts	0x0207, r23	;  0x800207           ; Store to data space
    2256:	80 93 08 02 	sts	0x0208, r24	;  0x800208           ; Store to data space
    225a:	90 93 09 02 	sts	0x0209, r25	;  0x800209           ; Store to data space
    225e:	c7 01       	movw	r24, r14
    2260:	b6 01       	movw	r22, r12
    2262:	0e 94 69 12 	call	0x24d2	;  0x24d2                 ; Function call
    2266:	20 e0       	ldi	r18, 0x00	; 0                     ; Load immediate value
    2268:	30 e0       	ldi	r19, 0x00	; 0                     ; Load immediate value
    226a:	4a e7       	ldi	r20, 0x7A	; 122                   ; Load immediate value
    226c:	54 e4       	ldi	r21, 0x44	; 68                    ; Load immediate value
    226e:	0e 94 5f 13 	call	0x26be	;  0x26be                 ; Function call
    2272:	9b 01       	movw	r18, r22
    2274:	ac 01       	movw	r20, r24
    2276:	60 e0       	ldi	r22, 0x00	; 0                     ; Load immediate value
    2278:	70 e0       	ldi	r23, 0x00	; 0                     ; Load immediate value
    227a:	80 e7       	ldi	r24, 0x70	; 112                   ; Load immediate value
    227c:	92 e4       	ldi	r25, 0x42	; 66                    ; Load immediate value
    227e:	0e 94 5f 13 	call	0x26be	;  0x26be                 ; Function call
    2282:	6b 01       	movw	r12, r22
    2284:	7c 01       	movw	r14, r24
    2286:	20 e0       	ldi	r18, 0x00	; 0                     ; Load immediate value
    2288:	30 e0       	ldi	r19, 0x00	; 0                     ; Load immediate value
    228a:	4f e7       	ldi	r20, 0x7F	; 127                   ; Load immediate value
    228c:	53 e4       	ldi	r21, 0x43	; 67                    ; Load immediate value
    228e:	0e 94 62 12 	call	0x24c4	;  0x24c4                 ; Function call
    2292:	87 ff       	sbrs	r24, 7
    2294:	cc c0       	rjmp	.+408    	;  0x242e              ; Relative jump
    2296:	20 e0       	ldi	r18, 0x00	; 0                     ; Load immediate value
    2298:	30 e0       	ldi	r19, 0x00	; 0                     ; Load immediate value
    229a:	40 ea       	ldi	r20, 0xA0	; 160                   ; Load immediate value
    229c:	51 e4       	ldi	r21, 0x41	; 65                    ; Load immediate value
    229e:	c7 01       	movw	r24, r14
    22a0:	b6 01       	movw	r22, r12
    22a2:	0e 94 00 14 	call	0x2800	;  0x2800                 ; Function call
    22a6:	18 16       	cp	r1, r24
    22a8:	0c f0       	brlt	.+2      	;  0x22ac
    22aa:	c1 c0       	rjmp	.+386    	;  0x242e              ; Relative jump
    22ac:	ad b7       	in	r26, 0x3d	; 61                     ; Input from I/O port
    22ae:	be b7       	in	r27, 0x3e	; 62                     ; Input from I/O port
    22b0:	bc 8b       	std	Y+20, r27	; 0x14
    22b2:	ab 8b       	std	Y+19, r26	; 0x13
    22b4:	90 90 05 02 	lds	r9, 0x0205	;  0x800205            ; Load from data space
    22b8:	09 2d       	mov	r16, r9                           ; Move register to register
    22ba:	10 e0       	ldi	r17, 0x00	; 0                     ; Load immediate value
    22bc:	0f 5f       	subi	r16, 0xFF	; 255
    22be:	1d 4f       	sbci	r17, 0xFD	; 253
    22c0:	c7 01       	movw	r24, r14
    22c2:	b6 01       	movw	r22, r12
    22c4:	0e 94 d1 13 	call	0x27a2	;  0x27a2                 ; Function call
    22c8:	f8 01       	movw	r30, r16
    22ca:	60 83       	st	Z, r22
    22cc:	81 e0       	ldi	r24, 0x01	; 1                     ; Load immediate value
    22ce:	89 0d       	add	r24, r9
    22d0:	83 70       	andi	r24, 0x03	; 3
    22d2:	80 93 05 02 	sts	0x0205, r24	;  0x800205           ; Store to data space
    22d6:	20 91 02 02 	lds	r18, 0x0202	;  0x800202           ; Load from data space
    22da:	80 91 01 02 	lds	r24, 0x0201	;  0x800201           ; Load from data space
    22de:	28 0f       	add	r18, r24
    22e0:	33 27       	eor	r19, r19
    22e2:	33 1f       	adc	r19, r19
    22e4:	80 91 03 02 	lds	r24, 0x0203	;  0x800203           ; Load from data space
    22e8:	28 0f       	add	r18, r24
    22ea:	31 1d       	adc	r19, r1
    22ec:	80 91 04 02 	lds	r24, 0x0204	;  0x800204           ; Load from data space
    22f0:	82 0f       	add	r24, r18
    22f2:	93 2f       	mov	r25, r19                          ; Move register to register
    22f4:	91 1d       	adc	r25, r1
    22f6:	95 95       	asr	r25
    22f8:	87 95       	ror	r24
    22fa:	95 95       	asr	r25
    22fc:	87 95       	ror	r24
    22fe:	90 93 00 02 	sts	0x0200, r25	;  0x800200           ; Store to data space
    2302:	80 93 ff 01 	sts	0x01FF, r24	;  0x8001ff           ; Store to data space
    2306:	4a e0       	ldi	r20, 0x0A	; 10                    ; Load immediate value
    2308:	b1 01       	movw	r22, r2
    230a:	0e 94 2d 12 	call	0x245a	;  0x245a                 ; Function call
    230e:	f1 01       	movw	r30, r2
    2310:	01 90       	ld	r0, Z+
    2312:	00 20       	and	r0, r0
    2314:	e9 f7       	brne	.-6      	;  0x2310              ; Branch if not equal
    2316:	31 97       	sbiw	r30, 0x01	; 1
    2318:	8f 01       	movw	r16, r30
    231a:	02 19       	sub	r16, r2
    231c:	13 09       	sbc	r17, r3
    231e:	b8 01       	movw	r22, r16
    2320:	6f 5f       	subi	r22, 0xFF	; 255
    2322:	7f 4f       	sbci	r23, 0xFF	; 255
    2324:	90 e0       	ldi	r25, 0x00	; 0                     ; Load immediate value
    2326:	80 e0       	ldi	r24, 0x00	; 0                     ; Load immediate value
    2328:	0e 94 67 15 	call	0x2ace	;  0x2ace                 ; Function call
    232c:	7c 01       	movw	r14, r24
    232e:	00 97       	sbiw	r24, 0x00	; 0
    2330:	99 f1       	breq	.+102    	;  0x2398              ; Branch if equal
    2332:	dc 01       	movw	r26, r24
    2334:	1c 92       	st	X, r1
    2336:	b1 01       	movw	r22, r2
    2338:	0e 94 2d 16 	call	0x2c5a	;  0x2c5a                 ; Function call
    233c:	c8 01       	movw	r24, r16
    233e:	01 96       	adiw	r24, 0x01	; 1
    2340:	ed b7       	in	r30, 0x3d	; 61                     ; Input from I/O port
    2342:	fe b7       	in	r31, 0x3e	; 62                     ; Input from I/O port
    2344:	e8 1b       	sub	r30, r24
    2346:	f9 0b       	sbc	r31, r25
    2348:	0f b6       	in	r0, 0x3f	; 63                      ; Input from I/O port
    234a:	f8 94       	cli
    234c:	fe bf       	out	0x3e, r31	; 62                    ; Output to I/O port
    234e:	0f be       	out	0x3f, r0	; 63                     ; Output to I/O port
    2350:	ed bf       	out	0x3d, r30	; 61                    ; Output to I/O port
    2352:	2d b7       	in	r18, 0x3d	; 61                     ; Input from I/O port
    2354:	3e b7       	in	r19, 0x3e	; 62                     ; Input from I/O port
    2356:	2f 5f       	subi	r18, 0xFF	; 255
    2358:	3f 4f       	sbci	r19, 0xFF	; 255
    235a:	69 01       	movw	r12, r18
    235c:	01 15       	cp	r16, r1
    235e:	11 05       	cpc	r17, r1
    2360:	f1 f4       	brne	.+60     	;  0x239e              ; Branch if not equal
    2362:	11 82       	std	Z+1, r1	; 0x01
    2364:	0f 5f       	subi	r16, 0xFF	; 255
    2366:	80 91 3a 03 	lds	r24, 0x033A	;  0x80033a           ; Load from data space
    236a:	81 11       	cpse	r24, r1
    236c:	22 c0       	rjmp	.+68     	;  0x23b2              ; Relative jump
    236e:	10 91 2f 03 	lds	r17, 0x032F	;  0x80032f           ; Load from data space
    2372:	10 17       	cp	r17, r16
    2374:	08 f4       	brcc	.+2      	;  0x2378
    2376:	01 2f       	mov	r16, r17                          ; Move register to register
    2378:	10 1b       	sub	r17, r16
    237a:	0e 94 08 07 	call	0xe10	;  0xe10                   ; Function call
    237e:	80 ea       	ldi	r24, 0xA0	; 160                   ; Load immediate value
    2380:	0e 94 01 07 	call	0xe02	;  0xe02                   ; Function call
    2384:	80 93 2e 03 	sts	0x032E, r24	;  0x80032e           ; Store to data space
    2388:	01 50       	subi	r16, 0x01	; 1
    238a:	d0 f0       	brcs	.+52     	;  0x23c0
    238c:	d6 01       	movw	r26, r12
    238e:	8d 91       	ld	r24, X+
    2390:	6d 01       	movw	r12, r26
    2392:	0e 94 01 07 	call	0xe02	;  0xe02                   ; Function call
    2396:	f8 cf       	rjmp	.-16     	;  0x2388              ; Relative jump
    2398:	10 e0       	ldi	r17, 0x00	; 0                     ; Load immediate value
    239a:	00 e0       	ldi	r16, 0x00	; 0                     ; Load immediate value
    239c:	cf cf       	rjmp	.-98     	;  0x233c              ; Relative jump
    239e:	a8 01       	movw	r20, r16
    23a0:	b7 01       	movw	r22, r14
    23a2:	c9 01       	movw	r24, r18
    23a4:	0e 94 34 16 	call	0x2c68	;  0x2c68                 ; Function call
    23a8:	f6 01       	movw	r30, r12
    23aa:	e0 0f       	add	r30, r16
    23ac:	f1 1f       	adc	r31, r17
    23ae:	10 82       	st	Z, r1
    23b0:	d9 cf       	rjmp	.-78     	;  0x2364              ; Relative jump
    23b2:	11 e0       	ldi	r17, 0x01	; 1                     ; Load immediate value
    23b4:	01 11       	cpse	r16, r1
    23b6:	10 e0       	ldi	r17, 0x00	; 0                     ; Load immediate value
    23b8:	01 32       	cpi	r16, 0x21	; 33                    ; Compare with immediate
    23ba:	f8 f2       	brcs	.-66     	;  0x237a
    23bc:	00 e2       	ldi	r16, 0x20	; 32                    ; Load immediate value
    23be:	dd cf       	rjmp	.-70     	;  0x237a              ; Relative jump
    23c0:	11 50       	subi	r17, 0x01	; 1
    23c2:	20 f0       	brcs	.+8      	;  0x23cc
    23c4:	80 e0       	ldi	r24, 0x00	; 0                     ; Load immediate value
    23c6:	0e 94 01 07 	call	0xe02	;  0xe02                   ; Function call
    23ca:	fa cf       	rjmp	.-12     	;  0x23c0              ; Relative jump
    23cc:	0e 94 3f 03 	call	0x67e	;  0x67e                   ; Function call
    23d0:	81 e0       	ldi	r24, 0x01	; 1                     ; Load immediate value
    23d2:	0e 94 22 03 	call	0x644	;  0x644                   ; Function call
    23d6:	0e 94 1e 04 	call	0x83c	;  0x83c                   ; Function call
    23da:	4b 01       	movw	r8, r22
    23dc:	5c 01       	movw	r10, r24
    23de:	8f ef       	ldi	r24, 0xFF	; 255                   ; Load immediate value
    23e0:	0e 94 43 07 	call	0xe86	;  0xe86                   ; Function call
    23e4:	80 91 2e 03 	lds	r24, 0x032E	;  0x80032e           ; Load from data space
    23e8:	80 73       	andi	r24, 0x30	; 48
    23ea:	49 f5       	brne	.+82     	;  0x243e              ; Branch if not equal
    23ec:	0e 94 1e 04 	call	0x83c	;  0x83c                   ; Function call
    23f0:	68 19       	sub	r22, r8
    23f2:	79 09       	sbc	r23, r9
    23f4:	8a 09       	sbc	r24, r10
    23f6:	9b 09       	sbc	r25, r11
    23f8:	60 36       	cpi	r22, 0x60	; 96                    ; Compare with immediate
    23fa:	71 05       	cpc	r23, r1
    23fc:	81 05       	cpc	r24, r1
    23fe:	91 05       	cpc	r25, r1
    2400:	70 f3       	brcs	.-36     	;  0x23de
    2402:	b1 e0       	ldi	r27, 0x01	; 1                     ; Load immediate value
    2404:	b0 93 3b 03 	sts	0x033B, r27	;  0x80033b           ; Store to data space
    2408:	68 ee       	ldi	r22, 0xE8	; 232                   ; Load immediate value
    240a:	73 e0       	ldi	r23, 0x03	; 3                     ; Load immediate value
    240c:	80 e0       	ldi	r24, 0x00	; 0                     ; Load immediate value
    240e:	90 e0       	ldi	r25, 0x00	; 0                     ; Load immediate value
    2410:	0e 94 67 03 	call	0x6ce	;  0x6ce                   ; Function call
    2414:	e1 14       	cp	r14, r1
    2416:	f1 04       	cpc	r15, r1
    2418:	19 f0       	breq	.+6      	;  0x2420              ; Branch if equal
    241a:	c7 01       	movw	r24, r14
    241c:	0e 94 de 14 	call	0x29bc	;  0x29bc                 ; Function call
    2420:	eb 89       	ldd	r30, Y+19	; 0x13
    2422:	fc 89       	ldd	r31, Y+20	; 0x14
    2424:	0f b6       	in	r0, 0x3f	; 63                      ; Input from I/O port
    2426:	f8 94       	cli
    2428:	fe bf       	out	0x3e, r31	; 62                    ; Output to I/O port
    242a:	0f be       	out	0x3f, r0	; 63                     ; Output to I/O port
    242c:	ed bf       	out	0x3d, r30	; 61                    ; Output to I/O port
    242e:	20 e0       	ldi	r18, 0x00	; 0                     ; Load immediate value
    2430:	30 e0       	ldi	r19, 0x00	; 0                     ; Load immediate value
    2432:	23 2b       	or	r18, r19
    2434:	09 f4       	brne	.+2      	;  0x2438              ; Branch if not equal
    2436:	be cc       	rjmp	.-1668   	;  0x1db4              ; Relative jump
    2438:	0e 94 00 00 	call	0	;  0x0                         ; Function call
    243c:	bb cc       	rjmp	.-1674   	;  0x1db4              ; Relative jump
    243e:	80 e0       	ldi	r24, 0x00	; 0                     ; Load immediate value
    2440:	0e 94 22 03 	call	0x644	;  0x644                   ; Function call
    2444:	60 e7       	ldi	r22, 0x70	; 112                   ; Load immediate value
    2446:	87 e0       	ldi	r24, 0x07	; 7                     ; Load immediate value
    2448:	0e 94 30 07 	call	0xe60	;  0xe60                   ; Function call
    244c:	80 91 2e 03 	lds	r24, 0x032E	;  0x80032e           ; Load from data space
    2450:	84 ff       	sbrs	r24, 4
    2452:	da cf       	rjmp	.-76     	;  0x2408              ; Relative jump
    2454:	0e 94 4f 07 	call	0xe9e	;  0xe9e                   ; Function call
    2458:	d7 cf       	rjmp	.-82     	;  0x2408              ; Relative jump
    245a:	bb 27       	eor	r27, r27
    245c:	4a 30       	cpi	r20, 0x0A	; 10                    ; Compare with immediate
    245e:	31 f4       	brne	.+12     	;  0x246c              ; Branch if not equal
    2460:	99 23       	and	r25, r25
    2462:	22 f4       	brpl	.+8      	;  0x246c
    2464:	bd e2       	ldi	r27, 0x2D	; 45                    ; Load immediate value
    2466:	90 95       	com	r25
    2468:	81 95       	neg	r24
    246a:	9f 4f       	sbci	r25, 0xFF	; 255
    246c:	0c 94 39 12 	jmp	0x2472	;  0x2472                  ; Jump
    2470:	bb 27       	eor	r27, r27
    2472:	fb 01       	movw	r30, r22
    2474:	55 27       	eor	r21, r21
    2476:	aa 27       	eor	r26, r26
    2478:	88 0f       	add	r24, r24
    247a:	99 1f       	adc	r25, r25
    247c:	aa 1f       	adc	r26, r26
    247e:	a4 17       	cp	r26, r20
    2480:	10 f0       	brcs	.+4      	;  0x2486
    2482:	a4 1b       	sub	r26, r20
    2484:	83 95       	inc	r24
    2486:	50 51       	subi	r21, 0x10	; 16
    2488:	b9 f7       	brne	.-18     	;  0x2478              ; Branch if not equal
    248a:	a0 5d       	subi	r26, 0xD0	; 208
    248c:	aa 33       	cpi	r26, 0x3A	; 58                    ; Compare with immediate
    248e:	08 f0       	brcs	.+2      	;  0x2492
    2490:	a9 5d       	subi	r26, 0xD9	; 217
    2492:	a1 93       	st	Z+, r26
    2494:	00 97       	sbiw	r24, 0x00	; 0
    2496:	79 f7       	brne	.-34     	;  0x2476              ; Branch if not equal
    2498:	b1 11       	cpse	r27, r1
    249a:	b1 93       	st	Z+, r27
    249c:	11 92       	st	Z+, r1
    249e:	cb 01       	movw	r24, r22
    24a0:	0c 94 52 12 	jmp	0x24a4	;  0x24a4                  ; Jump
    24a4:	dc 01       	movw	r26, r24
    24a6:	fc 01       	movw	r30, r24
    24a8:	67 2f       	mov	r22, r23                          ; Move register to register
    24aa:	71 91       	ld	r23, Z+
    24ac:	77 23       	and	r23, r23
    24ae:	e1 f7       	brne	.-8      	;  0x24a8              ; Branch if not equal
    24b0:	32 97       	sbiw	r30, 0x02	; 2
    24b2:	04 c0       	rjmp	.+8      	;  0x24bc              ; Relative jump
    24b4:	7c 91       	ld	r23, X
    24b6:	6d 93       	st	X+, r22
    24b8:	70 83       	st	Z, r23
    24ba:	62 91       	ld	r22, -Z
    24bc:	ae 17       	cp	r26, r30
    24be:	bf 07       	cpc	r27, r31
    24c0:	c8 f3       	brcs	.-14     	;  0x24b4
    24c2:	08 95       	ret
    24c4:	0e 94 a4 12 	call	0x2548	;  0x2548                 ; Function call
    24c8:	08 f4       	brcc	.+2      	;  0x24cc
    24ca:	81 e0       	ldi	r24, 0x01	; 1                     ; Load immediate value
    24cc:	08 95       	ret
    24ce:	e8 94       	clt
    24d0:	09 c0       	rjmp	.+18     	;  0x24e4              ; Relative jump
    24d2:	97 fb       	bst	r25, 7
    24d4:	3e f4       	brtc	.+14     	;  0x24e4
    24d6:	90 95       	com	r25
    24d8:	80 95       	com	r24
    24da:	70 95       	com	r23
    24dc:	61 95       	neg	r22
    24de:	7f 4f       	sbci	r23, 0xFF	; 255
    24e0:	8f 4f       	sbci	r24, 0xFF	; 255
    24e2:	9f 4f       	sbci	r25, 0xFF	; 255
    24e4:	99 23       	and	r25, r25
    24e6:	a9 f0       	breq	.+42     	;  0x2512              ; Branch if equal
    24e8:	f9 2f       	mov	r31, r25                          ; Move register to register
    24ea:	96 e9       	ldi	r25, 0x96	; 150                   ; Load immediate value
    24ec:	bb 27       	eor	r27, r27
    24ee:	93 95       	inc	r25
    24f0:	f6 95       	lsr	r31
    24f2:	87 95       	ror	r24
    24f4:	77 95       	ror	r23
    24f6:	67 95       	ror	r22
    24f8:	b7 95       	ror	r27
    24fa:	f1 11       	cpse	r31, r1
    24fc:	f8 cf       	rjmp	.-16     	;  0x24ee              ; Relative jump
    24fe:	fa f4       	brpl	.+62     	;  0x253e
    2500:	bb 0f       	add	r27, r27
    2502:	11 f4       	brne	.+4      	;  0x2508              ; Branch if not equal
    2504:	60 ff       	sbrs	r22, 0
    2506:	1b c0       	rjmp	.+54     	;  0x253e              ; Relative jump
    2508:	6f 5f       	subi	r22, 0xFF	; 255
    250a:	7f 4f       	sbci	r23, 0xFF	; 255
    250c:	8f 4f       	sbci	r24, 0xFF	; 255
    250e:	9f 4f       	sbci	r25, 0xFF	; 255
    2510:	16 c0       	rjmp	.+44     	;  0x253e              ; Relative jump
    2512:	88 23       	and	r24, r24
    2514:	11 f0       	breq	.+4      	;  0x251a              ; Branch if equal
    2516:	96 e9       	ldi	r25, 0x96	; 150                   ; Load immediate value
    2518:	11 c0       	rjmp	.+34     	;  0x253c              ; Relative jump
    251a:	77 23       	and	r23, r23
    251c:	21 f0       	breq	.+8      	;  0x2526              ; Branch if equal
    251e:	9e e8       	ldi	r25, 0x8E	; 142                   ; Load immediate value
    2520:	87 2f       	mov	r24, r23                          ; Move register to register
    2522:	76 2f       	mov	r23, r22                          ; Move register to register
    2524:	05 c0       	rjmp	.+10     	;  0x2530              ; Relative jump
    2526:	66 23       	and	r22, r22
    2528:	71 f0       	breq	.+28     	;  0x2546              ; Branch if equal
    252a:	96 e8       	ldi	r25, 0x86	; 134                   ; Load immediate value
    252c:	86 2f       	mov	r24, r22                          ; Move register to register
    252e:	70 e0       	ldi	r23, 0x00	; 0                     ; Load immediate value
    2530:	60 e0       	ldi	r22, 0x00	; 0                     ; Load immediate value
    2532:	2a f0       	brmi	.+10     	;  0x253e
    2534:	9a 95       	dec	r25
    2536:	66 0f       	add	r22, r22
    2538:	77 1f       	adc	r23, r23
    253a:	88 1f       	adc	r24, r24
    253c:	da f7       	brpl	.-10     	;  0x2534
    253e:	88 0f       	add	r24, r24
    2540:	96 95       	lsr	r25
    2542:	87 95       	ror	r24
    2544:	97 f9       	bld	r25, 7
    2546:	08 95       	ret
    2548:	99 0f       	add	r25, r25
    254a:	00 08       	sbc	r0, r0
    254c:	55 0f       	add	r21, r21
    254e:	aa 0b       	sbc	r26, r26
    2550:	e0 e8       	ldi	r30, 0x80	; 128                   ; Load immediate value
    2552:	fe ef       	ldi	r31, 0xFE	; 254                   ; Load immediate value
    2554:	16 16       	cp	r1, r22
    2556:	17 06       	cpc	r1, r23
    2558:	e8 07       	cpc	r30, r24
    255a:	f9 07       	cpc	r31, r25
    255c:	c0 f0       	brcs	.+48     	;  0x258e
    255e:	12 16       	cp	r1, r18
    2560:	13 06       	cpc	r1, r19
    2562:	e4 07       	cpc	r30, r20
    2564:	f5 07       	cpc	r31, r21
    2566:	98 f0       	brcs	.+38     	;  0x258e
    2568:	62 1b       	sub	r22, r18
    256a:	73 0b       	sbc	r23, r19
    256c:	84 0b       	sbc	r24, r20
    256e:	95 0b       	sbc	r25, r21
    2570:	39 f4       	brne	.+14     	;  0x2580              ; Branch if not equal
    2572:	0a 26       	eor	r0, r26
    2574:	61 f0       	breq	.+24     	;  0x258e              ; Branch if equal
    2576:	23 2b       	or	r18, r19
    2578:	24 2b       	or	r18, r20
    257a:	25 2b       	or	r18, r21
    257c:	21 f4       	brne	.+8      	;  0x2586              ; Branch if not equal
    257e:	08 95       	ret
    2580:	0a 26       	eor	r0, r26
    2582:	09 f4       	brne	.+2      	;  0x2586              ; Branch if not equal
    2584:	a1 40       	sbci	r26, 0x01	; 1
    2586:	a6 95       	lsr	r26
    2588:	8f ef       	ldi	r24, 0xFF	; 255                   ; Load immediate value
    258a:	81 1d       	adc	r24, r1
    258c:	81 1d       	adc	r24, r1
    258e:	08 95       	ret
    2590:	97 f9       	bld	r25, 7
    2592:	9f 67       	ori	r25, 0x7F	; 127
    2594:	80 e8       	ldi	r24, 0x80	; 128                   ; Load immediate value
    2596:	70 e0       	ldi	r23, 0x00	; 0                     ; Load immediate value
    2598:	60 e0       	ldi	r22, 0x00	; 0                     ; Load immediate value
    259a:	08 95       	ret
    259c:	9f ef       	ldi	r25, 0xFF	; 255                   ; Load immediate value
    259e:	80 ec       	ldi	r24, 0xC0	; 192                   ; Load immediate value
    25a0:	08 95       	ret
    25a2:	00 24       	eor	r0, r0
    25a4:	0a 94       	dec	r0
    25a6:	16 16       	cp	r1, r22
    25a8:	17 06       	cpc	r1, r23
    25aa:	18 06       	cpc	r1, r24
    25ac:	09 06       	cpc	r0, r25
    25ae:	08 95       	ret
    25b0:	00 24       	eor	r0, r0
    25b2:	0a 94       	dec	r0
    25b4:	12 16       	cp	r1, r18
    25b6:	13 06       	cpc	r1, r19
    25b8:	14 06       	cpc	r1, r20
    25ba:	05 06       	cpc	r0, r21
    25bc:	08 95       	ret
    25be:	09 2e       	mov	r0, r25                           ; Move register to register
    25c0:	03 94       	inc	r0
    25c2:	00 0c       	add	r0, r0
    25c4:	11 f4       	brne	.+4      	;  0x25ca              ; Branch if not equal
    25c6:	88 23       	and	r24, r24
    25c8:	52 f0       	brmi	.+20     	;  0x25de
    25ca:	bb 0f       	add	r27, r27
    25cc:	40 f4       	brcc	.+16     	;  0x25de
    25ce:	bf 2b       	or	r27, r31
    25d0:	11 f4       	brne	.+4      	;  0x25d6              ; Branch if not equal
    25d2:	60 ff       	sbrs	r22, 0
    25d4:	04 c0       	rjmp	.+8      	;  0x25de              ; Relative jump
    25d6:	6f 5f       	subi	r22, 0xFF	; 255
    25d8:	7f 4f       	sbci	r23, 0xFF	; 255
    25da:	8f 4f       	sbci	r24, 0xFF	; 255
    25dc:	9f 4f       	sbci	r25, 0xFF	; 255
    25de:	08 95       	ret
    25e0:	57 fd       	sbrc	r21, 7
    25e2:	90 58       	subi	r25, 0x80	; 128
    25e4:	44 0f       	add	r20, r20
    25e6:	55 1f       	adc	r21, r21
    25e8:	59 f0       	breq	.+22     	;  0x2600              ; Branch if equal
    25ea:	5f 3f       	cpi	r21, 0xFF	; 255                   ; Compare with immediate
    25ec:	71 f0       	breq	.+28     	;  0x260a              ; Branch if equal
    25ee:	47 95       	ror	r20
    25f0:	88 0f       	add	r24, r24
    25f2:	97 fb       	bst	r25, 7
    25f4:	99 1f       	adc	r25, r25
    25f6:	61 f0       	breq	.+24     	;  0x2610              ; Branch if equal
    25f8:	9f 3f       	cpi	r25, 0xFF	; 255                   ; Compare with immediate
    25fa:	79 f0       	breq	.+30     	;  0x261a              ; Branch if equal
    25fc:	87 95       	ror	r24
    25fe:	08 95       	ret
    2600:	12 16       	cp	r1, r18
    2602:	13 06       	cpc	r1, r19
    2604:	14 06       	cpc	r1, r20
    2606:	55 1f       	adc	r21, r21
    2608:	f2 cf       	rjmp	.-28     	;  0x25ee              ; Relative jump
    260a:	46 95       	lsr	r20
    260c:	f1 df       	rcall	.-30     	;  0x25f0
    260e:	08 c0       	rjmp	.+16     	;  0x2620              ; Relative jump
    2610:	16 16       	cp	r1, r22
    2612:	17 06       	cpc	r1, r23
    2614:	18 06       	cpc	r1, r24
    2616:	99 1f       	adc	r25, r25
    2618:	f1 cf       	rjmp	.-30     	;  0x25fc              ; Relative jump
    261a:	86 95       	lsr	r24
    261c:	71 05       	cpc	r23, r1
    261e:	61 05       	cpc	r22, r1
    2620:	08 94       	sec
    2622:	08 95       	ret
    2624:	e8 94       	clt
    2626:	bb 27       	eor	r27, r27
    2628:	66 27       	eor	r22, r22
    262a:	77 27       	eor	r23, r23
    262c:	cb 01       	movw	r24, r22
    262e:	97 f9       	bld	r25, 7
    2630:	08 95       	ret
    2632:	2f 92       	push	r2                               ; Push onto stack
    2634:	3f 92       	push	r3                               ; Push onto stack
    2636:	4f 92       	push	r4                               ; Push onto stack
    2638:	5f 92       	push	r5                               ; Push onto stack
    263a:	6f 92       	push	r6                               ; Push onto stack
    263c:	7f 92       	push	r7                               ; Push onto stack
    263e:	8f 92       	push	r8                               ; Push onto stack
    2640:	9f 92       	push	r9                               ; Push onto stack
    2642:	af 92       	push	r10                              ; Push onto stack
    2644:	bf 92       	push	r11                              ; Push onto stack
    2646:	cf 92       	push	r12                              ; Push onto stack
    2648:	df 92       	push	r13                              ; Push onto stack
    264a:	ef 92       	push	r14                              ; Push onto stack
    264c:	ff 92       	push	r15                              ; Push onto stack
    264e:	0f 93       	push	r16                              ; Push onto stack
    2650:	1f 93       	push	r17                              ; Push onto stack
    2652:	cf 93       	push	r28                              ; Push onto stack
    2654:	df 93       	push	r29                              ; Push onto stack
    2656:	cd b7       	in	r28, 0x3d	; 61                     ; Input from I/O port
    2658:	de b7       	in	r29, 0x3e	; 62                     ; Input from I/O port
    265a:	ca 1b       	sub	r28, r26
    265c:	db 0b       	sbc	r29, r27
    265e:	0f b6       	in	r0, 0x3f	; 63                      ; Input from I/O port
    2660:	f8 94       	cli
    2662:	de bf       	out	0x3e, r29	; 62                    ; Output to I/O port
    2664:	0f be       	out	0x3f, r0	; 63                     ; Output to I/O port
    2666:	cd bf       	out	0x3d, r28	; 61                    ; Output to I/O port
    2668:	09 94       	ijmp
    266a:	2a 88       	ldd	r2, Y+18	; 0x12
    266c:	39 88       	ldd	r3, Y+17	; 0x11
    266e:	48 88       	ldd	r4, Y+16	; 0x10
    2670:	5f 84       	ldd	r5, Y+15	; 0x0f
    2672:	6e 84       	ldd	r6, Y+14	; 0x0e
    2674:	7d 84       	ldd	r7, Y+13	; 0x0d
    2676:	8c 84       	ldd	r8, Y+12	; 0x0c
    2678:	9b 84       	ldd	r9, Y+11	; 0x0b
    267a:	aa 84       	ldd	r10, Y+10	; 0x0a
    267c:	b9 84       	ldd	r11, Y+9	; 0x09
    267e:	c8 84       	ldd	r12, Y+8	; 0x08
    2680:	df 80       	ldd	r13, Y+7	; 0x07
    2682:	ee 80       	ldd	r14, Y+6	; 0x06
    2684:	fd 80       	ldd	r15, Y+5	; 0x05
    2686:	0c 81       	ldd	r16, Y+4	; 0x04
    2688:	1b 81       	ldd	r17, Y+3	; 0x03
    268a:	aa 81       	ldd	r26, Y+2	; 0x02
    268c:	b9 81       	ldd	r27, Y+1	; 0x01
    268e:	ce 0f       	add	r28, r30
    2690:	d1 1d       	adc	r29, r1
    2692:	0f b6       	in	r0, 0x3f	; 63                      ; Input from I/O port
    2694:	f8 94       	cli
    2696:	de bf       	out	0x3e, r29	; 62                    ; Output to I/O port
    2698:	0f be       	out	0x3f, r0	; 63                     ; Output to I/O port
    269a:	cd bf       	out	0x3d, r28	; 61                    ; Output to I/O port
    269c:	ed 01       	movw	r28, r26
    269e:	08 95       	ret
    26a0:	a2 9f       	mul	r26, r18
    26a2:	b0 01       	movw	r22, r0
    26a4:	b3 9f       	mul	r27, r19
    26a6:	c0 01       	movw	r24, r0
    26a8:	a3 9f       	mul	r26, r19
    26aa:	70 0d       	add	r23, r0
    26ac:	81 1d       	adc	r24, r1
    26ae:	11 24       	eor	r1, r1
    26b0:	91 1d       	adc	r25, r1
    26b2:	b2 9f       	mul	r27, r18
    26b4:	70 0d       	add	r23, r0
    26b6:	81 1d       	adc	r24, r1
    26b8:	11 24       	eor	r1, r1
    26ba:	91 1d       	adc	r25, r1
    26bc:	08 95       	ret
    26be:	0e 94 73 13 	call	0x26e6	;  0x26e6                 ; Function call
    26c2:	0c 94 df 12 	jmp	0x25be	;  0x25be                  ; Jump
    26c6:	0e 94 d8 12 	call	0x25b0	;  0x25b0                 ; Function call
    26ca:	58 f0       	brcs	.+22     	;  0x26e2
    26cc:	0e 94 d1 12 	call	0x25a2	;  0x25a2                 ; Function call
    26d0:	40 f0       	brcs	.+16     	;  0x26e2
    26d2:	29 f4       	brne	.+10     	;  0x26de              ; Branch if not equal
    26d4:	5f 3f       	cpi	r21, 0xFF	; 255                   ; Compare with immediate
    26d6:	29 f0       	breq	.+10     	;  0x26e2              ; Branch if equal
    26d8:	0c 94 c8 12 	jmp	0x2590	;  0x2590                  ; Jump
    26dc:	51 11       	cpse	r21, r1
    26de:	0c 94 13 13 	jmp	0x2626	;  0x2626                  ; Jump
    26e2:	0c 94 ce 12 	jmp	0x259c	;  0x259c                  ; Jump
    26e6:	0e 94 f0 12 	call	0x25e0	;  0x25e0                 ; Function call
    26ea:	68 f3       	brcs	.-38     	;  0x26c6
    26ec:	99 23       	and	r25, r25
    26ee:	b1 f3       	breq	.-20     	;  0x26dc              ; Branch if equal
    26f0:	55 23       	and	r21, r21
    26f2:	91 f3       	breq	.-28     	;  0x26d8              ; Branch if equal
    26f4:	95 1b       	sub	r25, r21
    26f6:	55 0b       	sbc	r21, r21
    26f8:	bb 27       	eor	r27, r27
    26fa:	aa 27       	eor	r26, r26
    26fc:	62 17       	cp	r22, r18
    26fe:	73 07       	cpc	r23, r19
    2700:	84 07       	cpc	r24, r20
    2702:	38 f0       	brcs	.+14     	;  0x2712
    2704:	9f 5f       	subi	r25, 0xFF	; 255
    2706:	5f 4f       	sbci	r21, 0xFF	; 255
    2708:	22 0f       	add	r18, r18
    270a:	33 1f       	adc	r19, r19
    270c:	44 1f       	adc	r20, r20
    270e:	aa 1f       	adc	r26, r26
    2710:	a9 f3       	breq	.-22     	;  0x26fc              ; Branch if equal
    2712:	35 d0       	rcall	.+106    	;  0x277e
    2714:	0e 2e       	mov	r0, r30                           ; Move register to register
    2716:	3a f0       	brmi	.+14     	;  0x2726
    2718:	e0 e8       	ldi	r30, 0x80	; 128                   ; Load immediate value
    271a:	32 d0       	rcall	.+100    	;  0x2780
    271c:	91 50       	subi	r25, 0x01	; 1
    271e:	50 40       	sbci	r21, 0x00	; 0
    2720:	e6 95       	lsr	r30
    2722:	00 1c       	adc	r0, r0
    2724:	ca f7       	brpl	.-14     	;  0x2718
    2726:	2b d0       	rcall	.+86     	;  0x277e
    2728:	fe 2f       	mov	r31, r30                          ; Move register to register
    272a:	29 d0       	rcall	.+82     	;  0x277e
    272c:	66 0f       	add	r22, r22
    272e:	77 1f       	adc	r23, r23
    2730:	88 1f       	adc	r24, r24
    2732:	bb 1f       	adc	r27, r27
    2734:	26 17       	cp	r18, r22
    2736:	37 07       	cpc	r19, r23
    2738:	48 07       	cpc	r20, r24
    273a:	ab 07       	cpc	r26, r27
    273c:	b0 e8       	ldi	r27, 0x80	; 128                   ; Load immediate value
    273e:	09 f0       	breq	.+2      	;  0x2742              ; Branch if equal
    2740:	bb 0b       	sbc	r27, r27
    2742:	80 2d       	mov	r24, r0                           ; Move register to register
    2744:	bf 01       	movw	r22, r30
    2746:	ff 27       	eor	r31, r31
    2748:	93 58       	subi	r25, 0x83	; 131
    274a:	5f 4f       	sbci	r21, 0xFF	; 255
    274c:	3a f0       	brmi	.+14     	;  0x275c
    274e:	9e 3f       	cpi	r25, 0xFE	; 254                   ; Compare with immediate
    2750:	51 05       	cpc	r21, r1
    2752:	78 f0       	brcs	.+30     	;  0x2772
    2754:	0c 94 c8 12 	jmp	0x2590	;  0x2590                  ; Jump
    2758:	0c 94 13 13 	jmp	0x2626	;  0x2626                  ; Jump
    275c:	5f 3f       	cpi	r21, 0xFF	; 255                   ; Compare with immediate
    275e:	e4 f3       	brlt	.-8      	;  0x2758
    2760:	98 3e       	cpi	r25, 0xE8	; 232                   ; Compare with immediate
    2762:	d4 f3       	brlt	.-12     	;  0x2758
    2764:	86 95       	lsr	r24
    2766:	77 95       	ror	r23
    2768:	67 95       	ror	r22
    276a:	b7 95       	ror	r27
    276c:	f7 95       	ror	r31
    276e:	9f 5f       	subi	r25, 0xFF	; 255
    2770:	c9 f7       	brne	.-14     	;  0x2764              ; Branch if not equal
    2772:	88 0f       	add	r24, r24
    2774:	91 1d       	adc	r25, r1
    2776:	96 95       	lsr	r25
    2778:	87 95       	ror	r24
    277a:	97 f9       	bld	r25, 7
    277c:	08 95       	ret
    277e:	e1 e0       	ldi	r30, 0x01	; 1                     ; Load immediate value
    2780:	66 0f       	add	r22, r22
    2782:	77 1f       	adc	r23, r23
    2784:	88 1f       	adc	r24, r24
    2786:	bb 1f       	adc	r27, r27
    2788:	62 17       	cp	r22, r18
    278a:	73 07       	cpc	r23, r19
    278c:	84 07       	cpc	r24, r20
    278e:	ba 07       	cpc	r27, r26
    2790:	20 f0       	brcs	.+8      	;  0x279a
    2792:	62 1b       	sub	r22, r18
    2794:	73 0b       	sbc	r23, r19
    2796:	84 0b       	sbc	r24, r20
    2798:	ba 0b       	sbc	r27, r26
    279a:	ee 1f       	adc	r30, r30
    279c:	88 f7       	brcc	.-30     	;  0x2780
    279e:	e0 95       	com	r30
    27a0:	08 95       	ret
    27a2:	0e 94 f8 12 	call	0x25f0	;  0x25f0                 ; Function call
    27a6:	88 f0       	brcs	.+34     	;  0x27ca
    27a8:	9f 57       	subi	r25, 0x7F	; 127
    27aa:	98 f0       	brcs	.+38     	;  0x27d2
    27ac:	b9 2f       	mov	r27, r25                          ; Move register to register
    27ae:	99 27       	eor	r25, r25
    27b0:	b7 51       	subi	r27, 0x17	; 23
    27b2:	b0 f0       	brcs	.+44     	;  0x27e0
    27b4:	e1 f0       	breq	.+56     	;  0x27ee              ; Branch if equal
    27b6:	66 0f       	add	r22, r22
    27b8:	77 1f       	adc	r23, r23
    27ba:	88 1f       	adc	r24, r24
    27bc:	99 1f       	adc	r25, r25
    27be:	1a f0       	brmi	.+6      	;  0x27c6
    27c0:	ba 95       	dec	r27
    27c2:	c9 f7       	brne	.-14     	;  0x27b6              ; Branch if not equal
    27c4:	14 c0       	rjmp	.+40     	;  0x27ee              ; Relative jump
    27c6:	b1 30       	cpi	r27, 0x01	; 1                     ; Compare with immediate
    27c8:	91 f0       	breq	.+36     	;  0x27ee              ; Branch if equal
    27ca:	0e 94 12 13 	call	0x2624	;  0x2624                 ; Function call
    27ce:	b1 e0       	ldi	r27, 0x01	; 1                     ; Load immediate value
    27d0:	08 95       	ret
    27d2:	0c 94 12 13 	jmp	0x2624	;  0x2624                  ; Jump
    27d6:	67 2f       	mov	r22, r23                          ; Move register to register
    27d8:	78 2f       	mov	r23, r24                          ; Move register to register
    27da:	88 27       	eor	r24, r24
    27dc:	b8 5f       	subi	r27, 0xF8	; 248
    27de:	39 f0       	breq	.+14     	;  0x27ee              ; Branch if equal
    27e0:	b9 3f       	cpi	r27, 0xF9	; 249                   ; Compare with immediate
    27e2:	cc f3       	brlt	.-14     	;  0x27d6
    27e4:	86 95       	lsr	r24
    27e6:	77 95       	ror	r23
    27e8:	67 95       	ror	r22
    27ea:	b3 95       	inc	r27
    27ec:	d9 f7       	brne	.-10     	;  0x27e4              ; Branch if not equal
    27ee:	3e f4       	brtc	.+14     	;  0x27fe
    27f0:	90 95       	com	r25
    27f2:	80 95       	com	r24
    27f4:	70 95       	com	r23
    27f6:	61 95       	neg	r22
    27f8:	7f 4f       	sbci	r23, 0xFF	; 255
    27fa:	8f 4f       	sbci	r24, 0xFF	; 255
    27fc:	9f 4f       	sbci	r25, 0xFF	; 255
    27fe:	08 95       	ret
    2800:	0e 94 a4 12 	call	0x2548	;  0x2548                 ; Function call
    2804:	08 f4       	brcc	.+2      	;  0x2808
    2806:	8f ef       	ldi	r24, 0xFF	; 255                   ; Load immediate value
    2808:	08 95       	ret
    280a:	97 fb       	bst	r25, 7
    280c:	07 2e       	mov	r0, r23                           ; Move register to register
    280e:	16 f4       	brtc	.+4      	;  0x2814
    2810:	00 94       	com	r0
    2812:	07 d0       	rcall	.+14     	;  0x2822
    2814:	77 fd       	sbrc	r23, 7
    2816:	09 d0       	rcall	.+18     	;  0x282a
    2818:	0e 94 2e 14 	call	0x285c	;  0x285c                 ; Function call
    281c:	07 fc       	sbrc	r0, 7
    281e:	05 d0       	rcall	.+10     	;  0x282a
    2820:	3e f4       	brtc	.+14     	;  0x2830
    2822:	90 95       	com	r25
    2824:	81 95       	neg	r24
    2826:	9f 4f       	sbci	r25, 0xFF	; 255
    2828:	08 95       	ret
    282a:	70 95       	com	r23
    282c:	61 95       	neg	r22
    282e:	7f 4f       	sbci	r23, 0xFF	; 255
    2830:	08 95       	ret
    2832:	ee 0f       	add	r30, r30
    2834:	ff 1f       	adc	r31, r31
    2836:	05 90       	lpm	r0, Z+
    2838:	f4 91       	lpm	r31, Z
    283a:	e0 2d       	mov	r30, r0                           ; Move register to register
    283c:	09 94       	ijmp
    283e:	0e 94 50 13 	call	0x26a0	;  0x26a0                 ; Function call
    2842:	33 23       	and	r19, r19
    2844:	12 f4       	brpl	.+4      	;  0x284a
    2846:	8a 1b       	sub	r24, r26
    2848:	9b 0b       	sbc	r25, r27
    284a:	0c 94 29 14 	jmp	0x2852	;  0x2852                  ; Jump
    284e:	0e 94 50 13 	call	0x26a0	;  0x26a0                 ; Function call
    2852:	b7 ff       	sbrs	r27, 7
    2854:	08 95       	ret
    2856:	82 1b       	sub	r24, r18
    2858:	93 0b       	sbc	r25, r19
    285a:	08 95       	ret
    285c:	aa 1b       	sub	r26, r26
    285e:	bb 1b       	sub	r27, r27
    2860:	51 e1       	ldi	r21, 0x11	; 17                    ; Load immediate value
    2862:	07 c0       	rjmp	.+14     	;  0x2872              ; Relative jump
    2864:	aa 1f       	adc	r26, r26
    2866:	bb 1f       	adc	r27, r27
    2868:	a6 17       	cp	r26, r22
    286a:	b7 07       	cpc	r27, r23
    286c:	10 f0       	brcs	.+4      	;  0x2872
    286e:	a6 1b       	sub	r26, r22
    2870:	b7 0b       	sbc	r27, r23
    2872:	88 1f       	adc	r24, r24
    2874:	99 1f       	adc	r25, r25
    2876:	5a 95       	dec	r21
    2878:	a9 f7       	brne	.-22     	;  0x2864              ; Branch if not equal
    287a:	80 95       	com	r24
    287c:	90 95       	com	r25
    287e:	bc 01       	movw	r22, r24
    2880:	cd 01       	movw	r24, r26
    2882:	08 95       	ret
    2884:	0f 93       	push	r16                              ; Push onto stack
    2886:	1f 93       	push	r17                              ; Push onto stack
    2888:	cf 93       	push	r28                              ; Push onto stack
    288a:	df 93       	push	r29                              ; Push onto stack
    288c:	82 30       	cpi	r24, 0x02	; 2                     ; Compare with immediate
    288e:	91 05       	cpc	r25, r1
    2890:	10 f4       	brcc	.+4      	;  0x2896
    2892:	82 e0       	ldi	r24, 0x02	; 2                     ; Load immediate value
    2894:	90 e0       	ldi	r25, 0x00	; 0                     ; Load immediate value
    2896:	e0 91 46 03 	lds	r30, 0x0346	;  0x800346           ; Load from data space
    289a:	f0 91 47 03 	lds	r31, 0x0347	;  0x800347           ; Load from data space
    289e:	30 e0       	ldi	r19, 0x00	; 0                     ; Load immediate value
    28a0:	20 e0       	ldi	r18, 0x00	; 0                     ; Load immediate value
    28a2:	b0 e0       	ldi	r27, 0x00	; 0                     ; Load immediate value
    28a4:	a0 e0       	ldi	r26, 0x00	; 0                     ; Load immediate value
    28a6:	30 97       	sbiw	r30, 0x00	; 0
    28a8:	99 f4       	brne	.+38     	;  0x28d0              ; Branch if not equal
    28aa:	21 15       	cp	r18, r1
    28ac:	31 05       	cpc	r19, r1
    28ae:	09 f4       	brne	.+2      	;  0x28b2              ; Branch if not equal
    28b0:	4a c0       	rjmp	.+148    	;  0x2946              ; Relative jump
    28b2:	28 1b       	sub	r18, r24
    28b4:	39 0b       	sbc	r19, r25
    28b6:	24 30       	cpi	r18, 0x04	; 4                     ; Compare with immediate
    28b8:	31 05       	cpc	r19, r1
    28ba:	d8 f5       	brcc	.+118    	;  0x2932
    28bc:	8a 81       	ldd	r24, Y+2	; 0x02
    28be:	9b 81       	ldd	r25, Y+3	; 0x03
    28c0:	61 15       	cp	r22, r1
    28c2:	71 05       	cpc	r23, r1
    28c4:	89 f1       	breq	.+98     	;  0x2928              ; Branch if equal
    28c6:	fb 01       	movw	r30, r22
    28c8:	93 83       	std	Z+3, r25	; 0x03
    28ca:	82 83       	std	Z+2, r24	; 0x02
    28cc:	fe 01       	movw	r30, r28
    28ce:	11 c0       	rjmp	.+34     	;  0x28f2              ; Relative jump
    28d0:	40 81       	ld	r20, Z
    28d2:	51 81       	ldd	r21, Z+1	; 0x01
    28d4:	02 81       	ldd	r16, Z+2	; 0x02
    28d6:	13 81       	ldd	r17, Z+3	; 0x03
    28d8:	48 17       	cp	r20, r24
    28da:	59 07       	cpc	r21, r25
    28dc:	e0 f0       	brcs	.+56     	;  0x2916
    28de:	48 17       	cp	r20, r24
    28e0:	59 07       	cpc	r21, r25
    28e2:	99 f4       	brne	.+38     	;  0x290a              ; Branch if not equal
    28e4:	10 97       	sbiw	r26, 0x00	; 0
    28e6:	61 f0       	breq	.+24     	;  0x2900              ; Branch if equal
    28e8:	12 96       	adiw	r26, 0x02	; 2
    28ea:	0c 93       	st	X, r16
    28ec:	12 97       	sbiw	r26, 0x02	; 2
    28ee:	13 96       	adiw	r26, 0x03	; 3
    28f0:	1c 93       	st	X, r17
    28f2:	32 96       	adiw	r30, 0x02	; 2
    28f4:	cf 01       	movw	r24, r30
    28f6:	df 91       	pop	r29                               ; Pop from stack
    28f8:	cf 91       	pop	r28                               ; Pop from stack
    28fa:	1f 91       	pop	r17                               ; Pop from stack
    28fc:	0f 91       	pop	r16                               ; Pop from stack
    28fe:	08 95       	ret
    2900:	00 93 46 03 	sts	0x0346, r16	;  0x800346           ; Store to data space
    2904:	10 93 47 03 	sts	0x0347, r17	;  0x800347           ; Store to data space
    2908:	f4 cf       	rjmp	.-24     	;  0x28f2              ; Relative jump
    290a:	21 15       	cp	r18, r1
    290c:	31 05       	cpc	r19, r1
    290e:	51 f0       	breq	.+20     	;  0x2924              ; Branch if equal
    2910:	42 17       	cp	r20, r18
    2912:	53 07       	cpc	r21, r19
    2914:	38 f0       	brcs	.+14     	;  0x2924
    2916:	a9 01       	movw	r20, r18
    2918:	db 01       	movw	r26, r22
    291a:	9a 01       	movw	r18, r20
    291c:	bd 01       	movw	r22, r26
    291e:	df 01       	movw	r26, r30
    2920:	f8 01       	movw	r30, r16
    2922:	c1 cf       	rjmp	.-126    	;  0x28a6              ; Relative jump
    2924:	ef 01       	movw	r28, r30
    2926:	f9 cf       	rjmp	.-14     	;  0x291a              ; Relative jump
    2928:	90 93 47 03 	sts	0x0347, r25	;  0x800347           ; Store to data space
    292c:	80 93 46 03 	sts	0x0346, r24	;  0x800346           ; Store to data space
    2930:	cd cf       	rjmp	.-102    	;  0x28cc              ; Relative jump
    2932:	fe 01       	movw	r30, r28
    2934:	e2 0f       	add	r30, r18
    2936:	f3 1f       	adc	r31, r19
    2938:	81 93       	st	Z+, r24
    293a:	91 93       	st	Z+, r25
    293c:	22 50       	subi	r18, 0x02	; 2
    293e:	31 09       	sbc	r19, r1
    2940:	39 83       	std	Y+1, r19	; 0x01
    2942:	28 83       	st	Y, r18
    2944:	d7 cf       	rjmp	.-82     	;  0x28f4              ; Relative jump
    2946:	20 91 44 03 	lds	r18, 0x0344	;  0x800344           ; Load from data space
    294a:	30 91 45 03 	lds	r19, 0x0345	;  0x800345           ; Load from data space
    294e:	23 2b       	or	r18, r19
    2950:	41 f4       	brne	.+16     	;  0x2962              ; Branch if not equal
    2952:	20 91 0e 01 	lds	r18, 0x010E	;  0x80010e           ; Load from data space
    2956:	30 91 0f 01 	lds	r19, 0x010F	;  0x80010f           ; Load from data space
    295a:	30 93 45 03 	sts	0x0345, r19	;  0x800345           ; Store to data space
    295e:	20 93 44 03 	sts	0x0344, r18	;  0x800344           ; Store to data space
    2962:	20 91 0c 01 	lds	r18, 0x010C	;  0x80010c           ; Load from data space
    2966:	30 91 0d 01 	lds	r19, 0x010D	;  0x80010d           ; Load from data space
    296a:	21 15       	cp	r18, r1
    296c:	31 05       	cpc	r19, r1
    296e:	41 f4       	brne	.+16     	;  0x2980              ; Branch if not equal
    2970:	2d b7       	in	r18, 0x3d	; 61                     ; Input from I/O port
    2972:	3e b7       	in	r19, 0x3e	; 62                     ; Input from I/O port
    2974:	40 91 10 01 	lds	r20, 0x0110	;  0x800110           ; Load from data space
    2978:	50 91 11 01 	lds	r21, 0x0111	;  0x800111           ; Load from data space
    297c:	24 1b       	sub	r18, r20
    297e:	35 0b       	sbc	r19, r21
    2980:	e0 91 44 03 	lds	r30, 0x0344	;  0x800344           ; Load from data space
    2984:	f0 91 45 03 	lds	r31, 0x0345	;  0x800345           ; Load from data space
    2988:	e2 17       	cp	r30, r18
    298a:	f3 07       	cpc	r31, r19
    298c:	a0 f4       	brcc	.+40     	;  0x29b6
    298e:	2e 1b       	sub	r18, r30
    2990:	3f 0b       	sbc	r19, r31
    2992:	28 17       	cp	r18, r24
    2994:	39 07       	cpc	r19, r25
    2996:	78 f0       	brcs	.+30     	;  0x29b6
    2998:	ac 01       	movw	r20, r24
    299a:	4e 5f       	subi	r20, 0xFE	; 254
    299c:	5f 4f       	sbci	r21, 0xFF	; 255
    299e:	24 17       	cp	r18, r20
    29a0:	35 07       	cpc	r19, r21
    29a2:	48 f0       	brcs	.+18     	;  0x29b6
    29a4:	4e 0f       	add	r20, r30
    29a6:	5f 1f       	adc	r21, r31
    29a8:	50 93 45 03 	sts	0x0345, r21	;  0x800345           ; Store to data space
    29ac:	40 93 44 03 	sts	0x0344, r20	;  0x800344           ; Store to data space
    29b0:	81 93       	st	Z+, r24
    29b2:	91 93       	st	Z+, r25
    29b4:	9f cf       	rjmp	.-194    	;  0x28f4              ; Relative jump
    29b6:	f0 e0       	ldi	r31, 0x00	; 0                     ; Load immediate value
    29b8:	e0 e0       	ldi	r30, 0x00	; 0                     ; Load immediate value
    29ba:	9c cf       	rjmp	.-200    	;  0x28f4              ; Relative jump
    29bc:	cf 93       	push	r28                              ; Push onto stack
    29be:	df 93       	push	r29                              ; Push onto stack
    29c0:	00 97       	sbiw	r24, 0x00	; 0
    29c2:	e9 f0       	breq	.+58     	;  0x29fe              ; Branch if equal
    29c4:	fc 01       	movw	r30, r24
    29c6:	32 97       	sbiw	r30, 0x02	; 2
    29c8:	13 82       	std	Z+3, r1	; 0x03
    29ca:	12 82       	std	Z+2, r1	; 0x02
    29cc:	a0 91 46 03 	lds	r26, 0x0346	;  0x800346           ; Load from data space
    29d0:	b0 91 47 03 	lds	r27, 0x0347	;  0x800347           ; Load from data space
    29d4:	ed 01       	movw	r28, r26
    29d6:	30 e0       	ldi	r19, 0x00	; 0                     ; Load immediate value
    29d8:	20 e0       	ldi	r18, 0x00	; 0                     ; Load immediate value
    29da:	10 97       	sbiw	r26, 0x00	; 0
    29dc:	a1 f4       	brne	.+40     	;  0x2a06              ; Branch if not equal
    29de:	20 81       	ld	r18, Z
    29e0:	31 81       	ldd	r19, Z+1	; 0x01
    29e2:	82 0f       	add	r24, r18
    29e4:	93 1f       	adc	r25, r19
    29e6:	20 91 44 03 	lds	r18, 0x0344	;  0x800344           ; Load from data space
    29ea:	30 91 45 03 	lds	r19, 0x0345	;  0x800345           ; Load from data space
    29ee:	28 17       	cp	r18, r24
    29f0:	39 07       	cpc	r19, r25
    29f2:	09 f0       	breq	.+2      	;  0x29f6              ; Branch if equal
    29f4:	61 c0       	rjmp	.+194    	;  0x2ab8              ; Relative jump
    29f6:	f0 93 45 03 	sts	0x0345, r31	;  0x800345           ; Store to data space
    29fa:	e0 93 44 03 	sts	0x0344, r30	;  0x800344           ; Store to data space
    29fe:	df 91       	pop	r29                               ; Pop from stack
    2a00:	cf 91       	pop	r28                               ; Pop from stack
    2a02:	08 95       	ret
    2a04:	ea 01       	movw	r28, r20
    2a06:	ce 17       	cp	r28, r30
    2a08:	df 07       	cpc	r29, r31
    2a0a:	e8 f5       	brcc	.+122    	;  0x2a86
    2a0c:	4a 81       	ldd	r20, Y+2	; 0x02
    2a0e:	5b 81       	ldd	r21, Y+3	; 0x03
    2a10:	9e 01       	movw	r18, r28
    2a12:	41 15       	cp	r20, r1
    2a14:	51 05       	cpc	r21, r1
    2a16:	b1 f7       	brne	.-20     	;  0x2a04              ; Branch if not equal
    2a18:	e9 01       	movw	r28, r18
    2a1a:	fb 83       	std	Y+3, r31	; 0x03
    2a1c:	ea 83       	std	Y+2, r30	; 0x02
    2a1e:	49 91       	ld	r20, Y+
    2a20:	59 91       	ld	r21, Y+
    2a22:	c4 0f       	add	r28, r20
    2a24:	d5 1f       	adc	r29, r21
    2a26:	ec 17       	cp	r30, r28
    2a28:	fd 07       	cpc	r31, r29
    2a2a:	61 f4       	brne	.+24     	;  0x2a44              ; Branch if not equal
    2a2c:	80 81       	ld	r24, Z
    2a2e:	91 81       	ldd	r25, Z+1	; 0x01
    2a30:	02 96       	adiw	r24, 0x02	; 2
    2a32:	84 0f       	add	r24, r20
    2a34:	95 1f       	adc	r25, r21
    2a36:	e9 01       	movw	r28, r18
    2a38:	99 83       	std	Y+1, r25	; 0x01
    2a3a:	88 83       	st	Y, r24
    2a3c:	82 81       	ldd	r24, Z+2	; 0x02
    2a3e:	93 81       	ldd	r25, Z+3	; 0x03
    2a40:	9b 83       	std	Y+3, r25	; 0x03
    2a42:	8a 83       	std	Y+2, r24	; 0x02
    2a44:	f0 e0       	ldi	r31, 0x00	; 0                     ; Load immediate value
    2a46:	e0 e0       	ldi	r30, 0x00	; 0                     ; Load immediate value
    2a48:	12 96       	adiw	r26, 0x02	; 2
    2a4a:	8d 91       	ld	r24, X+
    2a4c:	9c 91       	ld	r25, X
    2a4e:	13 97       	sbiw	r26, 0x03	; 3
    2a50:	00 97       	sbiw	r24, 0x00	; 0
    2a52:	b9 f5       	brne	.+110    	;  0x2ac2              ; Branch if not equal
    2a54:	2d 91       	ld	r18, X+
    2a56:	3c 91       	ld	r19, X
    2a58:	11 97       	sbiw	r26, 0x01	; 1
    2a5a:	cd 01       	movw	r24, r26
    2a5c:	02 96       	adiw	r24, 0x02	; 2
    2a5e:	82 0f       	add	r24, r18
    2a60:	93 1f       	adc	r25, r19
    2a62:	20 91 44 03 	lds	r18, 0x0344	;  0x800344           ; Load from data space
    2a66:	30 91 45 03 	lds	r19, 0x0345	;  0x800345           ; Load from data space
    2a6a:	28 17       	cp	r18, r24
    2a6c:	39 07       	cpc	r19, r25
    2a6e:	39 f6       	brne	.-114    	;  0x29fe              ; Branch if not equal
    2a70:	30 97       	sbiw	r30, 0x00	; 0
    2a72:	51 f5       	brne	.+84     	;  0x2ac8              ; Branch if not equal
    2a74:	10 92 47 03 	sts	0x0347, r1	;  0x800347            ; Store to data space
    2a78:	10 92 46 03 	sts	0x0346, r1	;  0x800346            ; Store to data space
    2a7c:	b0 93 45 03 	sts	0x0345, r27	;  0x800345           ; Store to data space
    2a80:	a0 93 44 03 	sts	0x0344, r26	;  0x800344           ; Store to data space
    2a84:	bc cf       	rjmp	.-136    	;  0x29fe              ; Relative jump
    2a86:	d3 83       	std	Z+3, r29	; 0x03
    2a88:	c2 83       	std	Z+2, r28	; 0x02
    2a8a:	40 81       	ld	r20, Z
    2a8c:	51 81       	ldd	r21, Z+1	; 0x01
    2a8e:	84 0f       	add	r24, r20
    2a90:	95 1f       	adc	r25, r21
    2a92:	c8 17       	cp	r28, r24
    2a94:	d9 07       	cpc	r29, r25
    2a96:	61 f4       	brne	.+24     	;  0x2ab0              ; Branch if not equal
    2a98:	4e 5f       	subi	r20, 0xFE	; 254
    2a9a:	5f 4f       	sbci	r21, 0xFF	; 255
    2a9c:	88 81       	ld	r24, Y
    2a9e:	99 81       	ldd	r25, Y+1	; 0x01
    2aa0:	48 0f       	add	r20, r24
    2aa2:	59 1f       	adc	r21, r25
    2aa4:	51 83       	std	Z+1, r21	; 0x01
    2aa6:	40 83       	st	Z, r20
    2aa8:	8a 81       	ldd	r24, Y+2	; 0x02
    2aaa:	9b 81       	ldd	r25, Y+3	; 0x03
    2aac:	93 83       	std	Z+3, r25	; 0x03
    2aae:	82 83       	std	Z+2, r24	; 0x02
    2ab0:	21 15       	cp	r18, r1
    2ab2:	31 05       	cpc	r19, r1
    2ab4:	09 f0       	breq	.+2      	;  0x2ab8              ; Branch if equal
    2ab6:	b0 cf       	rjmp	.-160    	;  0x2a18              ; Relative jump
    2ab8:	f0 93 47 03 	sts	0x0347, r31	;  0x800347           ; Store to data space
    2abc:	e0 93 46 03 	sts	0x0346, r30	;  0x800346           ; Store to data space
    2ac0:	9e cf       	rjmp	.-196    	;  0x29fe              ; Relative jump
    2ac2:	fd 01       	movw	r30, r26
    2ac4:	dc 01       	movw	r26, r24
    2ac6:	c0 cf       	rjmp	.-128    	;  0x2a48              ; Relative jump
    2ac8:	13 82       	std	Z+3, r1	; 0x03
    2aca:	12 82       	std	Z+2, r1	; 0x02
    2acc:	d7 cf       	rjmp	.-82     	;  0x2a7c              ; Relative jump
    2ace:	b0 e0       	ldi	r27, 0x00	; 0                     ; Load immediate value
    2ad0:	a0 e0       	ldi	r26, 0x00	; 0                     ; Load immediate value
    2ad2:	ed e6       	ldi	r30, 0x6D	; 109                   ; Load immediate value
    2ad4:	f5 e1       	ldi	r31, 0x15	; 21                    ; Load immediate value
    2ad6:	0c 94 1b 13 	jmp	0x2636	;  0x2636                  ; Jump
    2ada:	8c 01       	movw	r16, r24
    2adc:	00 97       	sbiw	r24, 0x00	; 0
    2ade:	51 f4       	brne	.+20     	;  0x2af4              ; Branch if not equal
    2ae0:	cb 01       	movw	r24, r22
    2ae2:	0e 94 42 14 	call	0x2884	;  0x2884                 ; Function call
    2ae6:	8c 01       	movw	r16, r24
    2ae8:	c8 01       	movw	r24, r16
    2aea:	cd b7       	in	r28, 0x3d	; 61                     ; Input from I/O port
    2aec:	de b7       	in	r29, 0x3e	; 62                     ; Input from I/O port
    2aee:	e0 e1       	ldi	r30, 0x10	; 16                    ; Load immediate value
    2af0:	0c 94 37 13 	jmp	0x266e	;  0x266e                  ; Jump
    2af4:	fc 01       	movw	r30, r24
    2af6:	e6 0f       	add	r30, r22
    2af8:	f7 1f       	adc	r31, r23
    2afa:	9c 01       	movw	r18, r24
    2afc:	22 50       	subi	r18, 0x02	; 2
    2afe:	31 09       	sbc	r19, r1
    2b00:	e2 17       	cp	r30, r18
    2b02:	f3 07       	cpc	r31, r19
    2b04:	08 f4       	brcc	.+2      	;  0x2b08
    2b06:	9d c0       	rjmp	.+314    	;  0x2c42              ; Relative jump
    2b08:	d9 01       	movw	r26, r18
    2b0a:	cd 91       	ld	r28, X+
    2b0c:	dc 91       	ld	r29, X
    2b0e:	11 97       	sbiw	r26, 0x01	; 1
    2b10:	c6 17       	cp	r28, r22
    2b12:	d7 07       	cpc	r29, r23
    2b14:	98 f0       	brcs	.+38     	;  0x2b3c
    2b16:	c5 30       	cpi	r28, 0x05	; 5                     ; Compare with immediate
    2b18:	d1 05       	cpc	r29, r1
    2b1a:	30 f3       	brcs	.-52     	;  0x2ae8
    2b1c:	ce 01       	movw	r24, r28
    2b1e:	04 97       	sbiw	r24, 0x04	; 4
    2b20:	86 17       	cp	r24, r22
    2b22:	97 07       	cpc	r25, r23
    2b24:	08 f3       	brcs	.-62     	;  0x2ae8
    2b26:	c6 1b       	sub	r28, r22
    2b28:	d7 0b       	sbc	r29, r23
    2b2a:	22 97       	sbiw	r28, 0x02	; 2
    2b2c:	c1 93       	st	Z+, r28
    2b2e:	d1 93       	st	Z+, r29
    2b30:	6d 93       	st	X+, r22
    2b32:	7c 93       	st	X, r23
    2b34:	cf 01       	movw	r24, r30
    2b36:	0e 94 de 14 	call	0x29bc	;  0x29bc                 ; Function call
    2b3a:	d6 cf       	rjmp	.-84     	;  0x2ae8              ; Relative jump
    2b3c:	5b 01       	movw	r10, r22
    2b3e:	ac 1a       	sub	r10, r28
    2b40:	bd 0a       	sbc	r11, r29
    2b42:	4c 01       	movw	r8, r24
    2b44:	8c 0e       	add	r8, r28
    2b46:	9d 1e       	adc	r9, r29
    2b48:	a0 91 46 03 	lds	r26, 0x0346	;  0x800346           ; Load from data space
    2b4c:	b0 91 47 03 	lds	r27, 0x0347	;  0x800347           ; Load from data space
    2b50:	51 2c       	mov	r5, r1                            ; Move register to register
    2b52:	41 2c       	mov	r4, r1                            ; Move register to register
    2b54:	f1 2c       	mov	r15, r1                           ; Move register to register
    2b56:	e1 2c       	mov	r14, r1                           ; Move register to register
    2b58:	10 97       	sbiw	r26, 0x00	; 0
    2b5a:	31 f5       	brne	.+76     	;  0x2ba8              ; Branch if not equal
    2b5c:	80 91 44 03 	lds	r24, 0x0344	;  0x800344           ; Load from data space
    2b60:	90 91 45 03 	lds	r25, 0x0345	;  0x800345           ; Load from data space
    2b64:	88 15       	cp	r24, r8
    2b66:	99 05       	cpc	r25, r9
    2b68:	09 f0       	breq	.+2      	;  0x2b6c              ; Branch if equal
    2b6a:	5c c0       	rjmp	.+184    	;  0x2c24              ; Relative jump
    2b6c:	46 16       	cp	r4, r22
    2b6e:	57 06       	cpc	r5, r23
    2b70:	08 f0       	brcs	.+2      	;  0x2b74
    2b72:	58 c0       	rjmp	.+176    	;  0x2c24              ; Relative jump
    2b74:	80 91 0c 01 	lds	r24, 0x010C	;  0x80010c           ; Load from data space
    2b78:	90 91 0d 01 	lds	r25, 0x010D	;  0x80010d           ; Load from data space
    2b7c:	00 97       	sbiw	r24, 0x00	; 0
    2b7e:	41 f4       	brne	.+16     	;  0x2b90              ; Branch if not equal
    2b80:	8d b7       	in	r24, 0x3d	; 61                     ; Input from I/O port
    2b82:	9e b7       	in	r25, 0x3e	; 62                     ; Input from I/O port
    2b84:	40 91 10 01 	lds	r20, 0x0110	;  0x800110           ; Load from data space
    2b88:	50 91 11 01 	lds	r21, 0x0111	;  0x800111           ; Load from data space
    2b8c:	84 1b       	sub	r24, r20
    2b8e:	95 0b       	sbc	r25, r21
    2b90:	e8 17       	cp	r30, r24
    2b92:	f9 07       	cpc	r31, r25
    2b94:	08 f0       	brcs	.+2      	;  0x2b98
    2b96:	55 c0       	rjmp	.+170    	;  0x2c42              ; Relative jump
    2b98:	f0 93 45 03 	sts	0x0345, r31	;  0x800345           ; Store to data space
    2b9c:	e0 93 44 03 	sts	0x0344, r30	;  0x800344           ; Store to data space
    2ba0:	f9 01       	movw	r30, r18
    2ba2:	71 83       	std	Z+1, r23	; 0x01
    2ba4:	60 83       	st	Z, r22
    2ba6:	a0 cf       	rjmp	.-192    	;  0x2ae8              ; Relative jump
    2ba8:	8d 91       	ld	r24, X+
    2baa:	9c 91       	ld	r25, X
    2bac:	11 97       	sbiw	r26, 0x01	; 1
    2bae:	12 96       	adiw	r26, 0x02	; 2
    2bb0:	6c 90       	ld	r6, X
    2bb2:	12 97       	sbiw	r26, 0x02	; 2
    2bb4:	13 96       	adiw	r26, 0x03	; 3
    2bb6:	7c 90       	ld	r7, X
    2bb8:	13 97       	sbiw	r26, 0x03	; 3
    2bba:	a8 15       	cp	r26, r8
    2bbc:	b9 05       	cpc	r27, r9
    2bbe:	59 f5       	brne	.+86     	;  0x2c16              ; Branch if not equal
    2bc0:	6c 01       	movw	r12, r24
    2bc2:	42 e0       	ldi	r20, 0x02	; 2                     ; Load immediate value
    2bc4:	c4 0e       	add	r12, r20
    2bc6:	d1 1c       	adc	r13, r1
    2bc8:	ca 14       	cp	r12, r10
    2bca:	db 04       	cpc	r13, r11
    2bcc:	20 f1       	brcs	.+72     	;  0x2c16
    2bce:	ac 01       	movw	r20, r24
    2bd0:	4a 19       	sub	r20, r10
    2bd2:	5b 09       	sbc	r21, r11
    2bd4:	da 01       	movw	r26, r20
    2bd6:	12 96       	adiw	r26, 0x02	; 2
    2bd8:	15 97       	sbiw	r26, 0x05	; 5
    2bda:	80 f0       	brcs	.+32     	;  0x2bfc
    2bdc:	62 82       	std	Z+2, r6	; 0x02
    2bde:	73 82       	std	Z+3, r7	; 0x03
    2be0:	51 83       	std	Z+1, r21	; 0x01
    2be2:	40 83       	st	Z, r20
    2be4:	d9 01       	movw	r26, r18
    2be6:	6d 93       	st	X+, r22
    2be8:	7c 93       	st	X, r23
    2bea:	e1 14       	cp	r14, r1
    2bec:	f1 04       	cpc	r15, r1
    2bee:	71 f0       	breq	.+28     	;  0x2c0c              ; Branch if equal
    2bf0:	d7 01       	movw	r26, r14
    2bf2:	13 96       	adiw	r26, 0x03	; 3
    2bf4:	fc 93       	st	X, r31
    2bf6:	ee 93       	st	-X, r30
    2bf8:	12 97       	sbiw	r26, 0x02	; 2
    2bfa:	76 cf       	rjmp	.-276    	;  0x2ae8              ; Relative jump
    2bfc:	22 96       	adiw	r28, 0x02	; 2
    2bfe:	8c 0f       	add	r24, r28
    2c00:	9d 1f       	adc	r25, r29
    2c02:	f9 01       	movw	r30, r18
    2c04:	91 83       	std	Z+1, r25	; 0x01
    2c06:	80 83       	st	Z, r24
    2c08:	f3 01       	movw	r30, r6
    2c0a:	ef cf       	rjmp	.-34     	;  0x2bea              ; Relative jump
    2c0c:	f0 93 47 03 	sts	0x0347, r31	;  0x800347           ; Store to data space
    2c10:	e0 93 46 03 	sts	0x0346, r30	;  0x800346           ; Store to data space
    2c14:	69 cf       	rjmp	.-302    	;  0x2ae8              ; Relative jump
    2c16:	48 16       	cp	r4, r24
    2c18:	59 06       	cpc	r5, r25
    2c1a:	08 f4       	brcc	.+2      	;  0x2c1e
    2c1c:	2c 01       	movw	r4, r24
    2c1e:	7d 01       	movw	r14, r26
    2c20:	d3 01       	movw	r26, r6
    2c22:	9a cf       	rjmp	.-204    	;  0x2b58              ; Relative jump
    2c24:	cb 01       	movw	r24, r22
    2c26:	0e 94 42 14 	call	0x2884	;  0x2884                 ; Function call
    2c2a:	7c 01       	movw	r14, r24
    2c2c:	00 97       	sbiw	r24, 0x00	; 0
    2c2e:	49 f0       	breq	.+18     	;  0x2c42              ; Branch if equal
    2c30:	ae 01       	movw	r20, r28
    2c32:	b8 01       	movw	r22, r16
    2c34:	0e 94 24 16 	call	0x2c48	;  0x2c48                 ; Function call
    2c38:	c8 01       	movw	r24, r16
    2c3a:	0e 94 de 14 	call	0x29bc	;  0x29bc                 ; Function call
    2c3e:	87 01       	movw	r16, r14
    2c40:	53 cf       	rjmp	.-346    	;  0x2ae8              ; Relative jump
    2c42:	10 e0       	ldi	r17, 0x00	; 0                     ; Load immediate value
    2c44:	00 e0       	ldi	r16, 0x00	; 0                     ; Load immediate value
    2c46:	50 cf       	rjmp	.-352    	;  0x2ae8              ; Relative jump
    2c48:	fb 01       	movw	r30, r22
    2c4a:	dc 01       	movw	r26, r24
    2c4c:	02 c0       	rjmp	.+4      	;  0x2c52              ; Relative jump
    2c4e:	01 90       	ld	r0, Z+
    2c50:	0d 92       	st	X+, r0
    2c52:	41 50       	subi	r20, 0x01	; 1
    2c54:	50 40       	sbci	r21, 0x00	; 0
    2c56:	d8 f7       	brcc	.-10     	;  0x2c4e
    2c58:	08 95       	ret
    2c5a:	fb 01       	movw	r30, r22
    2c5c:	dc 01       	movw	r26, r24
    2c5e:	01 90       	ld	r0, Z+
    2c60:	0d 92       	st	X+, r0
    2c62:	00 20       	and	r0, r0
    2c64:	e1 f7       	brne	.-8      	;  0x2c5e              ; Branch if not equal
    2c66:	08 95       	ret
    2c68:	fb 01       	movw	r30, r22
    2c6a:	dc 01       	movw	r26, r24
    2c6c:	41 50       	subi	r20, 0x01	; 1
    2c6e:	50 40       	sbci	r21, 0x00	; 0
    2c70:	48 f0       	brcs	.+18     	;  0x2c84
    2c72:	01 90       	ld	r0, Z+
    2c74:	0d 92       	st	X+, r0
    2c76:	00 20       	and	r0, r0
    2c78:	c9 f7       	brne	.-14     	;  0x2c6c              ; Branch if not equal
    2c7a:	01 c0       	rjmp	.+2      	;  0x2c7e              ; Relative jump
    2c7c:	1d 92       	st	X+, r1
    2c7e:	41 50       	subi	r20, 0x01	; 1
    2c80:	50 40       	sbci	r21, 0x00	; 0
    2c82:	e0 f7       	brcc	.-8      	;  0x2c7c
    2c84:	08 95       	ret
    2c86:	f8 94       	cli
    2c88:	ff cf       	rjmp	.-2      	;  0x2c88              ; Relative jump
    2c8a:	ff ff       	.word	0xffff	; ????
    2c8c:	ff ff       	.word	0xffff	; ????
    2c8e:	00 e1       	ldi	r16, 0x10	; 16                    ; Load immediate value
	...
    2c98:	48 03       	fmul	r20, r16
    2c9a:	80 00       	.word	0x0080	; ????
    2c9c:	ac 00       	.word	0x00ac	; ????
    2c9e:	41 01       	movw	r8, r2
    2ca0:	43 02       	muls	r20, r19
    2ca2:	9f 03       	fmulsu	r17, r23
    2ca4:	50 05       	cpc	r21, r0
    2ca6:	42 07       	cpc	r20, r18
    2ca8:	56 09       	sbc	r21, r6
    2caa:	64 0b       	sbc	r22, r20
    2cac:	3f 0d       	add	r19, r15
    2cae:	b8 0e       	add	r11, r24
    2cb0:	ac 0f       	add	r26, r28
    2cb2:	00 10       	cpse	r0, r0
    2cb4:	00 c1       	rjmp	.+512    	;  0x2eb6              ; Relative jump
    2cb6:	80 81       	ld	r24, Z
    2cb8:	00 00       	nop
    2cba:	00 30       	cpi	r16, 0x00	; 0                     ; Compare with immediate
    2cbc:	30 30       	cpi	r19, 0x00	; 0                     ; Compare with immediate
    2cbe:	30 31       	cpi	r19, 0x10	; 16                    ; Compare with immediate
    2cc0:	00 00       	nop
    2cc2:	00 00       	nop
    2cc4:	00 69       	ori	r16, 0x90	; 144
    2cc6:	01 99       	sbic	0x00, 1	; 0
    2cc8:	03 8a       	std	Z+19, r0	; 0x13
    2cca:	01 7f       	andi	r16, 0xF1	; 241
    2ccc:	01 d0       	rcall	.+2      	;  0x2cd0
    2cce:	01 8e       	std	Z+25, r0	; 0x19
    2cd0:	01 ac       	ldd	r0, Z+57	; 0x39
    2cd2:	01 00       	.word	0x0001	; ????
    2cd4:	00 00       	nop
    2cd6:	00 cf       	rjmp	.-512    	;  0x2ad8              ; Relative jump
    2cd8:	06 a2       	std	Z+38, r0	; 0x26
    2cda:	06 fe       	sbrs	r0, 6
    2cdc:	06 78       	andi	r16, 0x86	; 134
    2cde:	06 9b       	sbis	0x00, 6	; 0
    2ce0:	06 88       	ldd	r0, Z+22	; 0x16
    2ce2:	06 79       	andi	r16, 0x96	; 150
    2ce4:	06 00       	.word	0x0006	; ????
    2ce6:	ff ff       	.word	0xffff	; ????
    2ce8:	ff ff       	.word	0xffff	; ????
    2cea:	ff ff       	.word	0xffff	; ????
    2cec:	ff ff       	.word	0xffff	; ????
    2cee:	ff ff       	.word	0xffff	; ????
    2cf0:	ff ff       	.word	0xffff	; ????
    2cf2:	ff ff       	.word	0xffff	; ????
    2cf4:	ff ff       	.word	0xffff	; ????
    2cf6:	ff ff       	.word	0xffff	; ????
    2cf8:	ff ff       	.word	0xffff	; ????
    2cfa:	ff ff       	.word	0xffff	; ????
    2cfc:	ff ff       	.word	0xffff	; ????
    2cfe:	ff ff       	.word	0xffff	; ????
    2d00:	0e 94 01 18 	call	0x3002	;  0x3002                 ; Function call
    2d04:	20 f0       	brcs	.+8      	;  0x2d0e
    2d06:	39 f4       	brne	.+14     	;  0x2d16              ; Branch if not equal
    2d08:	9f 3f       	cpi	r25, 0xFF	; 255                   ; Compare with immediate
    2d0a:	19 f4       	brne	.+6      	;  0x2d12              ; Branch if not equal
    2d0c:	26 f4       	brtc	.+8      	;  0x2d16
    2d0e:	0c 94 f7 17 	jmp	0x2fee	;  0x2fee                  ; Jump
    2d12:	0e f4       	brtc	.+2      	;  0x2d16
    2d14:	e0 95       	com	r30
    2d16:	e7 fb       	bst	r30, 7
    2d18:	0c 94 f1 17 	jmp	0x2fe2	;  0x2fe2                  ; Jump
    2d1c:	e9 2f       	mov	r30, r25                          ; Move register to register
    2d1e:	0e 94 19 18 	call	0x3032	;  0x3032                 ; Function call
    2d22:	58 f3       	brcs	.-42     	;  0x2cfa
    2d24:	ba 17       	cp	r27, r26
    2d26:	62 07       	cpc	r22, r18
    2d28:	73 07       	cpc	r23, r19
    2d2a:	84 07       	cpc	r24, r20
    2d2c:	95 07       	cpc	r25, r21
    2d2e:	20 f0       	brcs	.+8      	;  0x2d38
    2d30:	79 f4       	brne	.+30     	;  0x2d50              ; Branch if not equal
    2d32:	a6 f5       	brtc	.+104    	;  0x2d9c
    2d34:	0c 94 3b 18 	jmp	0x3076	;  0x3076                  ; Jump
    2d38:	0e f4       	brtc	.+2      	;  0x2d3c
    2d3a:	e0 95       	com	r30
    2d3c:	0b 2e       	mov	r0, r27                           ; Move register to register
    2d3e:	ba 2f       	mov	r27, r26                          ; Move register to register
    2d40:	a0 2d       	mov	r26, r0                           ; Move register to register
    2d42:	0b 01       	movw	r0, r22
    2d44:	b9 01       	movw	r22, r18
    2d46:	90 01       	movw	r18, r0
    2d48:	0c 01       	movw	r0, r24
    2d4a:	ca 01       	movw	r24, r20
    2d4c:	a0 01       	movw	r20, r0
    2d4e:	11 24       	eor	r1, r1
    2d50:	ff 27       	eor	r31, r31
    2d52:	59 1b       	sub	r21, r25
    2d54:	99 f0       	breq	.+38     	;  0x2d7c              ; Branch if equal
    2d56:	59 3f       	cpi	r21, 0xF9	; 249                   ; Compare with immediate
    2d58:	50 f4       	brcc	.+20     	;  0x2d6e
    2d5a:	50 3e       	cpi	r21, 0xE0	; 224                   ; Compare with immediate
    2d5c:	68 f1       	brcs	.+90     	;  0x2db8
    2d5e:	1a 16       	cp	r1, r26
    2d60:	f0 40       	sbci	r31, 0x00	; 0
    2d62:	a2 2f       	mov	r26, r18                          ; Move register to register
    2d64:	23 2f       	mov	r18, r19                          ; Move register to register
    2d66:	34 2f       	mov	r19, r20                          ; Move register to register
    2d68:	44 27       	eor	r20, r20
    2d6a:	58 5f       	subi	r21, 0xF8	; 248
    2d6c:	f3 cf       	rjmp	.-26     	;  0x2d54              ; Relative jump
    2d6e:	46 95       	lsr	r20
    2d70:	37 95       	ror	r19
    2d72:	27 95       	ror	r18
    2d74:	a7 95       	ror	r26
    2d76:	f0 40       	sbci	r31, 0x00	; 0
    2d78:	53 95       	inc	r21
    2d7a:	c9 f7       	brne	.-14     	;  0x2d6e              ; Branch if not equal
    2d7c:	7e f4       	brtc	.+30     	;  0x2d9c
    2d7e:	1f 16       	cp	r1, r31
    2d80:	ba 0b       	sbc	r27, r26
    2d82:	62 0b       	sbc	r22, r18
    2d84:	73 0b       	sbc	r23, r19
    2d86:	84 0b       	sbc	r24, r20
    2d88:	ba f0       	brmi	.+46     	;  0x2db8
    2d8a:	91 50       	subi	r25, 0x01	; 1
    2d8c:	a1 f0       	breq	.+40     	;  0x2db6              ; Branch if equal
    2d8e:	ff 0f       	add	r31, r31
    2d90:	bb 1f       	adc	r27, r27
    2d92:	66 1f       	adc	r22, r22
    2d94:	77 1f       	adc	r23, r23
    2d96:	88 1f       	adc	r24, r24
    2d98:	c2 f7       	brpl	.-16     	;  0x2d8a
    2d9a:	0e c0       	rjmp	.+28     	;  0x2db8              ; Relative jump
    2d9c:	ba 0f       	add	r27, r26
    2d9e:	62 1f       	adc	r22, r18
    2da0:	73 1f       	adc	r23, r19
    2da2:	84 1f       	adc	r24, r20
    2da4:	48 f4       	brcc	.+18     	;  0x2db8
    2da6:	87 95       	ror	r24
    2da8:	77 95       	ror	r23
    2daa:	67 95       	ror	r22
    2dac:	b7 95       	ror	r27
    2dae:	f7 95       	ror	r31
    2db0:	9e 3f       	cpi	r25, 0xFE	; 254                   ; Compare with immediate
    2db2:	08 f0       	brcs	.+2      	;  0x2db6
    2db4:	b0 cf       	rjmp	.-160    	;  0x2d16              ; Relative jump
    2db6:	93 95       	inc	r25
    2db8:	88 0f       	add	r24, r24
    2dba:	08 f0       	brcs	.+2      	;  0x2dbe
    2dbc:	99 27       	eor	r25, r25
    2dbe:	ee 0f       	add	r30, r30
    2dc0:	97 95       	ror	r25
    2dc2:	87 95       	ror	r24
    2dc4:	08 95       	ret
    2dc6:	0e 94 cd 17 	call	0x2f9a	;  0x2f9a                 ; Function call
    2dca:	08 f4       	brcc	.+2      	;  0x2dce
    2dcc:	81 e0       	ldi	r24, 0x01	; 1                     ; Load immediate value
    2dce:	08 95       	ret
    2dd0:	0e 94 fc 16 	call	0x2df8	;  0x2df8                 ; Function call
    2dd4:	0c 94 08 18 	jmp	0x3010	;  0x3010                  ; Jump
    2dd8:	0e 94 01 18 	call	0x3002	;  0x3002                 ; Function call
    2ddc:	58 f0       	brcs	.+22     	;  0x2df4
    2dde:	0e 94 fa 17 	call	0x2ff4	;  0x2ff4                 ; Function call
    2de2:	40 f0       	brcs	.+16     	;  0x2df4
    2de4:	29 f4       	brne	.+10     	;  0x2df0              ; Branch if not equal
    2de6:	5f 3f       	cpi	r21, 0xFF	; 255                   ; Compare with immediate
    2de8:	29 f0       	breq	.+10     	;  0x2df4              ; Branch if equal
    2dea:	0c 94 f1 17 	jmp	0x2fe2	;  0x2fe2                  ; Jump
    2dee:	51 11       	cpse	r21, r1
    2df0:	0c 94 3c 18 	jmp	0x3078	;  0x3078                  ; Jump
    2df4:	0c 94 f7 17 	jmp	0x2fee	;  0x2fee                  ; Jump
    2df8:	0e 94 19 18 	call	0x3032	;  0x3032                 ; Function call
    2dfc:	68 f3       	brcs	.-38     	;  0x2dd8
    2dfe:	99 23       	and	r25, r25
    2e00:	b1 f3       	breq	.-20     	;  0x2dee              ; Branch if equal
    2e02:	55 23       	and	r21, r21
    2e04:	91 f3       	breq	.-28     	;  0x2dea              ; Branch if equal
    2e06:	95 1b       	sub	r25, r21
    2e08:	55 0b       	sbc	r21, r21
    2e0a:	bb 27       	eor	r27, r27
    2e0c:	aa 27       	eor	r26, r26
    2e0e:	62 17       	cp	r22, r18
    2e10:	73 07       	cpc	r23, r19
    2e12:	84 07       	cpc	r24, r20
    2e14:	38 f0       	brcs	.+14     	;  0x2e24
    2e16:	9f 5f       	subi	r25, 0xFF	; 255
    2e18:	5f 4f       	sbci	r21, 0xFF	; 255
    2e1a:	22 0f       	add	r18, r18
    2e1c:	33 1f       	adc	r19, r19
    2e1e:	44 1f       	adc	r20, r20
    2e20:	aa 1f       	adc	r26, r26
    2e22:	a9 f3       	breq	.-22     	;  0x2e0e              ; Branch if equal
    2e24:	35 d0       	rcall	.+106    	;  0x2e90
    2e26:	0e 2e       	mov	r0, r30                           ; Move register to register
    2e28:	3a f0       	brmi	.+14     	;  0x2e38
    2e2a:	e0 e8       	ldi	r30, 0x80	; 128                   ; Load immediate value
    2e2c:	32 d0       	rcall	.+100    	;  0x2e92
    2e2e:	91 50       	subi	r25, 0x01	; 1
    2e30:	50 40       	sbci	r21, 0x00	; 0
    2e32:	e6 95       	lsr	r30
    2e34:	00 1c       	adc	r0, r0
    2e36:	ca f7       	brpl	.-14     	;  0x2e2a
    2e38:	2b d0       	rcall	.+86     	;  0x2e90
    2e3a:	fe 2f       	mov	r31, r30                          ; Move register to register
    2e3c:	29 d0       	rcall	.+82     	;  0x2e90
    2e3e:	66 0f       	add	r22, r22
    2e40:	77 1f       	adc	r23, r23
    2e42:	88 1f       	adc	r24, r24
    2e44:	bb 1f       	adc	r27, r27
    2e46:	26 17       	cp	r18, r22
    2e48:	37 07       	cpc	r19, r23
    2e4a:	48 07       	cpc	r20, r24
    2e4c:	ab 07       	cpc	r26, r27
    2e4e:	b0 e8       	ldi	r27, 0x80	; 128                   ; Load immediate value
    2e50:	09 f0       	breq	.+2      	;  0x2e54              ; Branch if equal
    2e52:	bb 0b       	sbc	r27, r27
    2e54:	80 2d       	mov	r24, r0                           ; Move register to register
    2e56:	bf 01       	movw	r22, r30
    2e58:	ff 27       	eor	r31, r31
    2e5a:	93 58       	subi	r25, 0x83	; 131
    2e5c:	5f 4f       	sbci	r21, 0xFF	; 255
    2e5e:	3a f0       	brmi	.+14     	;  0x2e6e
    2e60:	9e 3f       	cpi	r25, 0xFE	; 254                   ; Compare with immediate
    2e62:	51 05       	cpc	r21, r1
    2e64:	78 f0       	brcs	.+30     	;  0x2e84
    2e66:	0c 94 f1 17 	jmp	0x2fe2	;  0x2fe2                  ; Jump
    2e6a:	0c 94 3c 18 	jmp	0x3078	;  0x3078                  ; Jump
    2e6e:	5f 3f       	cpi	r21, 0xFF	; 255                   ; Compare with immediate
    2e70:	e4 f3       	brlt	.-8      	;  0x2e6a
    2e72:	98 3e       	cpi	r25, 0xE8	; 232                   ; Compare with immediate
    2e74:	d4 f3       	brlt	.-12     	;  0x2e6a
    2e76:	86 95       	lsr	r24
    2e78:	77 95       	ror	r23
    2e7a:	67 95       	ror	r22
    2e7c:	b7 95       	ror	r27
    2e7e:	f7 95       	ror	r31
    2e80:	9f 5f       	subi	r25, 0xFF	; 255
    2e82:	c9 f7       	brne	.-14     	;  0x2e76              ; Branch if not equal
    2e84:	88 0f       	add	r24, r24
    2e86:	91 1d       	adc	r25, r1
    2e88:	96 95       	lsr	r25
    2e8a:	87 95       	ror	r24
    2e8c:	97 f9       	bld	r25, 7
    2e8e:	08 95       	ret
    2e90:	e1 e0       	ldi	r30, 0x01	; 1                     ; Load immediate value
    2e92:	66 0f       	add	r22, r22
    2e94:	77 1f       	adc	r23, r23
    2e96:	88 1f       	adc	r24, r24
    2e98:	bb 1f       	adc	r27, r27
    2e9a:	62 17       	cp	r22, r18
    2e9c:	73 07       	cpc	r23, r19
    2e9e:	84 07       	cpc	r24, r20
    2ea0:	ba 07       	cpc	r27, r26
    2ea2:	20 f0       	brcs	.+8      	;  0x2eac
    2ea4:	62 1b       	sub	r22, r18
    2ea6:	73 0b       	sbc	r23, r19
    2ea8:	84 0b       	sbc	r24, r20
    2eaa:	ba 0b       	sbc	r27, r26
    2eac:	ee 1f       	adc	r30, r30
    2eae:	88 f7       	brcc	.-30     	;  0x2e92
    2eb0:	e0 95       	com	r30
    2eb2:	08 95       	ret
    2eb4:	0e 94 61 17 	call	0x2ec2	;  0x2ec2                 ; Function call
    2eb8:	68 94       	set
    2eba:	b1 11       	cpse	r27, r1
    2ebc:	0c 94 3c 18 	jmp	0x3078	;  0x3078                  ; Jump
    2ec0:	08 95       	ret
    2ec2:	0e 94 21 18 	call	0x3042	;  0x3042                 ; Function call
    2ec6:	88 f0       	brcs	.+34     	;  0x2eea
    2ec8:	9f 57       	subi	r25, 0x7F	; 127
    2eca:	98 f0       	brcs	.+38     	;  0x2ef2
    2ecc:	b9 2f       	mov	r27, r25                          ; Move register to register
    2ece:	99 27       	eor	r25, r25
    2ed0:	b7 51       	subi	r27, 0x17	; 23
    2ed2:	b0 f0       	brcs	.+44     	;  0x2f00
    2ed4:	e1 f0       	breq	.+56     	;  0x2f0e              ; Branch if equal
    2ed6:	66 0f       	add	r22, r22
    2ed8:	77 1f       	adc	r23, r23
    2eda:	88 1f       	adc	r24, r24
    2edc:	99 1f       	adc	r25, r25
    2ede:	1a f0       	brmi	.+6      	;  0x2ee6
    2ee0:	ba 95       	dec	r27
    2ee2:	c9 f7       	brne	.-14     	;  0x2ed6              ; Branch if not equal
    2ee4:	14 c0       	rjmp	.+40     	;  0x2f0e              ; Relative jump
    2ee6:	b1 30       	cpi	r27, 0x01	; 1                     ; Compare with immediate
    2ee8:	91 f0       	breq	.+36     	;  0x2f0e              ; Branch if equal
    2eea:	0e 94 3b 18 	call	0x3076	;  0x3076                 ; Function call
    2eee:	b1 e0       	ldi	r27, 0x01	; 1                     ; Load immediate value
    2ef0:	08 95       	ret
    2ef2:	0c 94 3b 18 	jmp	0x3076	;  0x3076                  ; Jump
    2ef6:	67 2f       	mov	r22, r23                          ; Move register to register
    2ef8:	78 2f       	mov	r23, r24                          ; Move register to register
    2efa:	88 27       	eor	r24, r24
    2efc:	b8 5f       	subi	r27, 0xF8	; 248
    2efe:	39 f0       	breq	.+14     	;  0x2f0e              ; Branch if equal
    2f00:	b9 3f       	cpi	r27, 0xF9	; 249                   ; Compare with immediate
    2f02:	cc f3       	brlt	.-14     	;  0x2ef6
    2f04:	86 95       	lsr	r24
    2f06:	77 95       	ror	r23
    2f08:	67 95       	ror	r22
    2f0a:	b3 95       	inc	r27
    2f0c:	d9 f7       	brne	.-10     	;  0x2f04              ; Branch if not equal
    2f0e:	3e f4       	brtc	.+14     	;  0x2f1e
    2f10:	90 95       	com	r25
    2f12:	80 95       	com	r24
    2f14:	70 95       	com	r23
    2f16:	61 95       	neg	r22
    2f18:	7f 4f       	sbci	r23, 0xFF	; 255
    2f1a:	8f 4f       	sbci	r24, 0xFF	; 255
    2f1c:	9f 4f       	sbci	r25, 0xFF	; 255
    2f1e:	08 95       	ret
    2f20:	e8 94       	clt
    2f22:	09 c0       	rjmp	.+18     	;  0x2f36              ; Relative jump
    2f24:	97 fb       	bst	r25, 7
    2f26:	3e f4       	brtc	.+14     	;  0x2f36
    2f28:	90 95       	com	r25
    2f2a:	80 95       	com	r24
    2f2c:	70 95       	com	r23
    2f2e:	61 95       	neg	r22
    2f30:	7f 4f       	sbci	r23, 0xFF	; 255
    2f32:	8f 4f       	sbci	r24, 0xFF	; 255
    2f34:	9f 4f       	sbci	r25, 0xFF	; 255
    2f36:	99 23       	and	r25, r25
    2f38:	a9 f0       	breq	.+42     	;  0x2f64              ; Branch if equal
    2f3a:	f9 2f       	mov	r31, r25                          ; Move register to register
    2f3c:	96 e9       	ldi	r25, 0x96	; 150                   ; Load immediate value
    2f3e:	bb 27       	eor	r27, r27
    2f40:	93 95       	inc	r25
    2f42:	f6 95       	lsr	r31
    2f44:	87 95       	ror	r24
    2f46:	77 95       	ror	r23
    2f48:	67 95       	ror	r22
    2f4a:	b7 95       	ror	r27
    2f4c:	f1 11       	cpse	r31, r1
    2f4e:	f8 cf       	rjmp	.-16     	;  0x2f40              ; Relative jump
    2f50:	fa f4       	brpl	.+62     	;  0x2f90
    2f52:	bb 0f       	add	r27, r27
    2f54:	11 f4       	brne	.+4      	;  0x2f5a              ; Branch if not equal
    2f56:	60 ff       	sbrs	r22, 0
    2f58:	1b c0       	rjmp	.+54     	;  0x2f90              ; Relative jump
    2f5a:	6f 5f       	subi	r22, 0xFF	; 255
    2f5c:	7f 4f       	sbci	r23, 0xFF	; 255
    2f5e:	8f 4f       	sbci	r24, 0xFF	; 255
    2f60:	9f 4f       	sbci	r25, 0xFF	; 255
    2f62:	16 c0       	rjmp	.+44     	;  0x2f90              ; Relative jump
    2f64:	88 23       	and	r24, r24
    2f66:	11 f0       	breq	.+4      	;  0x2f6c              ; Branch if equal
    2f68:	96 e9       	ldi	r25, 0x96	; 150                   ; Load immediate value
    2f6a:	11 c0       	rjmp	.+34     	;  0x2f8e              ; Relative jump
    2f6c:	77 23       	and	r23, r23
    2f6e:	21 f0       	breq	.+8      	;  0x2f78              ; Branch if equal
    2f70:	9e e8       	ldi	r25, 0x8E	; 142                   ; Load immediate value
    2f72:	87 2f       	mov	r24, r23                          ; Move register to register
    2f74:	76 2f       	mov	r23, r22                          ; Move register to register
    2f76:	05 c0       	rjmp	.+10     	;  0x2f82              ; Relative jump
    2f78:	66 23       	and	r22, r22
    2f7a:	71 f0       	breq	.+28     	;  0x2f98              ; Branch if equal
    2f7c:	96 e8       	ldi	r25, 0x86	; 134                   ; Load immediate value
    2f7e:	86 2f       	mov	r24, r22                          ; Move register to register
    2f80:	70 e0       	ldi	r23, 0x00	; 0                     ; Load immediate value
    2f82:	60 e0       	ldi	r22, 0x00	; 0                     ; Load immediate value
    2f84:	2a f0       	brmi	.+10     	;  0x2f90
    2f86:	9a 95       	dec	r25
    2f88:	66 0f       	add	r22, r22
    2f8a:	77 1f       	adc	r23, r23
    2f8c:	88 1f       	adc	r24, r24
    2f8e:	da f7       	brpl	.-10     	;  0x2f86
    2f90:	88 0f       	add	r24, r24
    2f92:	96 95       	lsr	r25
    2f94:	87 95       	ror	r24
    2f96:	97 f9       	bld	r25, 7
    2f98:	08 95       	ret
    2f9a:	99 0f       	add	r25, r25
    2f9c:	00 08       	sbc	r0, r0
    2f9e:	55 0f       	add	r21, r21
    2fa0:	aa 0b       	sbc	r26, r26
    2fa2:	e0 e8       	ldi	r30, 0x80	; 128                   ; Load immediate value
    2fa4:	fe ef       	ldi	r31, 0xFE	; 254                   ; Load immediate value
    2fa6:	16 16       	cp	r1, r22
    2fa8:	17 06       	cpc	r1, r23
    2faa:	e8 07       	cpc	r30, r24
    2fac:	f9 07       	cpc	r31, r25
    2fae:	c0 f0       	brcs	.+48     	;  0x2fe0
    2fb0:	12 16       	cp	r1, r18
    2fb2:	13 06       	cpc	r1, r19
    2fb4:	e4 07       	cpc	r30, r20
    2fb6:	f5 07       	cpc	r31, r21
    2fb8:	98 f0       	brcs	.+38     	;  0x2fe0
    2fba:	62 1b       	sub	r22, r18
    2fbc:	73 0b       	sbc	r23, r19
    2fbe:	84 0b       	sbc	r24, r20
    2fc0:	95 0b       	sbc	r25, r21
    2fc2:	39 f4       	brne	.+14     	;  0x2fd2              ; Branch if not equal
    2fc4:	0a 26       	eor	r0, r26
    2fc6:	61 f0       	breq	.+24     	;  0x2fe0              ; Branch if equal
    2fc8:	23 2b       	or	r18, r19
    2fca:	24 2b       	or	r18, r20
    2fcc:	25 2b       	or	r18, r21
    2fce:	21 f4       	brne	.+8      	;  0x2fd8              ; Branch if not equal
    2fd0:	08 95       	ret
    2fd2:	0a 26       	eor	r0, r26
    2fd4:	09 f4       	brne	.+2      	;  0x2fd8              ; Branch if not equal
    2fd6:	a1 40       	sbci	r26, 0x01	; 1
    2fd8:	a6 95       	lsr	r26
    2fda:	8f ef       	ldi	r24, 0xFF	; 255                   ; Load immediate value
    2fdc:	81 1d       	adc	r24, r1
    2fde:	81 1d       	adc	r24, r1
    2fe0:	08 95       	ret
    2fe2:	97 f9       	bld	r25, 7
    2fe4:	9f 67       	ori	r25, 0x7F	; 127
    2fe6:	80 e8       	ldi	r24, 0x80	; 128                   ; Load immediate value
    2fe8:	70 e0       	ldi	r23, 0x00	; 0                     ; Load immediate value
    2fea:	60 e0       	ldi	r22, 0x00	; 0                     ; Load immediate value
    2fec:	08 95       	ret
    2fee:	9f ef       	ldi	r25, 0xFF	; 255                   ; Load immediate value
    2ff0:	80 ec       	ldi	r24, 0xC0	; 192                   ; Load immediate value
    2ff2:	08 95       	ret
    2ff4:	00 24       	eor	r0, r0
    2ff6:	0a 94       	dec	r0
    2ff8:	16 16       	cp	r1, r22
    2ffa:	17 06       	cpc	r1, r23
    2ffc:	18 06       	cpc	r1, r24
    2ffe:	09 06       	cpc	r0, r25
    3000:	08 95       	ret
    3002:	00 24       	eor	r0, r0
    3004:	0a 94       	dec	r0
    3006:	12 16       	cp	r1, r18
    3008:	13 06       	cpc	r1, r19
    300a:	14 06       	cpc	r1, r20
    300c:	05 06       	cpc	r0, r21
    300e:	08 95       	ret
    3010:	09 2e       	mov	r0, r25                           ; Move register to register
    3012:	03 94       	inc	r0
    3014:	00 0c       	add	r0, r0
    3016:	11 f4       	brne	.+4      	;  0x301c              ; Branch if not equal
    3018:	88 23       	and	r24, r24
    301a:	52 f0       	brmi	.+20     	;  0x3030
    301c:	bb 0f       	add	r27, r27
    301e:	40 f4       	brcc	.+16     	;  0x3030
    3020:	bf 2b       	or	r27, r31
    3022:	11 f4       	brne	.+4      	;  0x3028              ; Branch if not equal
    3024:	60 ff       	sbrs	r22, 0
    3026:	04 c0       	rjmp	.+8      	;  0x3030              ; Relative jump
    3028:	6f 5f       	subi	r22, 0xFF	; 255
    302a:	7f 4f       	sbci	r23, 0xFF	; 255
    302c:	8f 4f       	sbci	r24, 0xFF	; 255
    302e:	9f 4f       	sbci	r25, 0xFF	; 255
    3030:	08 95       	ret
    3032:	57 fd       	sbrc	r21, 7
    3034:	90 58       	subi	r25, 0x80	; 128
    3036:	44 0f       	add	r20, r20
    3038:	55 1f       	adc	r21, r21
    303a:	59 f0       	breq	.+22     	;  0x3052              ; Branch if equal
    303c:	5f 3f       	cpi	r21, 0xFF	; 255                   ; Compare with immediate
    303e:	71 f0       	breq	.+28     	;  0x305c              ; Branch if equal
    3040:	47 95       	ror	r20
    3042:	88 0f       	add	r24, r24
    3044:	97 fb       	bst	r25, 7
    3046:	99 1f       	adc	r25, r25
    3048:	61 f0       	breq	.+24     	;  0x3062              ; Branch if equal
    304a:	9f 3f       	cpi	r25, 0xFF	; 255                   ; Compare with immediate
    304c:	79 f0       	breq	.+30     	;  0x306c              ; Branch if equal
    304e:	87 95       	ror	r24
    3050:	08 95       	ret
    3052:	12 16       	cp	r1, r18
    3054:	13 06       	cpc	r1, r19
    3056:	14 06       	cpc	r1, r20
    3058:	55 1f       	adc	r21, r21
    305a:	f2 cf       	rjmp	.-28     	;  0x3040              ; Relative jump
    305c:	46 95       	lsr	r20
    305e:	f1 df       	rcall	.-30     	;  0x3042
    3060:	08 c0       	rjmp	.+16     	;  0x3072              ; Relative jump
    3062:	16 16       	cp	r1, r22
    3064:	17 06       	cpc	r1, r23
    3066:	18 06       	cpc	r1, r24
    3068:	99 1f       	adc	r25, r25
    306a:	f1 cf       	rjmp	.-30     	;  0x304e              ; Relative jump
    306c:	86 95       	lsr	r24
    306e:	71 05       	cpc	r23, r1
    3070:	61 05       	cpc	r22, r1
    3072:	08 94       	sec
    3074:	08 95       	ret
    3076:	e8 94       	clt
    3078:	bb 27       	eor	r27, r27
    307a:	66 27       	eor	r22, r22
    307c:	77 27       	eor	r23, r23
    307e:	cb 01       	movw	r24, r22
    3080:	97 f9       	bld	r25, 7
    3082:	08 95       	ret
    3084:	0e 94 cd 17 	call	0x2f9a	;  0x2f9a                 ; Function call
    3088:	08 f4       	brcc	.+2      	;  0x308c
    308a:	8f ef       	ldi	r24, 0xFF	; 255                   ; Load immediate value
    308c:	08 95       	ret
    308e:	0e 94 5a 18 	call	0x30b4	;  0x30b4                 ; Function call
    3092:	0c 94 08 18 	jmp	0x3010	;  0x3010                  ; Jump
    3096:	0e 94 fa 17 	call	0x2ff4	;  0x2ff4                 ; Function call
    309a:	38 f0       	brcs	.+14     	;  0x30aa
    309c:	0e 94 01 18 	call	0x3002	;  0x3002                 ; Function call
    30a0:	20 f0       	brcs	.+8      	;  0x30aa
    30a2:	95 23       	and	r25, r21
    30a4:	11 f0       	breq	.+4      	;  0x30aa              ; Branch if equal
    30a6:	0c 94 f1 17 	jmp	0x2fe2	;  0x2fe2                  ; Jump
    30aa:	0c 94 f7 17 	jmp	0x2fee	;  0x2fee                  ; Jump
    30ae:	11 24       	eor	r1, r1
    30b0:	0c 94 3c 18 	jmp	0x3078	;  0x3078                  ; Jump
    30b4:	0e 94 19 18 	call	0x3032	;  0x3032                 ; Function call
    30b8:	70 f3       	brcs	.-36     	;  0x3096
    30ba:	95 9f       	mul	r25, r21
    30bc:	c1 f3       	breq	.-16     	;  0x30ae              ; Branch if equal
    30be:	95 0f       	add	r25, r21
    30c0:	50 e0       	ldi	r21, 0x00	; 0                     ; Load immediate value
    30c2:	55 1f       	adc	r21, r21
    30c4:	62 9f       	mul	r22, r18
    30c6:	f0 01       	movw	r30, r0
    30c8:	72 9f       	mul	r23, r18
    30ca:	bb 27       	eor	r27, r27
    30cc:	f0 0d       	add	r31, r0
    30ce:	b1 1d       	adc	r27, r1
    30d0:	63 9f       	mul	r22, r19
    30d2:	aa 27       	eor	r26, r26
    30d4:	f0 0d       	add	r31, r0
    30d6:	b1 1d       	adc	r27, r1
    30d8:	aa 1f       	adc	r26, r26
    30da:	64 9f       	mul	r22, r20
    30dc:	66 27       	eor	r22, r22
    30de:	b0 0d       	add	r27, r0
    30e0:	a1 1d       	adc	r26, r1
    30e2:	66 1f       	adc	r22, r22
    30e4:	82 9f       	mul	r24, r18
    30e6:	22 27       	eor	r18, r18
    30e8:	b0 0d       	add	r27, r0
    30ea:	a1 1d       	adc	r26, r1
    30ec:	62 1f       	adc	r22, r18
    30ee:	73 9f       	mul	r23, r19
    30f0:	b0 0d       	add	r27, r0
    30f2:	a1 1d       	adc	r26, r1
    30f4:	62 1f       	adc	r22, r18
    30f6:	83 9f       	mul	r24, r19
    30f8:	a0 0d       	add	r26, r0
    30fa:	61 1d       	adc	r22, r1
    30fc:	22 1f       	adc	r18, r18
    30fe:	74 9f       	mul	r23, r20
    3100:	33 27       	eor	r19, r19
    3102:	a0 0d       	add	r26, r0
    3104:	61 1d       	adc	r22, r1
    3106:	23 1f       	adc	r18, r19
    3108:	84 9f       	mul	r24, r20
    310a:	60 0d       	add	r22, r0
    310c:	21 1d       	adc	r18, r1
    310e:	82 2f       	mov	r24, r18                          ; Move register to register
    3110:	76 2f       	mov	r23, r22                          ; Move register to register
    3112:	6a 2f       	mov	r22, r26                          ; Move register to register
    3114:	11 24       	eor	r1, r1
    3116:	9f 57       	subi	r25, 0x7F	; 127
    3118:	50 40       	sbci	r21, 0x00	; 0
    311a:	9a f0       	brmi	.+38     	;  0x3142
    311c:	f1 f0       	breq	.+60     	;  0x315a              ; Branch if equal
    311e:	88 23       	and	r24, r24
    3120:	4a f0       	brmi	.+18     	;  0x3134
    3122:	ee 0f       	add	r30, r30
    3124:	ff 1f       	adc	r31, r31
    3126:	bb 1f       	adc	r27, r27
    3128:	66 1f       	adc	r22, r22
    312a:	77 1f       	adc	r23, r23
    312c:	88 1f       	adc	r24, r24
    312e:	91 50       	subi	r25, 0x01	; 1
    3130:	50 40       	sbci	r21, 0x00	; 0
    3132:	a9 f7       	brne	.-22     	;  0x311e              ; Branch if not equal
    3134:	9e 3f       	cpi	r25, 0xFE	; 254                   ; Compare with immediate
    3136:	51 05       	cpc	r21, r1
    3138:	80 f0       	brcs	.+32     	;  0x315a
    313a:	0c 94 f1 17 	jmp	0x2fe2	;  0x2fe2                  ; Jump
    313e:	0c 94 3c 18 	jmp	0x3078	;  0x3078                  ; Jump
    3142:	5f 3f       	cpi	r21, 0xFF	; 255                   ; Compare with immediate
    3144:	e4 f3       	brlt	.-8      	;  0x313e
    3146:	98 3e       	cpi	r25, 0xE8	; 232                   ; Compare with immediate
    3148:	d4 f3       	brlt	.-12     	;  0x313e
    314a:	86 95       	lsr	r24
    314c:	77 95       	ror	r23
    314e:	67 95       	ror	r22
    3150:	b7 95       	ror	r27
    3152:	f7 95       	ror	r31
    3154:	e7 95       	ror	r30
    3156:	9f 5f       	subi	r25, 0xFF	; 255
    3158:	c1 f7       	brne	.-16     	;  0x314a              ; Branch if not equal
    315a:	fe 2b       	or	r31, r30
    315c:	88 0f       	add	r24, r24
    315e:	91 1d       	adc	r25, r1
    3160:	96 95       	lsr	r25
    3162:	87 95       	ror	r24
    3164:	97 f9       	bld	r25, 7
    3166:	08 95       	ret
    3168:	0e 94 cd 17 	call	0x2f9a	;  0x2f9a                 ; Function call
    316c:	88 0b       	sbc	r24, r24
    316e:	99 0b       	sbc	r25, r25
    3170:	08 95       	ret
    3172:	97 fb       	bst	r25, 7
    3174:	07 2e       	mov	r0, r23                           ; Move register to register
    3176:	16 f4       	brtc	.+4      	;  0x317c
    3178:	00 94       	com	r0
    317a:	07 d0       	rcall	.+14     	;  0x318a
    317c:	77 fd       	sbrc	r23, 7
    317e:	09 d0       	rcall	.+18     	;  0x3192
    3180:	0e 94 13 19 	call	0x3226	;  0x3226                 ; Function call
    3184:	07 fc       	sbrc	r0, 7
    3186:	05 d0       	rcall	.+10     	;  0x3192
    3188:	3e f4       	brtc	.+14     	;  0x3198
    318a:	90 95       	com	r25
    318c:	81 95       	neg	r24
    318e:	9f 4f       	sbci	r25, 0xFF	; 255
    3190:	08 95       	ret
    3192:	70 95       	com	r23
    3194:	61 95       	neg	r22
    3196:	7f 4f       	sbci	r23, 0xFF	; 255
    3198:	08 95       	ret
    319a:	a1 e2       	ldi	r26, 0x21	; 33                    ; Load immediate value
    319c:	1a 2e       	mov	r1, r26                           ; Move register to register
    319e:	aa 1b       	sub	r26, r26
    31a0:	bb 1b       	sub	r27, r27
    31a2:	fd 01       	movw	r30, r26
    31a4:	0d c0       	rjmp	.+26     	;  0x31c0              ; Relative jump
    31a6:	aa 1f       	adc	r26, r26
    31a8:	bb 1f       	adc	r27, r27
    31aa:	ee 1f       	adc	r30, r30
    31ac:	ff 1f       	adc	r31, r31
    31ae:	a2 17       	cp	r26, r18
    31b0:	b3 07       	cpc	r27, r19
    31b2:	e4 07       	cpc	r30, r20
    31b4:	f5 07       	cpc	r31, r21
    31b6:	20 f0       	brcs	.+8      	;  0x31c0
    31b8:	a2 1b       	sub	r26, r18
    31ba:	b3 0b       	sbc	r27, r19
    31bc:	e4 0b       	sbc	r30, r20
    31be:	f5 0b       	sbc	r31, r21
    31c0:	66 1f       	adc	r22, r22
    31c2:	77 1f       	adc	r23, r23
    31c4:	88 1f       	adc	r24, r24
    31c6:	99 1f       	adc	r25, r25
    31c8:	1a 94       	dec	r1
    31ca:	69 f7       	brne	.-38     	;  0x31a6              ; Branch if not equal
    31cc:	60 95       	com	r22
    31ce:	70 95       	com	r23
    31d0:	80 95       	com	r24
    31d2:	90 95       	com	r25
    31d4:	9b 01       	movw	r18, r22
    31d6:	ac 01       	movw	r20, r24
    31d8:	bd 01       	movw	r22, r26
    31da:	cf 01       	movw	r24, r30
    31dc:	08 95       	ret
    31de:	ee 0f       	add	r30, r30
    31e0:	ff 1f       	adc	r31, r31
    31e2:	05 90       	lpm	r0, Z+
    31e4:	f4 91       	lpm	r31, Z
    31e6:	e0 2d       	mov	r30, r0                           ; Move register to register
    31e8:	09 94       	ijmp
    31ea:	0e 94 fd 18 	call	0x31fa	;  0x31fa                 ; Function call
    31ee:	33 23       	and	r19, r19
    31f0:	12 f4       	brpl	.+4      	;  0x31f6
    31f2:	8a 1b       	sub	r24, r26
    31f4:	9b 0b       	sbc	r25, r27
    31f6:	0c 94 0e 19 	jmp	0x321c	;  0x321c                  ; Jump
    31fa:	a2 9f       	mul	r26, r18
    31fc:	b0 01       	movw	r22, r0
    31fe:	b3 9f       	mul	r27, r19
    3200:	c0 01       	movw	r24, r0
    3202:	a3 9f       	mul	r26, r19
    3204:	70 0d       	add	r23, r0
    3206:	81 1d       	adc	r24, r1
    3208:	11 24       	eor	r1, r1
    320a:	91 1d       	adc	r25, r1
    320c:	b2 9f       	mul	r27, r18
    320e:	70 0d       	add	r23, r0
    3210:	81 1d       	adc	r24, r1
    3212:	11 24       	eor	r1, r1
    3214:	91 1d       	adc	r25, r1
    3216:	08 95       	ret
    3218:	0e 94 fd 18 	call	0x31fa	;  0x31fa                 ; Function call
    321c:	b7 ff       	sbrs	r27, 7
    321e:	08 95       	ret
    3220:	82 1b       	sub	r24, r18
    3222:	93 0b       	sbc	r25, r19
    3224:	08 95       	ret
    3226:	aa 1b       	sub	r26, r26
    3228:	bb 1b       	sub	r27, r27
    322a:	51 e1       	ldi	r21, 0x11	; 17                    ; Load immediate value
    322c:	07 c0       	rjmp	.+14     	;  0x323c              ; Relative jump
    322e:	aa 1f       	adc	r26, r26
    3230:	bb 1f       	adc	r27, r27
    3232:	a6 17       	cp	r26, r22
    3234:	b7 07       	cpc	r27, r23
    3236:	10 f0       	brcs	.+4      	;  0x323c
    3238:	a6 1b       	sub	r26, r22
    323a:	b7 0b       	sbc	r27, r23
    323c:	88 1f       	adc	r24, r24
    323e:	99 1f       	adc	r25, r25
    3240:	5a 95       	dec	r21
    3242:	a9 f7       	brne	.-22     	;  0x322e              ; Branch if not equal
    3244:	80 95       	com	r24
    3246:	90 95       	com	r25
    3248:	bc 01       	movw	r22, r24
    324a:	cd 01       	movw	r24, r26
    324c:	08 95       	ret
    324e:	ae e0       	ldi	r26, 0x0E	; 14                    ; Load immediate value
    3250:	b0 e0       	ldi	r27, 0x00	; 0                     ; Load immediate value
    3252:	ed e2       	ldi	r30, 0x2D	; 45                    ; Load immediate value
    3254:	f9 e1       	ldi	r31, 0x19	; 25                    ; Load immediate value
    3256:	0c 94 4d 16 	jmp	0x2c9a	;  0x2c9a                  ; Jump
    325a:	0d 89       	ldd	r16, Y+21	; 0x15
    325c:	1e 89       	ldd	r17, Y+22	; 0x16
    325e:	86 e0       	ldi	r24, 0x06	; 6                     ; Load immediate value
    3260:	8c 83       	std	Y+4, r24	; 0x04
    3262:	1a 83       	std	Y+2, r17	; 0x02
    3264:	09 83       	std	Y+1, r16	; 0x01
    3266:	8f ef       	ldi	r24, 0xFF	; 255                   ; Load immediate value
    3268:	9f e7       	ldi	r25, 0x7F	; 127                   ; Load immediate value
    326a:	9e 83       	std	Y+6, r25	; 0x06
    326c:	8d 83       	std	Y+5, r24	; 0x05
    326e:	ae 01       	movw	r20, r28
    3270:	47 5e       	subi	r20, 0xE7	; 231
    3272:	5f 4f       	sbci	r21, 0xFF	; 255
    3274:	6f 89       	ldd	r22, Y+23	; 0x17
    3276:	78 8d       	ldd	r23, Y+24	; 0x18
    3278:	ce 01       	movw	r24, r28
    327a:	01 96       	adiw	r24, 0x01	; 1
    327c:	0e 94 c1 13 	call	0x2782	;  0x2782                 ; Function call
    3280:	2f 81       	ldd	r18, Y+7	; 0x07
    3282:	38 85       	ldd	r19, Y+8	; 0x08
    3284:	02 0f       	add	r16, r18
    3286:	13 1f       	adc	r17, r19
    3288:	f8 01       	movw	r30, r16
    328a:	10 82       	st	Z, r1
    328c:	2e 96       	adiw	r28, 0x0e	; 14
    328e:	e4 e0       	ldi	r30, 0x04	; 4                     ; Load immediate value
    3290:	0c 94 69 16 	jmp	0x2cd2	;  0x2cd2                  ; Jump
    3294:	f8 94       	cli
    3296:	ff cf       	rjmp	.-2      	;  0x3296              ; Relative jump
    3298:	ff ff       	.word	0xffff	; ????
    329a:	ff ff       	.word	0xffff	; ????
    329c:	00 e1       	ldi	r16, 0x10	; 16                    ; Load immediate value
    329e:	00 00       	nop
    32a0:	00 00       	nop
    32a2:	00 00       	nop
    32a4:	00 c1       	rjmp	.+512    	;  0x34a6              ; Relative jump
    32a6:	80 81       	ld	r24, Z
    32a8:	00 00       	nop
    32aa:	00 ac       	ldd	r0, Z+56	; 0x38
    32ac:	00 41       	sbci	r16, 0x10	; 16
    32ae:	01 43       	sbci	r16, 0x31	; 49
    32b0:	02 9f       	mul	r16, r18
    32b2:	03 50       	subi	r16, 0x03	; 3
    32b4:	05 42       	sbci	r16, 0x25	; 37
    32b6:	07 56       	subi	r16, 0x67	; 103
    32b8:	09 64       	ori	r16, 0x49	; 73
    32ba:	0b 3f       	cpi	r16, 0xFB	; 251                   ; Compare with immediate
    32bc:	0d b8       	out	0x0d, r0	; 13                     ; Output to I/O port
    32be:	0e ac       	ldd	r0, Y+62	; 0x3e
    32c0:	0f 00       	.word	0x000f	; ????
    32c2:	10 30       	cpi	r17, 0x00	; 0                     ; Compare with immediate
    32c4:	30 30       	cpi	r19, 0x00	; 0                     ; Compare with immediate
    32c6:	30 31       	cpi	r19, 0x10	; 16                    ; Compare with immediate
    32c8:	00 00       	nop
    32ca:	00 00       	nop
    32cc:	00 42       	sbci	r16, 0x20	; 32
    32ce:	02 ab       	std	Z+50, r16	; 0x32
    32d0:	03 63       	ori	r16, 0x33	; 51
    32d2:	02 58       	subi	r16, 0x82	; 130
    32d4:	02 a9       	ldd	r16, Z+50	; 0x32
    32d6:	02 67       	ori	r16, 0x72	; 114
    32d8:	02 85       	ldd	r16, Z+10	; 0x0a
    32da:	02 00       	.word	0x0002	; ????
    32dc:	00 00       	nop
    32de:	00 e1       	ldi	r16, 0x10	; 16                    ; Load immediate value
    32e0:	06 b4       	in	r0, 0x26	; 38                      ; Input from I/O port
    32e2:	06 10       	cpse	r0, r6
    32e4:	07 8a       	std	Z+23, r0	; 0x17
    32e6:	06 ad       	ldd	r16, Z+62	; 0x3e
    32e8:	06 9a       	sbi	0x00, 6	; 0
    32ea:	06 8b       	std	Z+22, r16	; 0x16
    32ec:	06 0d       	add	r16, r6
    32ee:	0a 00       	.word	0x000a	; ????
    32f0:	49 6e       	ori	r20, 0xE9	; 233
    32f2:	69 74       	andi	r22, 0x49	; 73
    32f4:	69 61       	ori	r22, 0x19	; 25
    32f6:	6c 69       	ori	r22, 0x9C	; 156
    32f8:	7a 69       	ori	r23, 0x9A	; 154
    32fa:	6e 67       	ori	r22, 0x7E	; 126
    32fc:	2e 2e       	mov	r2, r30                           ; Move register to register
    32fe:	2e 00       	.word	0x002e	; ????
    3300:	4d 41       	sbci	r20, 0x1D	; 29
    3302:	58 33       	cpi	r21, 0x38	; 56                    ; Compare with immediate
    3304:	30 31       	cpi	r19, 0x10	; 16                    ; Compare with immediate
    3306:	30 35       	cpi	r19, 0x50	; 80                    ; Compare with immediate
    3308:	20 77       	andi	r18, 0x70	; 112
    330a:	61 73       	andi	r22, 0x31	; 49
    330c:	20 6e       	ori	r18, 0xE0	; 224
    330e:	6f 74       	andi	r22, 0x4F	; 79
    3310:	20 66       	ori	r18, 0x60	; 96
    3312:	6f 75       	andi	r22, 0x5F	; 95
    3314:	6e 64       	ori	r22, 0x4E	; 78
    3316:	2e 20       	and	r2, r14
    3318:	50 6c       	ori	r21, 0xC0	; 192
    331a:	65 61       	ori	r22, 0x15	; 21
    331c:	73 65       	ori	r23, 0x53	; 83
    331e:	20 63       	ori	r18, 0x30	; 48
    3320:	68 65       	ori	r22, 0x58	; 88
    3322:	63 6b       	ori	r22, 0xB3	; 179
    3324:	20 77       	andi	r18, 0x70	; 112
    3326:	69 72       	andi	r22, 0x29	; 41
    3328:	69 6e       	ori	r22, 0xE9	; 233
    332a:	67 2f       	mov	r22, r23                          ; Move register to register
    332c:	70 6f       	ori	r23, 0xF0	; 240
    332e:	77 65       	ori	r23, 0x57	; 87
    3330:	72 2e       	mov	r7, r18                           ; Move register to register
    3332:	00 50       	subi	r16, 0x00	; 0
    3334:	6c 61       	ori	r22, 0x1C	; 28
    3336:	63 65       	ori	r22, 0x53	; 83
    3338:	20 79       	andi	r18, 0x90	; 144
    333a:	6f 75       	andi	r22, 0x5F	; 95
    333c:	72 20       	and	r7, r2
    333e:	69 6e       	ori	r22, 0xE9	; 233
    3340:	64 65       	ori	r22, 0x54	; 84
    3342:	78 20       	and	r7, r8
    3344:	66 69       	ori	r22, 0x96	; 150
    3346:	6e 67       	ori	r22, 0x7E	; 126
    3348:	65 72       	andi	r22, 0x25	; 37
    334a:	20 6f       	ori	r18, 0xF0	; 240
    334c:	6e 20       	and	r6, r14
    334e:	74 68       	ori	r23, 0x84	; 132
    3350:	65 20       	and	r6, r5
    3352:	73 65       	ori	r23, 0x53	; 83
    3354:	6e 73       	andi	r22, 0x3E	; 62
    3356:	6f 72       	andi	r22, 0x2F	; 47
    3358:	20 77       	andi	r18, 0x70	; 112
    335a:	69 74       	andi	r22, 0x49	; 73
    335c:	68 20       	and	r6, r8
    335e:	73 74       	andi	r23, 0x43	; 67
    3360:	65 61       	ori	r22, 0x15	; 21
    3362:	64 79       	andi	r22, 0x94	; 148
    3364:	20 70       	andi	r18, 0x00	; 0
    3366:	72 65       	ori	r23, 0x52	; 82
    3368:	73 73       	andi	r23, 0x33	; 51
    336a:	75 72       	andi	r23, 0x25	; 37
    336c:	65 2e       	mov	r6, r21                           ; Move register to register
    336e:	00 53       	subi	r16, 0x30	; 48
    3370:	65 72       	andi	r22, 0x25	; 37
    3372:	69 61       	ori	r22, 0x19	; 25
    3374:	6c 20       	and	r6, r12
    3376:	73 74       	andi	r23, 0x43	; 67
    3378:	61 72       	andi	r22, 0x21	; 33
    337a:	74 65       	ori	r23, 0x54	; 84
    337c:	64 00       	.word	0x0064	; ????
    337e:	52 61       	ori	r21, 0x12	; 18
    3380:	64 69       	ori	r22, 0x94	; 148
    3382:	6f 20       	and	r6, r15
    3384:	73 74       	andi	r23, 0x43	; 67
    3386:	61 72       	andi	r22, 0x21	; 33
    3388:	74 65       	ori	r23, 0x54	; 84
    338a:	64 00       	.word	0x0064	; ????
    338c:	50 69       	ori	r21, 0x90	; 144
    338e:	70 65       	ori	r23, 0x50	; 80
    3390:	20 6f       	ori	r18, 0xF0	; 240
    3392:	70 65       	ori	r23, 0x50	; 80
    3394:	6e 00       	.word	0x006e	; ????
    3396:	52 61       	ori	r21, 0x12	; 18
    3398:	64 69       	ori	r22, 0x94	; 148
    339a:	6f 20       	and	r6, r15
    339c:	6f 70       	andi	r22, 0x0F	; 15
    339e:	65 72       	andi	r22, 0x25	; 37
    33a0:	61 74       	andi	r22, 0x41	; 65
    33a2:	69 6e       	ori	r22, 0xE9	; 233
    33a4:	67 20       	and	r6, r7
    33a6:	61 73       	andi	r22, 0x31	; 49
    33a8:	20 74       	andi	r18, 0x40	; 64
    33aa:	72 61       	ori	r23, 0x12	; 18
    33ac:	6e 73       	andi	r22, 0x3E	; 62
    33ae:	6d 69       	ori	r22, 0x9D	; 157
    33b0:	74 74       	andi	r23, 0x44	; 68
    33b2:	65 72       	andi	r22, 0x25	; 37
    33b4:	00 42       	sbci	r16, 0x20	; 32
    33b6:	50 4d       	sbci	r21, 0xD0	; 208
    33b8:	3a 20       	and	r3, r10
    33ba:	25 64       	ori	r18, 0x45	; 69
    33bc:	2c 20       	and	r2, r12
    33be:	41 76       	andi	r20, 0x61	; 97
    33c0:	67 3a       	cpi	r22, 0xA7	; 167                   ; Compare with immediate
    33c2:	20 25       	eor	r18, r0
    33c4:	64 00       	.word	0x0064	; ????
    33c6:	49 52       	subi	r20, 0x29	; 41
    33c8:	3d 00       	.word	0x003d	; ????
    33ca:	2c 20       	and	r2, r12
    33cc:	42 50       	subi	r20, 0x02	; 2
    33ce:	4d 3d       	cpi	r20, 0xDD	; 221                   ; Compare with immediate
    33d0:	00 6e       	ori	r16, 0xE0	; 224
    33d2:	61 6e       	ori	r22, 0xE1	; 225
    33d4:	00 69       	ori	r16, 0x90	; 144
    33d6:	6e 66       	ori	r22, 0x6E	; 110
    33d8:	00 6f       	ori	r16, 0xF0	; 240
    33da:	76 66       	ori	r23, 0x66	; 102
    33dc:	00 2c       	mov	r0, r0                            ; Move register to register
    33de:	20 41       	sbci	r18, 0x10	; 16
    33e0:	76 67       	ori	r23, 0x76	; 118
    33e2:	20 42       	sbci	r18, 0x20	; 32
    33e4:	50 4d       	sbci	r21, 0xD0	; 208
    33e6:	3d 00       	.word	0x003d	; ????
    33e8:	20 4e       	sbci	r18, 0xE0	; 224
    33ea:	6f 20       	and	r6, r15
    33ec:	66 69       	ori	r22, 0x96	; 150
    33ee:	6e 67       	ori	r22, 0x7E	; 126
    33f0:	65 72       	andi	r22, 0x25	; 37
    33f2:	3f 00       	.word	0x003f	; ????
    33f4:	ff ff       	.word	0xffff	; ????
    33f6:	ff ff       	.word	0xffff	; ????
    33f8:	ff ff       	.word	0xffff	; ????
    33fa:	ff ff       	.word	0xffff	; ????
    33fc:	ff ff       	.word	0xffff	; ????
    33fe:	ff ff       	.word	0xffff	; ????
    3400:	7c 01       	movw	r14, r24
    3402:	3b 01       	movw	r6, r22
    3404:	8a 01       	movw	r16, r20
    3406:	fc 01       	movw	r30, r24
    3408:	17 82       	std	Z+7, r1	; 0x07
    340a:	16 82       	std	Z+6, r1	; 0x06
    340c:	83 81       	ldd	r24, Z+3	; 0x03
    340e:	81 ff       	sbrs	r24, 1
    3410:	c8 c1       	rjmp	.+912    	;  0x37a2              ; Relative jump
    3412:	ce 01       	movw	r24, r28
    3414:	01 96       	adiw	r24, 0x01	; 1
    3416:	5c 01       	movw	r10, r24
    3418:	f7 01       	movw	r30, r14
    341a:	93 81       	ldd	r25, Z+3	; 0x03
    341c:	f3 01       	movw	r30, r6
    341e:	93 fd       	sbrc	r25, 3
    3420:	85 91       	lpm	r24, Z+
    3422:	93 ff       	sbrs	r25, 3
    3424:	81 91       	ld	r24, Z+
    3426:	3f 01       	movw	r6, r30
    3428:	88 23       	and	r24, r24
    342a:	09 f4       	brne	.+2      	;  0x342e              ; Branch if not equal
    342c:	53 c1       	rjmp	.+678    	;  0x36d4              ; Relative jump
    342e:	85 32       	cpi	r24, 0x25	; 37                    ; Compare with immediate
    3430:	39 f4       	brne	.+14     	;  0x3440              ; Branch if not equal
    3432:	93 fd       	sbrc	r25, 3
    3434:	85 91       	lpm	r24, Z+
    3436:	93 ff       	sbrs	r25, 3
    3438:	81 91       	ld	r24, Z+
    343a:	3f 01       	movw	r6, r30
    343c:	85 32       	cpi	r24, 0x25	; 37                    ; Compare with immediate
    343e:	29 f4       	brne	.+10     	;  0x344a              ; Branch if not equal
    3440:	b7 01       	movw	r22, r14
    3442:	90 e0       	ldi	r25, 0x00	; 0                     ; Load immediate value
    3444:	0e 94 ea 1b 	call	0x37d4	;  0x37d4                 ; Function call
    3448:	e7 cf       	rjmp	.-50     	;  0x3418              ; Relative jump
    344a:	91 2c       	mov	r9, r1                            ; Move register to register
    344c:	21 2c       	mov	r2, r1                            ; Move register to register
    344e:	31 2c       	mov	r3, r1                            ; Move register to register
    3450:	ff e1       	ldi	r31, 0x1F	; 31                    ; Load immediate value
    3452:	f3 15       	cp	r31, r3
    3454:	38 f0       	brcs	.+14     	;  0x3464
    3456:	8b 32       	cpi	r24, 0x2B	; 43                    ; Compare with immediate
    3458:	11 f1       	breq	.+68     	;  0x349e              ; Branch if equal
    345a:	90 f4       	brcc	.+36     	;  0x3480
    345c:	80 32       	cpi	r24, 0x20	; 32                    ; Compare with immediate
    345e:	09 f1       	breq	.+66     	;  0x34a2              ; Branch if equal
    3460:	83 32       	cpi	r24, 0x23	; 35                    ; Compare with immediate
    3462:	29 f1       	breq	.+74     	;  0x34ae              ; Branch if equal
    3464:	37 fc       	sbrc	r3, 7
    3466:	3c c0       	rjmp	.+120    	;  0x34e0              ; Relative jump
    3468:	20 ed       	ldi	r18, 0xD0	; 208                   ; Load immediate value
    346a:	28 0f       	add	r18, r24
    346c:	2a 30       	cpi	r18, 0x0A	; 10                    ; Compare with immediate
    346e:	50 f5       	brcc	.+84     	;  0x34c4
    3470:	36 fe       	sbrs	r3, 6
    3472:	20 c0       	rjmp	.+64     	;  0x34b4              ; Relative jump
    3474:	8a e0       	ldi	r24, 0x0A	; 10                    ; Load immediate value
    3476:	98 9e       	mul	r9, r24
    3478:	20 0d       	add	r18, r0
    347a:	11 24       	eor	r1, r1
    347c:	92 2e       	mov	r9, r18                           ; Move register to register
    347e:	06 c0       	rjmp	.+12     	;  0x348c              ; Relative jump
    3480:	8d 32       	cpi	r24, 0x2D	; 45                    ; Compare with immediate
    3482:	91 f0       	breq	.+36     	;  0x34a8              ; Branch if equal
    3484:	80 33       	cpi	r24, 0x30	; 48                    ; Compare with immediate
    3486:	71 f7       	brne	.-36     	;  0x3464              ; Branch if not equal
    3488:	68 94       	set
    348a:	30 f8       	bld	r3, 0
    348c:	f3 01       	movw	r30, r6
    348e:	93 fd       	sbrc	r25, 3
    3490:	85 91       	lpm	r24, Z+
    3492:	93 ff       	sbrs	r25, 3
    3494:	81 91       	ld	r24, Z+
    3496:	3f 01       	movw	r6, r30
    3498:	81 11       	cpse	r24, r1
    349a:	da cf       	rjmp	.-76     	;  0x3450              ; Relative jump
    349c:	21 c0       	rjmp	.+66     	;  0x34e0              ; Relative jump
    349e:	68 94       	set
    34a0:	31 f8       	bld	r3, 1
    34a2:	68 94       	set
    34a4:	32 f8       	bld	r3, 2
    34a6:	f2 cf       	rjmp	.-28     	;  0x348c              ; Relative jump
    34a8:	68 94       	set
    34aa:	33 f8       	bld	r3, 3
    34ac:	ef cf       	rjmp	.-34     	;  0x348c              ; Relative jump
    34ae:	68 94       	set
    34b0:	34 f8       	bld	r3, 4
    34b2:	ec cf       	rjmp	.-40     	;  0x348c              ; Relative jump
    34b4:	ea e0       	ldi	r30, 0x0A	; 10                    ; Load immediate value
    34b6:	2e 9e       	mul	r2, r30
    34b8:	20 0d       	add	r18, r0
    34ba:	11 24       	eor	r1, r1
    34bc:	22 2e       	mov	r2, r18                           ; Move register to register
    34be:	68 94       	set
    34c0:	35 f8       	bld	r3, 5
    34c2:	e4 cf       	rjmp	.-56     	;  0x348c              ; Relative jump
    34c4:	8e 32       	cpi	r24, 0x2E	; 46                    ; Compare with immediate
    34c6:	29 f4       	brne	.+10     	;  0x34d2              ; Branch if not equal
    34c8:	36 fc       	sbrc	r3, 6
    34ca:	04 c1       	rjmp	.+520    	;  0x36d4              ; Relative jump
    34cc:	68 94       	set
    34ce:	36 f8       	bld	r3, 6
    34d0:	dd cf       	rjmp	.-70     	;  0x348c              ; Relative jump
    34d2:	8c 36       	cpi	r24, 0x6C	; 108                   ; Compare with immediate
    34d4:	19 f4       	brne	.+6      	;  0x34dc              ; Branch if not equal
    34d6:	68 94       	set
    34d8:	37 f8       	bld	r3, 7
    34da:	d8 cf       	rjmp	.-80     	;  0x348c              ; Relative jump
    34dc:	88 36       	cpi	r24, 0x68	; 104                   ; Compare with immediate
    34de:	b1 f2       	breq	.-84     	;  0x348c              ; Branch if equal
    34e0:	98 2f       	mov	r25, r24                          ; Move register to register
    34e2:	9f 7d       	andi	r25, 0xDF	; 223
    34e4:	95 54       	subi	r25, 0x45	; 69
    34e6:	93 30       	cpi	r25, 0x03	; 3                     ; Compare with immediate
    34e8:	e0 f0       	brcs	.+56     	;  0x3522
    34ea:	83 36       	cpi	r24, 0x63	; 99                    ; Compare with immediate
    34ec:	a1 f1       	breq	.+104    	;  0x3556              ; Branch if equal
    34ee:	83 37       	cpi	r24, 0x73	; 115                   ; Compare with immediate
    34f0:	c1 f1       	breq	.+112    	;  0x3562              ; Branch if equal
    34f2:	83 35       	cpi	r24, 0x53	; 83                    ; Compare with immediate
    34f4:	09 f0       	breq	.+2      	;  0x34f8              ; Branch if equal
    34f6:	63 c0       	rjmp	.+198    	;  0x35be              ; Relative jump
    34f8:	28 01       	movw	r4, r16
    34fa:	f2 e0       	ldi	r31, 0x02	; 2                     ; Load immediate value
    34fc:	4f 0e       	add	r4, r31
    34fe:	51 1c       	adc	r5, r1
    3500:	f8 01       	movw	r30, r16
    3502:	c0 80       	ld	r12, Z
    3504:	d1 80       	ldd	r13, Z+1	; 0x01
    3506:	69 2d       	mov	r22, r9                           ; Move register to register
    3508:	70 e0       	ldi	r23, 0x00	; 0                     ; Load immediate value
    350a:	36 fc       	sbrc	r3, 6
    350c:	02 c0       	rjmp	.+4      	;  0x3512              ; Relative jump
    350e:	6f ef       	ldi	r22, 0xFF	; 255                   ; Load immediate value
    3510:	7f ef       	ldi	r23, 0xFF	; 255                   ; Load immediate value
    3512:	c6 01       	movw	r24, r12
    3514:	0e 94 d4 1b 	call	0x37a8	;  0x37a8                 ; Function call
    3518:	4c 01       	movw	r8, r24
    351a:	68 94       	set
    351c:	37 f8       	bld	r3, 7
    351e:	82 01       	movw	r16, r4
    3520:	0a c0       	rjmp	.+20     	;  0x3536              ; Relative jump
    3522:	0c 5f       	subi	r16, 0xFC	; 252
    3524:	1f 4f       	sbci	r17, 0xFF	; 255
    3526:	ff e3       	ldi	r31, 0x3F	; 63                    ; Load immediate value
    3528:	f9 83       	std	Y+1, r31	; 0x01
    352a:	88 24       	eor	r8, r8
    352c:	83 94       	inc	r8
    352e:	91 2c       	mov	r9, r1                            ; Move register to register
    3530:	65 01       	movw	r12, r10
    3532:	e8 94       	clt
    3534:	37 f8       	bld	r3, 7
    3536:	33 fe       	sbrs	r3, 3
    3538:	2d c0       	rjmp	.+90     	;  0x3594              ; Relative jump
    353a:	52 2c       	mov	r5, r2                            ; Move register to register
    353c:	81 14       	cp	r8, r1
    353e:	91 04       	cpc	r9, r1
    3540:	71 f5       	brne	.+92     	;  0x359e              ; Branch if not equal
    3542:	55 20       	and	r5, r5
    3544:	09 f4       	brne	.+2      	;  0x3548              ; Branch if not equal
    3546:	68 cf       	rjmp	.-304    	;  0x3418              ; Relative jump
    3548:	b7 01       	movw	r22, r14
    354a:	80 e2       	ldi	r24, 0x20	; 32                    ; Load immediate value
    354c:	90 e0       	ldi	r25, 0x00	; 0                     ; Load immediate value
    354e:	0e 94 ea 1b 	call	0x37d4	;  0x37d4                 ; Function call
    3552:	5a 94       	dec	r5
    3554:	f6 cf       	rjmp	.-20     	;  0x3542              ; Relative jump
    3556:	f8 01       	movw	r30, r16
    3558:	80 81       	ld	r24, Z
    355a:	89 83       	std	Y+1, r24	; 0x01
    355c:	0e 5f       	subi	r16, 0xFE	; 254
    355e:	1f 4f       	sbci	r17, 0xFF	; 255
    3560:	e4 cf       	rjmp	.-56     	;  0x352a              ; Relative jump
    3562:	28 01       	movw	r4, r16
    3564:	f2 e0       	ldi	r31, 0x02	; 2                     ; Load immediate value
    3566:	4f 0e       	add	r4, r31
    3568:	51 1c       	adc	r5, r1
    356a:	f8 01       	movw	r30, r16
    356c:	c0 80       	ld	r12, Z
    356e:	d1 80       	ldd	r13, Z+1	; 0x01
    3570:	69 2d       	mov	r22, r9                           ; Move register to register
    3572:	70 e0       	ldi	r23, 0x00	; 0                     ; Load immediate value
    3574:	36 fc       	sbrc	r3, 6
    3576:	02 c0       	rjmp	.+4      	;  0x357c              ; Relative jump
    3578:	6f ef       	ldi	r22, 0xFF	; 255                   ; Load immediate value
    357a:	7f ef       	ldi	r23, 0xFF	; 255                   ; Load immediate value
    357c:	c6 01       	movw	r24, r12
    357e:	0e 94 df 1b 	call	0x37be	;  0x37be                 ; Function call
    3582:	4c 01       	movw	r8, r24
    3584:	82 01       	movw	r16, r4
    3586:	d5 cf       	rjmp	.-86     	;  0x3532              ; Relative jump
    3588:	b7 01       	movw	r22, r14
    358a:	80 e2       	ldi	r24, 0x20	; 32                    ; Load immediate value
    358c:	90 e0       	ldi	r25, 0x00	; 0                     ; Load immediate value
    358e:	0e 94 ea 1b 	call	0x37d4	;  0x37d4                 ; Function call
    3592:	2a 94       	dec	r2
    3594:	28 14       	cp	r2, r8
    3596:	19 04       	cpc	r1, r9
    3598:	09 f0       	breq	.+2      	;  0x359c              ; Branch if equal
    359a:	b0 f7       	brcc	.-20     	;  0x3588
    359c:	ce cf       	rjmp	.-100    	;  0x353a              ; Relative jump
    359e:	f6 01       	movw	r30, r12
    35a0:	37 fc       	sbrc	r3, 7
    35a2:	85 91       	lpm	r24, Z+
    35a4:	37 fe       	sbrs	r3, 7
    35a6:	81 91       	ld	r24, Z+
    35a8:	6f 01       	movw	r12, r30
    35aa:	b7 01       	movw	r22, r14
    35ac:	90 e0       	ldi	r25, 0x00	; 0                     ; Load immediate value
    35ae:	0e 94 ea 1b 	call	0x37d4	;  0x37d4                 ; Function call
    35b2:	51 10       	cpse	r5, r1
    35b4:	5a 94       	dec	r5
    35b6:	f1 e0       	ldi	r31, 0x01	; 1                     ; Load immediate value
    35b8:	8f 1a       	sub	r8, r31
    35ba:	91 08       	sbc	r9, r1
    35bc:	bf cf       	rjmp	.-130    	;  0x353c              ; Relative jump
    35be:	84 36       	cpi	r24, 0x64	; 100                   ; Compare with immediate
    35c0:	19 f0       	breq	.+6      	;  0x35c8              ; Branch if equal
    35c2:	89 36       	cpi	r24, 0x69	; 105                   ; Compare with immediate
    35c4:	09 f0       	breq	.+2      	;  0x35c8              ; Branch if equal
    35c6:	77 c0       	rjmp	.+238    	;  0x36b6              ; Relative jump
    35c8:	f8 01       	movw	r30, r16
    35ca:	37 fe       	sbrs	r3, 7
    35cc:	6b c0       	rjmp	.+214    	;  0x36a4              ; Relative jump
    35ce:	60 81       	ld	r22, Z
    35d0:	71 81       	ldd	r23, Z+1	; 0x01
    35d2:	82 81       	ldd	r24, Z+2	; 0x02
    35d4:	93 81       	ldd	r25, Z+3	; 0x03
    35d6:	0c 5f       	subi	r16, 0xFC	; 252
    35d8:	1f 4f       	sbci	r17, 0xFF	; 255
    35da:	f3 2d       	mov	r31, r3                           ; Move register to register
    35dc:	ff 76       	andi	r31, 0x6F	; 111
    35de:	3f 2e       	mov	r3, r31                           ; Move register to register
    35e0:	97 ff       	sbrs	r25, 7
    35e2:	09 c0       	rjmp	.+18     	;  0x35f6              ; Relative jump
    35e4:	90 95       	com	r25
    35e6:	80 95       	com	r24
    35e8:	70 95       	com	r23
    35ea:	61 95       	neg	r22
    35ec:	7f 4f       	sbci	r23, 0xFF	; 255
    35ee:	8f 4f       	sbci	r24, 0xFF	; 255
    35f0:	9f 4f       	sbci	r25, 0xFF	; 255
    35f2:	68 94       	set
    35f4:	37 f8       	bld	r3, 7
    35f6:	2a e0       	ldi	r18, 0x0A	; 10                    ; Load immediate value
    35f8:	30 e0       	ldi	r19, 0x00	; 0                     ; Load immediate value
    35fa:	a5 01       	movw	r20, r10
    35fc:	0e 94 1a 1c 	call	0x3834	;  0x3834                 ; Function call
    3600:	c8 2e       	mov	r12, r24                          ; Move register to register
    3602:	ca 18       	sub	r12, r10
    3604:	8c 2c       	mov	r8, r12                           ; Move register to register
    3606:	43 2c       	mov	r4, r3                            ; Move register to register
    3608:	36 fe       	sbrs	r3, 6
    360a:	0c c0       	rjmp	.+24     	;  0x3624              ; Relative jump
    360c:	e8 94       	clt
    360e:	40 f8       	bld	r4, 0
    3610:	c9 14       	cp	r12, r9
    3612:	40 f4       	brcc	.+16     	;  0x3624
    3614:	34 fe       	sbrs	r3, 4
    3616:	05 c0       	rjmp	.+10     	;  0x3622              ; Relative jump
    3618:	32 fc       	sbrc	r3, 2
    361a:	03 c0       	rjmp	.+6      	;  0x3622              ; Relative jump
    361c:	f3 2d       	mov	r31, r3                           ; Move register to register
    361e:	fe 7e       	andi	r31, 0xEE	; 238
    3620:	4f 2e       	mov	r4, r31                           ; Move register to register
    3622:	89 2c       	mov	r8, r9                            ; Move register to register
    3624:	44 fe       	sbrs	r4, 4
    3626:	95 c0       	rjmp	.+298    	;  0x3752              ; Relative jump
    3628:	fe 01       	movw	r30, r28
    362a:	ec 0d       	add	r30, r12
    362c:	f1 1d       	adc	r31, r1
    362e:	80 81       	ld	r24, Z
    3630:	80 33       	cpi	r24, 0x30	; 48                    ; Compare with immediate
    3632:	09 f0       	breq	.+2      	;  0x3636              ; Branch if equal
    3634:	87 c0       	rjmp	.+270    	;  0x3744              ; Relative jump
    3636:	24 2d       	mov	r18, r4                           ; Move register to register
    3638:	29 7e       	andi	r18, 0xE9	; 233
    363a:	42 2e       	mov	r4, r18                           ; Move register to register
    363c:	84 2d       	mov	r24, r4                           ; Move register to register
    363e:	88 70       	andi	r24, 0x08	; 8
    3640:	58 2e       	mov	r5, r24                           ; Move register to register
    3642:	43 fc       	sbrc	r4, 3
    3644:	95 c0       	rjmp	.+298    	;  0x3770              ; Relative jump
    3646:	40 fe       	sbrs	r4, 0
    3648:	8f c0       	rjmp	.+286    	;  0x3768              ; Relative jump
    364a:	9c 2c       	mov	r9, r12                           ; Move register to register
    364c:	82 14       	cp	r8, r2
    364e:	18 f4       	brcc	.+6      	;  0x3656
    3650:	2c 0c       	add	r2, r12
    3652:	92 2c       	mov	r9, r2                            ; Move register to register
    3654:	98 18       	sub	r9, r8
    3656:	44 fe       	sbrs	r4, 4
    3658:	91 c0       	rjmp	.+290    	;  0x377c              ; Relative jump
    365a:	b7 01       	movw	r22, r14
    365c:	80 e3       	ldi	r24, 0x30	; 48                    ; Load immediate value
    365e:	90 e0       	ldi	r25, 0x00	; 0                     ; Load immediate value
    3660:	0e 94 ea 1b 	call	0x37d4	;  0x37d4                 ; Function call
    3664:	42 fe       	sbrs	r4, 2
    3666:	09 c0       	rjmp	.+18     	;  0x367a              ; Relative jump
    3668:	88 e7       	ldi	r24, 0x78	; 120                   ; Load immediate value
    366a:	90 e0       	ldi	r25, 0x00	; 0                     ; Load immediate value
    366c:	41 fe       	sbrs	r4, 1
    366e:	02 c0       	rjmp	.+4      	;  0x3674              ; Relative jump
    3670:	88 e5       	ldi	r24, 0x58	; 88                    ; Load immediate value
    3672:	90 e0       	ldi	r25, 0x00	; 0                     ; Load immediate value
    3674:	b7 01       	movw	r22, r14
    3676:	0e 94 ea 1b 	call	0x37d4	;  0x37d4                 ; Function call
    367a:	c9 14       	cp	r12, r9
    367c:	08 f4       	brcc	.+2      	;  0x3680
    367e:	8a c0       	rjmp	.+276    	;  0x3794              ; Relative jump
    3680:	ca 94       	dec	r12
    3682:	d1 2c       	mov	r13, r1                           ; Move register to register
    3684:	9f ef       	ldi	r25, 0xFF	; 255                   ; Load immediate value
    3686:	c9 1a       	sub	r12, r25
    3688:	d9 0a       	sbc	r13, r25
    368a:	ca 0c       	add	r12, r10
    368c:	db 1c       	adc	r13, r11
    368e:	f6 01       	movw	r30, r12
    3690:	82 91       	ld	r24, -Z
    3692:	6f 01       	movw	r12, r30
    3694:	b7 01       	movw	r22, r14
    3696:	90 e0       	ldi	r25, 0x00	; 0                     ; Load immediate value
    3698:	0e 94 ea 1b 	call	0x37d4	;  0x37d4                 ; Function call
    369c:	ac 14       	cp	r10, r12
    369e:	bd 04       	cpc	r11, r13
    36a0:	b1 f7       	brne	.-20     	;  0x368e              ; Branch if not equal
    36a2:	4f cf       	rjmp	.-354    	;  0x3542              ; Relative jump
    36a4:	60 81       	ld	r22, Z
    36a6:	71 81       	ldd	r23, Z+1	; 0x01
    36a8:	07 2e       	mov	r0, r23                           ; Move register to register
    36aa:	00 0c       	add	r0, r0
    36ac:	88 0b       	sbc	r24, r24
    36ae:	99 0b       	sbc	r25, r25
    36b0:	0e 5f       	subi	r16, 0xFE	; 254
    36b2:	1f 4f       	sbci	r17, 0xFF	; 255
    36b4:	92 cf       	rjmp	.-220    	;  0x35da              ; Relative jump
    36b6:	d3 2c       	mov	r13, r3                           ; Move register to register
    36b8:	e8 94       	clt
    36ba:	d4 f8       	bld	r13, 4
    36bc:	2a e0       	ldi	r18, 0x0A	; 10                    ; Load immediate value
    36be:	30 e0       	ldi	r19, 0x00	; 0                     ; Load immediate value
    36c0:	85 37       	cpi	r24, 0x75	; 117                   ; Compare with immediate
    36c2:	39 f1       	breq	.+78     	;  0x3712              ; Branch if equal
    36c4:	23 2d       	mov	r18, r3                           ; Move register to register
    36c6:	29 7f       	andi	r18, 0xF9	; 249
    36c8:	d2 2e       	mov	r13, r18                          ; Move register to register
    36ca:	8f 36       	cpi	r24, 0x6F	; 111                   ; Compare with immediate
    36cc:	01 f1       	breq	.+64     	;  0x370e              ; Branch if equal
    36ce:	48 f4       	brcc	.+18     	;  0x36e2
    36d0:	88 35       	cpi	r24, 0x58	; 88                    ; Compare with immediate
    36d2:	a9 f0       	breq	.+42     	;  0x36fe              ; Branch if equal
    36d4:	f7 01       	movw	r30, r14
    36d6:	86 81       	ldd	r24, Z+6	; 0x06
    36d8:	97 81       	ldd	r25, Z+7	; 0x07
    36da:	2b 96       	adiw	r28, 0x0b	; 11
    36dc:	e2 e1       	ldi	r30, 0x12	; 18                    ; Load immediate value
    36de:	0c 94 94 1c 	jmp	0x3928	;  0x3928                  ; Jump
    36e2:	80 37       	cpi	r24, 0x70	; 112                   ; Compare with immediate
    36e4:	49 f0       	breq	.+18     	;  0x36f8              ; Branch if equal
    36e6:	88 37       	cpi	r24, 0x78	; 120                   ; Compare with immediate
    36e8:	a9 f7       	brne	.-22     	;  0x36d4              ; Branch if not equal
    36ea:	d4 fe       	sbrs	r13, 4
    36ec:	02 c0       	rjmp	.+4      	;  0x36f2              ; Relative jump
    36ee:	68 94       	set
    36f0:	d2 f8       	bld	r13, 2
    36f2:	20 e1       	ldi	r18, 0x10	; 16                    ; Load immediate value
    36f4:	30 e0       	ldi	r19, 0x00	; 0                     ; Load immediate value
    36f6:	0d c0       	rjmp	.+26     	;  0x3712              ; Relative jump
    36f8:	68 94       	set
    36fa:	d4 f8       	bld	r13, 4
    36fc:	f6 cf       	rjmp	.-20     	;  0x36ea              ; Relative jump
    36fe:	34 fe       	sbrs	r3, 4
    3700:	03 c0       	rjmp	.+6      	;  0x3708              ; Relative jump
    3702:	82 2f       	mov	r24, r18                          ; Move register to register
    3704:	86 60       	ori	r24, 0x06	; 6
    3706:	d8 2e       	mov	r13, r24                          ; Move register to register
    3708:	20 e1       	ldi	r18, 0x10	; 16                    ; Load immediate value
    370a:	32 e0       	ldi	r19, 0x02	; 2                     ; Load immediate value
    370c:	02 c0       	rjmp	.+4      	;  0x3712              ; Relative jump
    370e:	28 e0       	ldi	r18, 0x08	; 8                     ; Load immediate value
    3710:	30 e0       	ldi	r19, 0x00	; 0                     ; Load immediate value
    3712:	f8 01       	movw	r30, r16
    3714:	d7 fe       	sbrs	r13, 7
    3716:	0f c0       	rjmp	.+30     	;  0x3736              ; Relative jump
    3718:	60 81       	ld	r22, Z
    371a:	71 81       	ldd	r23, Z+1	; 0x01
    371c:	82 81       	ldd	r24, Z+2	; 0x02
    371e:	93 81       	ldd	r25, Z+3	; 0x03
    3720:	0c 5f       	subi	r16, 0xFC	; 252
    3722:	1f 4f       	sbci	r17, 0xFF	; 255
    3724:	a5 01       	movw	r20, r10
    3726:	0e 94 1a 1c 	call	0x3834	;  0x3834                 ; Function call
    372a:	c8 2e       	mov	r12, r24                          ; Move register to register
    372c:	ca 18       	sub	r12, r10
    372e:	3d 2c       	mov	r3, r13                           ; Move register to register
    3730:	e8 94       	clt
    3732:	37 f8       	bld	r3, 7
    3734:	67 cf       	rjmp	.-306    	;  0x3604              ; Relative jump
    3736:	60 81       	ld	r22, Z
    3738:	71 81       	ldd	r23, Z+1	; 0x01
    373a:	90 e0       	ldi	r25, 0x00	; 0                     ; Load immediate value
    373c:	80 e0       	ldi	r24, 0x00	; 0                     ; Load immediate value
    373e:	0e 5f       	subi	r16, 0xFE	; 254
    3740:	1f 4f       	sbci	r17, 0xFF	; 255
    3742:	f0 cf       	rjmp	.-32     	;  0x3724              ; Relative jump
    3744:	42 fc       	sbrc	r4, 2
    3746:	02 c0       	rjmp	.+4      	;  0x374c              ; Relative jump
    3748:	83 94       	inc	r8
    374a:	78 cf       	rjmp	.-272    	;  0x363c              ; Relative jump
    374c:	83 94       	inc	r8
    374e:	83 94       	inc	r8
    3750:	75 cf       	rjmp	.-278    	;  0x363c              ; Relative jump
    3752:	84 2d       	mov	r24, r4                           ; Move register to register
    3754:	86 78       	andi	r24, 0x86	; 134
    3756:	09 f4       	brne	.+2      	;  0x375a              ; Branch if not equal
    3758:	71 cf       	rjmp	.-286    	;  0x363c              ; Relative jump
    375a:	f6 cf       	rjmp	.-20     	;  0x3748              ; Relative jump
    375c:	b7 01       	movw	r22, r14
    375e:	80 e2       	ldi	r24, 0x20	; 32                    ; Load immediate value
    3760:	90 e0       	ldi	r25, 0x00	; 0                     ; Load immediate value
    3762:	0e 94 ea 1b 	call	0x37d4	;  0x37d4                 ; Function call
    3766:	83 94       	inc	r8
    3768:	82 14       	cp	r8, r2
    376a:	c0 f3       	brcs	.-16     	;  0x375c
    376c:	51 2c       	mov	r5, r1                            ; Move register to register
    376e:	73 cf       	rjmp	.-282    	;  0x3656              ; Relative jump
    3770:	52 2c       	mov	r5, r2                            ; Move register to register
    3772:	58 18       	sub	r5, r8
    3774:	82 14       	cp	r8, r2
    3776:	08 f4       	brcc	.+2      	;  0x377a
    3778:	6e cf       	rjmp	.-292    	;  0x3656              ; Relative jump
    377a:	f8 cf       	rjmp	.-16     	;  0x376c              ; Relative jump
    377c:	84 2d       	mov	r24, r4                           ; Move register to register
    377e:	86 78       	andi	r24, 0x86	; 134
    3780:	09 f4       	brne	.+2      	;  0x3784              ; Branch if not equal
    3782:	7b cf       	rjmp	.-266    	;  0x367a              ; Relative jump
    3784:	8b e2       	ldi	r24, 0x2B	; 43                    ; Load immediate value
    3786:	41 fe       	sbrs	r4, 1
    3788:	80 e2       	ldi	r24, 0x20	; 32                    ; Load immediate value
    378a:	47 fc       	sbrc	r4, 7
    378c:	8d e2       	ldi	r24, 0x2D	; 45                    ; Load immediate value
    378e:	b7 01       	movw	r22, r14
    3790:	90 e0       	ldi	r25, 0x00	; 0                     ; Load immediate value
    3792:	71 cf       	rjmp	.-286    	;  0x3676              ; Relative jump
    3794:	b7 01       	movw	r22, r14
    3796:	80 e3       	ldi	r24, 0x30	; 48                    ; Load immediate value
    3798:	90 e0       	ldi	r25, 0x00	; 0                     ; Load immediate value
    379a:	0e 94 ea 1b 	call	0x37d4	;  0x37d4                 ; Function call
    379e:	9a 94       	dec	r9
    37a0:	6c cf       	rjmp	.-296    	;  0x367a              ; Relative jump
    37a2:	8f ef       	ldi	r24, 0xFF	; 255                   ; Load immediate value
    37a4:	9f ef       	ldi	r25, 0xFF	; 255                   ; Load immediate value
    37a6:	99 cf       	rjmp	.-206    	;  0x36da              ; Relative jump
    37a8:	fc 01       	movw	r30, r24
    37aa:	05 90       	lpm	r0, Z+
    37ac:	61 50       	subi	r22, 0x01	; 1
    37ae:	70 40       	sbci	r23, 0x00	; 0
    37b0:	01 10       	cpse	r0, r1
    37b2:	d8 f7       	brcc	.-10     	;  0x37aa
    37b4:	80 95       	com	r24
    37b6:	90 95       	com	r25
    37b8:	8e 0f       	add	r24, r30
    37ba:	9f 1f       	adc	r25, r31
    37bc:	08 95       	ret
    37be:	fc 01       	movw	r30, r24
    37c0:	61 50       	subi	r22, 0x01	; 1
    37c2:	70 40       	sbci	r23, 0x00	; 0
    37c4:	01 90       	ld	r0, Z+
    37c6:	01 10       	cpse	r0, r1
    37c8:	d8 f7       	brcc	.-10     	;  0x37c0
    37ca:	80 95       	com	r24
    37cc:	90 95       	com	r25
    37ce:	8e 0f       	add	r24, r30
    37d0:	9f 1f       	adc	r25, r31
    37d2:	08 95       	ret
    37d4:	0f 93       	push	r16                              ; Push onto stack
    37d6:	1f 93       	push	r17                              ; Push onto stack
    37d8:	cf 93       	push	r28                              ; Push onto stack
    37da:	df 93       	push	r29                              ; Push onto stack
    37dc:	18 2f       	mov	r17, r24                          ; Move register to register
    37de:	09 2f       	mov	r16, r25                          ; Move register to register
    37e0:	eb 01       	movw	r28, r22
    37e2:	8b 81       	ldd	r24, Y+3	; 0x03
    37e4:	81 fd       	sbrc	r24, 1
    37e6:	09 c0       	rjmp	.+18     	;  0x37fa              ; Relative jump
    37e8:	1f ef       	ldi	r17, 0xFF	; 255                   ; Load immediate value
    37ea:	0f ef       	ldi	r16, 0xFF	; 255                   ; Load immediate value
    37ec:	81 2f       	mov	r24, r17                          ; Move register to register
    37ee:	90 2f       	mov	r25, r16                          ; Move register to register
    37f0:	df 91       	pop	r29                               ; Pop from stack
    37f2:	cf 91       	pop	r28                               ; Pop from stack
    37f4:	1f 91       	pop	r17                               ; Pop from stack
    37f6:	0f 91       	pop	r16                               ; Pop from stack
    37f8:	08 95       	ret
    37fa:	82 ff       	sbrs	r24, 2
    37fc:	14 c0       	rjmp	.+40     	;  0x3826              ; Relative jump
    37fe:	2e 81       	ldd	r18, Y+6	; 0x06
    3800:	3f 81       	ldd	r19, Y+7	; 0x07
    3802:	8c 81       	ldd	r24, Y+4	; 0x04
    3804:	9d 81       	ldd	r25, Y+5	; 0x05
    3806:	28 17       	cp	r18, r24
    3808:	39 07       	cpc	r19, r25
    380a:	3c f4       	brge	.+14     	;  0x381a
    380c:	e8 81       	ld	r30, Y
    380e:	f9 81       	ldd	r31, Y+1	; 0x01
    3810:	cf 01       	movw	r24, r30
    3812:	01 96       	adiw	r24, 0x01	; 1
    3814:	99 83       	std	Y+1, r25	; 0x01
    3816:	88 83       	st	Y, r24
    3818:	10 83       	st	Z, r17
    381a:	8e 81       	ldd	r24, Y+6	; 0x06
    381c:	9f 81       	ldd	r25, Y+7	; 0x07
    381e:	01 96       	adiw	r24, 0x01	; 1
    3820:	9f 83       	std	Y+7, r25	; 0x07
    3822:	8e 83       	std	Y+6, r24	; 0x06
    3824:	e3 cf       	rjmp	.-58     	;  0x37ec              ; Relative jump
    3826:	e8 85       	ldd	r30, Y+8	; 0x08
    3828:	f9 85       	ldd	r31, Y+9	; 0x09
    382a:	81 2f       	mov	r24, r17                          ; Move register to register
    382c:	09 95       	icall
    382e:	89 2b       	or	r24, r25
    3830:	a1 f3       	breq	.-24     	;  0x381a              ; Branch if equal
    3832:	da cf       	rjmp	.-76     	;  0x37e8              ; Relative jump
    3834:	fa 01       	movw	r30, r20
    3836:	aa 27       	eor	r26, r26
    3838:	28 30       	cpi	r18, 0x08	; 8                     ; Compare with immediate
    383a:	51 f1       	breq	.+84     	;  0x3890              ; Branch if equal
    383c:	20 31       	cpi	r18, 0x10	; 16                    ; Compare with immediate
    383e:	81 f1       	breq	.+96     	;  0x38a0              ; Branch if equal
    3840:	e8 94       	clt
    3842:	6f 93       	push	r22                              ; Push onto stack
    3844:	6e 7f       	andi	r22, 0xFE	; 254
    3846:	6e 5f       	subi	r22, 0xFE	; 254
    3848:	7f 4f       	sbci	r23, 0xFF	; 255
    384a:	8f 4f       	sbci	r24, 0xFF	; 255
    384c:	9f 4f       	sbci	r25, 0xFF	; 255
    384e:	af 4f       	sbci	r26, 0xFF	; 255
    3850:	b1 e0       	ldi	r27, 0x01	; 1                     ; Load immediate value
    3852:	3e d0       	rcall	.+124    	;  0x38d0
    3854:	b4 e0       	ldi	r27, 0x04	; 4                     ; Load immediate value
    3856:	3c d0       	rcall	.+120    	;  0x38d0
    3858:	67 0f       	add	r22, r23
    385a:	78 1f       	adc	r23, r24
    385c:	89 1f       	adc	r24, r25
    385e:	9a 1f       	adc	r25, r26
    3860:	a1 1d       	adc	r26, r1
    3862:	68 0f       	add	r22, r24
    3864:	79 1f       	adc	r23, r25
    3866:	8a 1f       	adc	r24, r26
    3868:	91 1d       	adc	r25, r1
    386a:	a1 1d       	adc	r26, r1
    386c:	6a 0f       	add	r22, r26
    386e:	71 1d       	adc	r23, r1
    3870:	81 1d       	adc	r24, r1
    3872:	91 1d       	adc	r25, r1
    3874:	a1 1d       	adc	r26, r1
    3876:	20 d0       	rcall	.+64     	;  0x38b8
    3878:	09 f4       	brne	.+2      	;  0x387c              ; Branch if not equal
    387a:	68 94       	set
    387c:	3f 91       	pop	r19                               ; Pop from stack
    387e:	2a e0       	ldi	r18, 0x0A	; 10                    ; Load immediate value
    3880:	26 9f       	mul	r18, r22
    3882:	11 24       	eor	r1, r1
    3884:	30 19       	sub	r19, r0
    3886:	30 5d       	subi	r19, 0xD0	; 208
    3888:	31 93       	st	Z+, r19
    388a:	de f6       	brtc	.-74     	;  0x3842
    388c:	cf 01       	movw	r24, r30
    388e:	08 95       	ret
    3890:	46 2f       	mov	r20, r22                          ; Move register to register
    3892:	47 70       	andi	r20, 0x07	; 7
    3894:	40 5d       	subi	r20, 0xD0	; 208
    3896:	41 93       	st	Z+, r20
    3898:	b3 e0       	ldi	r27, 0x03	; 3                     ; Load immediate value
    389a:	0f d0       	rcall	.+30     	;  0x38ba
    389c:	c9 f7       	brne	.-14     	;  0x3890              ; Branch if not equal
    389e:	f6 cf       	rjmp	.-20     	;  0x388c              ; Relative jump
    38a0:	46 2f       	mov	r20, r22                          ; Move register to register
    38a2:	4f 70       	andi	r20, 0x0F	; 15
    38a4:	40 5d       	subi	r20, 0xD0	; 208
    38a6:	4a 33       	cpi	r20, 0x3A	; 58                    ; Compare with immediate
    38a8:	18 f0       	brcs	.+6      	;  0x38b0
    38aa:	49 5d       	subi	r20, 0xD9	; 217
    38ac:	31 fd       	sbrc	r19, 1
    38ae:	40 52       	subi	r20, 0x20	; 32
    38b0:	41 93       	st	Z+, r20
    38b2:	02 d0       	rcall	.+4      	;  0x38b8
    38b4:	a9 f7       	brne	.-22     	;  0x38a0              ; Branch if not equal
    38b6:	ea cf       	rjmp	.-44     	;  0x388c              ; Relative jump
    38b8:	b4 e0       	ldi	r27, 0x04	; 4                     ; Load immediate value
    38ba:	a6 95       	lsr	r26
    38bc:	97 95       	ror	r25
    38be:	87 95       	ror	r24
    38c0:	77 95       	ror	r23
    38c2:	67 95       	ror	r22
    38c4:	ba 95       	dec	r27
    38c6:	c9 f7       	brne	.-14     	;  0x38ba              ; Branch if not equal
    38c8:	00 97       	sbiw	r24, 0x00	; 0
    38ca:	61 05       	cpc	r22, r1
    38cc:	71 05       	cpc	r23, r1
    38ce:	08 95       	ret
    38d0:	9b 01       	movw	r18, r22
    38d2:	ac 01       	movw	r20, r24
    38d4:	0a 2e       	mov	r0, r26                           ; Move register to register
    38d6:	06 94       	lsr	r0
    38d8:	57 95       	ror	r21
    38da:	47 95       	ror	r20
    38dc:	37 95       	ror	r19
    38de:	27 95       	ror	r18
    38e0:	ba 95       	dec	r27
    38e2:	c9 f7       	brne	.-14     	;  0x38d6              ; Branch if not equal
    38e4:	62 0f       	add	r22, r18
    38e6:	73 1f       	adc	r23, r19
    38e8:	84 1f       	adc	r24, r20
    38ea:	95 1f       	adc	r25, r21
    38ec:	a0 1d       	adc	r26, r0
    38ee:	08 95       	ret
    38f0:	2f 92       	push	r2                               ; Push onto stack
    38f2:	3f 92       	push	r3                               ; Push onto stack
    38f4:	4f 92       	push	r4                               ; Push onto stack
    38f6:	5f 92       	push	r5                               ; Push onto stack
    38f8:	6f 92       	push	r6                               ; Push onto stack
    38fa:	7f 92       	push	r7                               ; Push onto stack
    38fc:	8f 92       	push	r8                               ; Push onto stack
    38fe:	9f 92       	push	r9                               ; Push onto stack
    3900:	af 92       	push	r10                              ; Push onto stack
    3902:	bf 92       	push	r11                              ; Push onto stack
    3904:	cf 92       	push	r12                              ; Push onto stack
    3906:	df 92       	push	r13                              ; Push onto stack
    3908:	ef 92       	push	r14                              ; Push onto stack
    390a:	ff 92       	push	r15                              ; Push onto stack
    390c:	0f 93       	push	r16                              ; Push onto stack
    390e:	1f 93       	push	r17                              ; Push onto stack
    3910:	cf 93       	push	r28                              ; Push onto stack
    3912:	df 93       	push	r29                              ; Push onto stack
    3914:	cd b7       	in	r28, 0x3d	; 61                     ; Input from I/O port
    3916:	de b7       	in	r29, 0x3e	; 62                     ; Input from I/O port
    3918:	ca 1b       	sub	r28, r26
    391a:	db 0b       	sbc	r29, r27
    391c:	0f b6       	in	r0, 0x3f	; 63                      ; Input from I/O port
    391e:	f8 94       	cli
    3920:	de bf       	out	0x3e, r29	; 62                    ; Output to I/O port
    3922:	0f be       	out	0x3f, r0	; 63                     ; Output to I/O port
    3924:	cd bf       	out	0x3d, r28	; 61                    ; Output to I/O port
    3926:	09 94       	ijmp
    3928:	2a 88       	ldd	r2, Y+18	; 0x12
    392a:	39 88       	ldd	r3, Y+17	; 0x11
    392c:	48 88       	ldd	r4, Y+16	; 0x10
    392e:	5f 84       	ldd	r5, Y+15	; 0x0f
    3930:	6e 84       	ldd	r6, Y+14	; 0x0e
    3932:	7d 84       	ldd	r7, Y+13	; 0x0d
    3934:	8c 84       	ldd	r8, Y+12	; 0x0c
    3936:	9b 84       	ldd	r9, Y+11	; 0x0b
    3938:	aa 84       	ldd	r10, Y+10	; 0x0a
    393a:	b9 84       	ldd	r11, Y+9	; 0x09
    393c:	c8 84       	ldd	r12, Y+8	; 0x08
    393e:	df 80       	ldd	r13, Y+7	; 0x07
    3940:	ee 80       	ldd	r14, Y+6	; 0x06
    3942:	fd 80       	ldd	r15, Y+5	; 0x05
    3944:	0c 81       	ldd	r16, Y+4	; 0x04
    3946:	1b 81       	ldd	r17, Y+3	; 0x03
    3948:	aa 81       	ldd	r26, Y+2	; 0x02
    394a:	b9 81       	ldd	r27, Y+1	; 0x01
    394c:	ce 0f       	add	r28, r30
    394e:	d1 1d       	adc	r29, r1
    3950:	0f b6       	in	r0, 0x3f	; 63                      ; Input from I/O port
    3952:	f8 94       	cli
    3954:	de bf       	out	0x3e, r29	; 62                    ; Output to I/O port
    3956:	0f be       	out	0x3f, r0	; 63                     ; Output to I/O port
    3958:	cd bf       	out	0x3d, r28	; 61                    ; Output to I/O port
    395a:	ed 01       	movw	r28, r26
    395c:	08 95       	ret
    395e:	db 01       	movw	r26, r22
    3960:	8f 93       	push	r24                              ; Push onto stack
    3962:	9f 93       	push	r25                              ; Push onto stack
    3964:	0e 94 1a 1d 	call	0x3a34	;  0x3a34                 ; Function call
    3968:	bf 91       	pop	r27                               ; Pop from stack
    396a:	af 91       	pop	r26                               ; Pop from stack
    396c:	a2 9f       	mul	r26, r18
    396e:	80 0d       	add	r24, r0
    3970:	91 1d       	adc	r25, r1
    3972:	a3 9f       	mul	r26, r19
    3974:	90 0d       	add	r25, r0
    3976:	b2 9f       	mul	r27, r18
    3978:	90 0d       	add	r25, r0
    397a:	11 24       	eor	r1, r1
    397c:	08 95       	ret
    397e:	97 fb       	bst	r25, 7
    3980:	07 2e       	mov	r0, r23                           ; Move register to register
    3982:	16 f4       	brtc	.+4      	;  0x3988
    3984:	00 94       	com	r0
    3986:	07 d0       	rcall	.+14     	;  0x3996
    3988:	77 fd       	sbrc	r23, 7
    398a:	09 d0       	rcall	.+18     	;  0x399e
    398c:	0e 94 25 1d 	call	0x3a4a	;  0x3a4a                 ; Function call
    3990:	07 fc       	sbrc	r0, 7
    3992:	05 d0       	rcall	.+10     	;  0x399e
    3994:	3e f4       	brtc	.+14     	;  0x39a4
    3996:	90 95       	com	r25
    3998:	81 95       	neg	r24
    399a:	9f 4f       	sbci	r25, 0xFF	; 255
    399c:	08 95       	ret
    399e:	70 95       	com	r23
    39a0:	61 95       	neg	r22
    39a2:	7f 4f       	sbci	r23, 0xFF	; 255
    39a4:	08 95       	ret
    39a6:	a1 e2       	ldi	r26, 0x21	; 33                    ; Load immediate value
    39a8:	1a 2e       	mov	r1, r26                           ; Move register to register
    39aa:	aa 1b       	sub	r26, r26
    39ac:	bb 1b       	sub	r27, r27
    39ae:	fd 01       	movw	r30, r26
    39b0:	0d c0       	rjmp	.+26     	;  0x39cc              ; Relative jump
    39b2:	aa 1f       	adc	r26, r26
    39b4:	bb 1f       	adc	r27, r27
    39b6:	ee 1f       	adc	r30, r30
    39b8:	ff 1f       	adc	r31, r31
    39ba:	a2 17       	cp	r26, r18
    39bc:	b3 07       	cpc	r27, r19
    39be:	e4 07       	cpc	r30, r20
    39c0:	f5 07       	cpc	r31, r21
    39c2:	20 f0       	brcs	.+8      	;  0x39cc
    39c4:	a2 1b       	sub	r26, r18
    39c6:	b3 0b       	sbc	r27, r19
    39c8:	e4 0b       	sbc	r30, r20
    39ca:	f5 0b       	sbc	r31, r21
    39cc:	66 1f       	adc	r22, r22
    39ce:	77 1f       	adc	r23, r23
    39d0:	88 1f       	adc	r24, r24
    39d2:	99 1f       	adc	r25, r25
    39d4:	1a 94       	dec	r1
    39d6:	69 f7       	brne	.-38     	;  0x39b2              ; Branch if not equal
    39d8:	60 95       	com	r22
    39da:	70 95       	com	r23
    39dc:	80 95       	com	r24
    39de:	90 95       	com	r25
    39e0:	9b 01       	movw	r18, r22
    39e2:	ac 01       	movw	r20, r24
    39e4:	bd 01       	movw	r22, r26
    39e6:	cf 01       	movw	r24, r30
    39e8:	08 95       	ret
    39ea:	05 2e       	mov	r0, r21                           ; Move register to register
    39ec:	97 fb       	bst	r25, 7
    39ee:	1e f4       	brtc	.+6      	;  0x39f6
    39f0:	00 94       	com	r0
    39f2:	0e 94 0c 1d 	call	0x3a18	;  0x3a18                 ; Function call
    39f6:	57 fd       	sbrc	r21, 7
    39f8:	07 d0       	rcall	.+14     	;  0x3a08
    39fa:	0e 94 d3 1c 	call	0x39a6	;  0x39a6                 ; Function call
    39fe:	07 fc       	sbrc	r0, 7
    3a00:	03 d0       	rcall	.+6      	;  0x3a08
    3a02:	4e f4       	brtc	.+18     	;  0x3a16
    3a04:	0c 94 0c 1d 	jmp	0x3a18	;  0x3a18                  ; Jump
    3a08:	50 95       	com	r21
    3a0a:	40 95       	com	r20
    3a0c:	30 95       	com	r19
    3a0e:	21 95       	neg	r18
    3a10:	3f 4f       	sbci	r19, 0xFF	; 255
    3a12:	4f 4f       	sbci	r20, 0xFF	; 255
    3a14:	5f 4f       	sbci	r21, 0xFF	; 255
    3a16:	08 95       	ret
    3a18:	90 95       	com	r25
    3a1a:	80 95       	com	r24
    3a1c:	70 95       	com	r23
    3a1e:	61 95       	neg	r22
    3a20:	7f 4f       	sbci	r23, 0xFF	; 255
    3a22:	8f 4f       	sbci	r24, 0xFF	; 255
    3a24:	9f 4f       	sbci	r25, 0xFF	; 255
    3a26:	08 95       	ret
    3a28:	ee 0f       	add	r30, r30
    3a2a:	ff 1f       	adc	r31, r31
    3a2c:	05 90       	lpm	r0, Z+
    3a2e:	f4 91       	lpm	r31, Z
    3a30:	e0 2d       	mov	r30, r0                           ; Move register to register
    3a32:	09 94       	ijmp
    3a34:	0e 94 39 1d 	call	0x3a72	;  0x3a72                 ; Function call
    3a38:	a5 9f       	mul	r26, r21
    3a3a:	90 0d       	add	r25, r0
    3a3c:	b4 9f       	mul	r27, r20
    3a3e:	90 0d       	add	r25, r0
    3a40:	a4 9f       	mul	r26, r20
    3a42:	80 0d       	add	r24, r0
    3a44:	91 1d       	adc	r25, r1
    3a46:	11 24       	eor	r1, r1
    3a48:	08 95       	ret
    3a4a:	aa 1b       	sub	r26, r26
    3a4c:	bb 1b       	sub	r27, r27
    3a4e:	51 e1       	ldi	r21, 0x11	; 17                    ; Load immediate value
    3a50:	07 c0       	rjmp	.+14     	;  0x3a60              ; Relative jump
    3a52:	aa 1f       	adc	r26, r26
    3a54:	bb 1f       	adc	r27, r27
    3a56:	a6 17       	cp	r26, r22
    3a58:	b7 07       	cpc	r27, r23
    3a5a:	10 f0       	brcs	.+4      	;  0x3a60
    3a5c:	a6 1b       	sub	r26, r22
    3a5e:	b7 0b       	sbc	r27, r23
    3a60:	88 1f       	adc	r24, r24
    3a62:	99 1f       	adc	r25, r25
    3a64:	5a 95       	dec	r21
    3a66:	a9 f7       	brne	.-22     	;  0x3a52              ; Branch if not equal
    3a68:	80 95       	com	r24
    3a6a:	90 95       	com	r25
    3a6c:	bc 01       	movw	r22, r24
    3a6e:	cd 01       	movw	r24, r26
    3a70:	08 95       	ret
    3a72:	a2 9f       	mul	r26, r18
    3a74:	b0 01       	movw	r22, r0
    3a76:	b3 9f       	mul	r27, r19
    3a78:	c0 01       	movw	r24, r0
    3a7a:	a3 9f       	mul	r26, r19
    3a7c:	70 0d       	add	r23, r0
    3a7e:	81 1d       	adc	r24, r1
    3a80:	11 24       	eor	r1, r1
    3a82:	91 1d       	adc	r25, r1
    3a84:	b2 9f       	mul	r27, r18
    3a86:	70 0d       	add	r23, r0
    3a88:	81 1d       	adc	r24, r1
    3a8a:	11 24       	eor	r1, r1
    3a8c:	91 1d       	adc	r25, r1
    3a8e:	08 95       	ret
    3a90:	ae e0       	ldi	r26, 0x0E	; 14                    ; Load immediate value
    3a92:	b0 e0       	ldi	r27, 0x00	; 0                     ; Load immediate value
    3a94:	ee e4       	ldi	r30, 0x4E	; 78                    ; Load immediate value
    3a96:	fd e1       	ldi	r31, 0x1D	; 29                    ; Load immediate value
    3a98:	0c 94 86 1c 	jmp	0x390c	;  0x390c                  ; Jump
    3a9c:	0d 89       	ldd	r16, Y+21	; 0x15
    3a9e:	1e 89       	ldd	r17, Y+22	; 0x16
    3aa0:	8f 89       	ldd	r24, Y+23	; 0x17
    3aa2:	98 8d       	ldd	r25, Y+24	; 0x18
    3aa4:	26 e0       	ldi	r18, 0x06	; 6                     ; Load immediate value
    3aa6:	2c 83       	std	Y+4, r18	; 0x04
    3aa8:	1a 83       	std	Y+2, r17	; 0x02
    3aaa:	09 83       	std	Y+1, r16	; 0x01
    3aac:	97 ff       	sbrs	r25, 7
    3aae:	02 c0       	rjmp	.+4      	;  0x3ab4              ; Relative jump
    3ab0:	80 e0       	ldi	r24, 0x00	; 0                     ; Load immediate value
    3ab2:	90 e8       	ldi	r25, 0x80	; 128                   ; Load immediate value
    3ab4:	01 97       	sbiw	r24, 0x01	; 1
    3ab6:	9e 83       	std	Y+6, r25	; 0x06
    3ab8:	8d 83       	std	Y+5, r24	; 0x05
    3aba:	ae 01       	movw	r20, r28
    3abc:	45 5e       	subi	r20, 0xE5	; 229
    3abe:	5f 4f       	sbci	r21, 0xFF	; 255
    3ac0:	69 8d       	ldd	r22, Y+25	; 0x19
    3ac2:	7a 8d       	ldd	r23, Y+26	; 0x1a
    3ac4:	ce 01       	movw	r24, r28
    3ac6:	01 96       	adiw	r24, 0x01	; 1
    3ac8:	0e 94 fa 19 	call	0x33f4	;  0x33f4                 ; Function call
    3acc:	4d 81       	ldd	r20, Y+5	; 0x05
    3ace:	5e 81       	ldd	r21, Y+6	; 0x06
    3ad0:	57 fd       	sbrc	r21, 7
    3ad2:	0a c0       	rjmp	.+20     	;  0x3ae8              ; Relative jump
    3ad4:	2f 81       	ldd	r18, Y+7	; 0x07
    3ad6:	38 85       	ldd	r19, Y+8	; 0x08
    3ad8:	42 17       	cp	r20, r18
    3ada:	53 07       	cpc	r21, r19
    3adc:	0c f4       	brge	.+2      	;  0x3ae0
    3ade:	9a 01       	movw	r18, r20
    3ae0:	02 0f       	add	r16, r18
    3ae2:	13 1f       	adc	r17, r19
    3ae4:	f8 01       	movw	r30, r16
    3ae6:	10 82       	st	Z, r1
    3ae8:	2e 96       	adiw	r28, 0x0e	; 14
    3aea:	e4 e0       	ldi	r30, 0x04	; 4                     ; Load immediate value
    3aec:	0c 94 a2 1c 	jmp	0x3944	;  0x3944                  ; Jump
    3af0:	f8 94       	cli
    3af2:	ff cf       	rjmp	.-2      	;  0x3af2              ; Relative jump
    3af4:	ff ff       	.word	0xffff	; ????
    3af6:	ff ff       	.word	0xffff	; ????
    3af8:	00 e1       	ldi	r16, 0x10	; 16                    ; Load immediate value
    3afa:	00 00       	nop
    3afc:	00 00       	nop
    3afe:	00 00       	nop
    3b00:	00 c1       	rjmp	.+512    	;  0x3d02              ; Relative jump
    3b02:	80 81       	ld	r24, Z
    3b04:	00 00       	nop
    3b06:	00 5f       	subi	r16, 0xF0	; 240
    3b08:	5f 5f       	subi	r21, 0xFF	; 255
    3b0a:	60 60       	ori	r22, 0x00	; 0
    3b0c:	60 61       	ori	r22, 0x10	; 16
    3b0e:	61 61       	ori	r22, 0x11	; 17
    3b10:	61 61       	ori	r22, 0x11	; 17
    3b12:	62 62       	ori	r22, 0x22	; 34
    3b14:	62 62       	ori	r22, 0x22	; 34
    3b16:	62 63       	ori	r22, 0x32	; 50
    3b18:	63 63       	ori	r22, 0x33	; 51
    3b1a:	63 63       	ori	r22, 0x33	; 51
    3b1c:	63 63       	ori	r22, 0x33	; 51
    3b1e:	63 64       	ori	r22, 0x43	; 67
    3b20:	64 64       	ori	r22, 0x44	; 68
    3b22:	64 64       	ori	r22, 0x44	; 68
    3b24:	64 64       	ori	r22, 0x44	; 68
    3b26:	64 64       	ori	r22, 0x44	; 68
    3b28:	64 64       	ori	r22, 0x44	; 68
    3b2a:	64 64       	ori	r22, 0x44	; 68
    3b2c:	64 64       	ori	r22, 0x44	; 68
    3b2e:	64 64       	ori	r22, 0x44	; 68
    3b30:	64 64       	ori	r22, 0x44	; 68
    3b32:	64 63       	ori	r22, 0x34	; 52
    3b34:	63 63       	ori	r22, 0x33	; 51
    3b36:	63 63       	ori	r22, 0x33	; 51
    3b38:	63 63       	ori	r22, 0x33	; 51
    3b3a:	63 62       	ori	r22, 0x23	; 35
    3b3c:	62 62       	ori	r22, 0x22	; 34
    3b3e:	62 62       	ori	r22, 0x22	; 34
    3b40:	62 61       	ori	r22, 0x12	; 18
    3b42:	61 61       	ori	r22, 0x11	; 17
    3b44:	61 60       	ori	r22, 0x01	; 1
    3b46:	60 60       	ori	r22, 0x00	; 0
    3b48:	60 5f       	subi	r22, 0xF0	; 240
    3b4a:	5f 5f       	subi	r21, 0xFF	; 255
    3b4c:	5e 5e       	subi	r21, 0xEE	; 238
    3b4e:	5e 5d       	subi	r21, 0xDE	; 222
    3b50:	5d 5d       	subi	r21, 0xDD	; 221
    3b52:	5c 5c       	subi	r21, 0xCC	; 204
    3b54:	5c 5b       	subi	r21, 0xBC	; 188
    3b56:	5b 5a       	subi	r21, 0xAB	; 171
    3b58:	5a 59       	subi	r21, 0x9A	; 154
    3b5a:	59 59       	subi	r21, 0x99	; 153
    3b5c:	58 58       	subi	r21, 0x88	; 136
    3b5e:	57 57       	subi	r21, 0x77	; 119
    3b60:	56 56       	subi	r21, 0x66	; 102
    3b62:	55 55       	subi	r21, 0x55	; 85
    3b64:	54 54       	subi	r21, 0x44	; 68
    3b66:	53 52       	subi	r21, 0x23	; 35
    3b68:	52 51       	subi	r21, 0x12	; 18
    3b6a:	51 50       	subi	r21, 0x01	; 1
    3b6c:	50 4f       	sbci	r21, 0xF0	; 240
    3b6e:	4e 4e       	sbci	r20, 0xEE	; 238
    3b70:	4d 4c       	sbci	r20, 0xCD	; 205
    3b72:	4c 4b       	sbci	r20, 0xBC	; 188
    3b74:	4a 4a       	sbci	r20, 0xAA	; 170
    3b76:	49 48       	sbci	r20, 0x89	; 137
    3b78:	48 47       	sbci	r20, 0x78	; 120
    3b7a:	46 45       	sbci	r20, 0x56	; 86
    3b7c:	45 44       	sbci	r20, 0x45	; 69
    3b7e:	43 42       	sbci	r20, 0x23	; 35
    3b80:	42 41       	sbci	r20, 0x12	; 18
    3b82:	40 3f       	cpi	r20, 0xF0	; 240                   ; Compare with immediate
    3b84:	3e 3e       	cpi	r19, 0xEE	; 238                   ; Compare with immediate
    3b86:	3d 3c       	cpi	r19, 0xCD	; 205                   ; Compare with immediate
    3b88:	3b 3a       	cpi	r19, 0xAB	; 171                   ; Compare with immediate
    3b8a:	39 38       	cpi	r19, 0x89	; 137                   ; Compare with immediate
    3b8c:	38 37       	cpi	r19, 0x78	; 120                   ; Compare with immediate
    3b8e:	36 35       	cpi	r19, 0x56	; 86                    ; Compare with immediate
    3b90:	34 33       	cpi	r19, 0x34	; 52                    ; Compare with immediate
    3b92:	32 31       	cpi	r19, 0x12	; 18                    ; Compare with immediate
    3b94:	30 2f       	mov	r19, r16                          ; Move register to register
    3b96:	2e 2d       	mov	r18, r14                          ; Move register to register
    3b98:	2c 2b       	or	r18, r28
    3b9a:	2a 29       	or	r18, r10
    3b9c:	28 27       	eor	r18, r24
    3b9e:	26 25       	eor	r18, r6
    3ba0:	24 23       	and	r18, r20
    3ba2:	22 21       	and	r18, r2
    3ba4:	1f 1e       	adc	r1, r31
    3ba6:	1d 1c       	adc	r1, r13
    3ba8:	1b 1a       	sub	r1, r27
    3baa:	19 17       	cp	r17, r25
    3bac:	16 15       	cp	r17, r6
    3bae:	14 13       	cpse	r17, r20
    3bb0:	11 10       	cpse	r1, r1
    3bb2:	0f 0e       	add	r0, r31
    3bb4:	0c 0b       	sbc	r16, r28
    3bb6:	0a 09       	sbc	r16, r10
    3bb8:	07 06       	cpc	r0, r23
    3bba:	05 03       	mulsu	r16, r21
    3bbc:	02 01       	movw	r0, r4
    3bbe:	00 30       	cpi	r16, 0x00	; 0                     ; Compare with immediate
    3bc0:	30 30       	cpi	r19, 0x00	; 0                     ; Compare with immediate
    3bc2:	30 31       	cpi	r19, 0x10	; 16                    ; Compare with immediate
    3bc4:	00 00       	nop
    3bc6:	00 00       	nop
    3bc8:	00 a6       	std	Z+40, r0	; 0x28
    3bca:	02 33       	cpi	r16, 0x32	; 50                    ; Compare with immediate
    3bcc:	04 e2       	ldi	r16, 0x24	; 36                    ; Load immediate value
    3bce:	02 d7       	rcall	.+3588   	;  0x49d4
    3bd0:	02 28       	or	r0, r2
    3bd2:	03 e6       	ldi	r16, 0x63	; 99                    ; Load immediate value
    3bd4:	02 04       	cpc	r0, r2
    3bd6:	03 00       	.word	0x0003	; ????
    3bd8:	00 00       	nop
    3bda:	00 bc       	out	0x20, r0	; 32                     ; Output to I/O port
    3bdc:	0d 8f       	std	Y+29, r16	; 0x1d
    3bde:	0d eb       	ldi	r16, 0xBD	; 189                   ; Load immediate value
    3be0:	0d 65       	ori	r16, 0x5D	; 93
    3be2:	0d 88       	ldd	r0, Y+21	; 0x15
    3be4:	0d 75       	andi	r16, 0x5D	; 93
    3be6:	0d 66       	ori	r16, 0x6D	; 109
    3be8:	0d 0d       	add	r16, r13
    3bea:	0a 00       	.word	0x000a	; ????
    3bec:	48 52       	subi	r20, 0x28	; 40
    3bee:	3a 20       	and	r3, r10
    3bf0:	25 64       	ori	r18, 0x45	; 69
    3bf2:	2c 20       	and	r2, r12
    3bf4:	53 70       	andi	r21, 0x03	; 3
    3bf6:	4f 32       	cpi	r20, 0x2F	; 47                    ; Compare with immediate
    3bf8:	3a 20       	and	r3, r10
    3bfa:	25 64       	ori	r18, 0x45	; 69
    3bfc:	00 53       	subi	r16, 0x30	; 48
    3bfe:	65 6e       	ori	r22, 0xE5	; 229
    3c00:	64 69       	ori	r22, 0x94	; 148
    3c02:	6e 67       	ori	r22, 0x7E	; 126
    3c04:	3a 20       	and	r3, r10
    3c06:	00 53       	subi	r16, 0x30	; 48
    3c08:	65 72       	andi	r22, 0x25	; 37
    3c0a:	69 61       	ori	r22, 0x19	; 25
    3c0c:	6c 20       	and	r6, r12
    3c0e:	73 74       	andi	r23, 0x43	; 67
    3c10:	61 72       	andi	r22, 0x21	; 33
    3c12:	74 65       	ori	r23, 0x54	; 84
    3c14:	64 00       	.word	0x0064	; ????
    3c16:	52 61       	ori	r21, 0x12	; 18
    3c18:	64 69       	ori	r22, 0x94	; 148
    3c1a:	6f 20       	and	r6, r15
    3c1c:	73 74       	andi	r23, 0x43	; 67
    3c1e:	61 72       	andi	r22, 0x21	; 33
    3c20:	74 65       	ori	r23, 0x54	; 84
    3c22:	64 00       	.word	0x0064	; ????
    3c24:	50 69       	ori	r21, 0x90	; 144
    3c26:	70 65       	ori	r23, 0x50	; 80
    3c28:	20 6f       	ori	r18, 0xF0	; 240
    3c2a:	70 65       	ori	r23, 0x50	; 80
    3c2c:	6e 00       	.word	0x006e	; ????
    3c2e:	52 61       	ori	r21, 0x12	; 18
    3c30:	64 69       	ori	r22, 0x94	; 148
    3c32:	6f 20       	and	r6, r15
    3c34:	6f 70       	andi	r22, 0x0F	; 15
    3c36:	65 72       	andi	r22, 0x25	; 37
    3c38:	61 74       	andi	r22, 0x41	; 65
    3c3a:	69 6e       	ori	r22, 0xE9	; 233
    3c3c:	67 20       	and	r6, r7
    3c3e:	61 73       	andi	r22, 0x31	; 49
    3c40:	20 74       	andi	r18, 0x40	; 64
    3c42:	72 61       	ori	r23, 0x12	; 18
    3c44:	6e 73       	andi	r22, 0x3E	; 62
    3c46:	6d 69       	ori	r22, 0x9D	; 157
    3c48:	74 74       	andi	r23, 0x44	; 68
    3c4a:	65 72       	andi	r22, 0x25	; 37
    3c4c:	00 00       	nop
    3c4e:	ff ff       	.word	0xffff	; ????
    3c50:	ff ff       	.word	0xffff	; ????
    3c52:	ff ff       	.word	0xffff	; ????
    3c54:	ff ff       	.word	0xffff	; ????
    3c56:	ff ff       	.word	0xffff	; ????
    3c58:	ff ff       	.word	0xffff	; ????
    3c5a:	ff ff       	.word	0xffff	; ????
    3c5c:	ff ff       	.word	0xffff	; ????
    3c5e:	ff ff       	.word	0xffff	; ????
    3c60:	ff ff       	.word	0xffff	; ????
    3c62:	ff ff       	.word	0xffff	; ????
    3c64:	ff ff       	.word	0xffff	; ????
    3c66:	ff ff       	.word	0xffff	; ????
    3c68:	ff ff       	.word	0xffff	; ????
    3c6a:	ff ff       	.word	0xffff	; ????
    3c6c:	ff ff       	.word	0xffff	; ????
    3c6e:	ff ff       	.word	0xffff	; ????
    3c70:	ff ff       	.word	0xffff	; ????
    3c72:	ff ff       	.word	0xffff	; ????
    3c74:	ff ff       	.word	0xffff	; ????
    3c76:	ff ff       	.word	0xffff	; ????
    3c78:	ff ff       	.word	0xffff	; ????
    3c7a:	ff ff       	.word	0xffff	; ????
    3c7c:	ff ff       	.word	0xffff	; ????
    3c7e:	ff ff       	.word	0xffff	; ????
    3c80:	ff ff       	.word	0xffff	; ????
    3c82:	ff ff       	.word	0xffff	; ????
    3c84:	ff ff       	.word	0xffff	; ????
    3c86:	ff ff       	.word	0xffff	; ????
    3c88:	ff ff       	.word	0xffff	; ????
    3c8a:	ff ff       	.word	0xffff	; ????
    3c8c:	ff ff       	.word	0xffff	; ????
    3c8e:	ff ff       	.word	0xffff	; ????
    3c90:	ff ff       	.word	0xffff	; ????
    3c92:	ff ff       	.word	0xffff	; ????
    3c94:	ff ff       	.word	0xffff	; ????
    3c96:	ff ff       	.word	0xffff	; ????
    3c98:	ff ff       	.word	0xffff	; ????
    3c9a:	ff ff       	.word	0xffff	; ????
    3c9c:	ff ff       	.word	0xffff	; ????
    3c9e:	ff ff       	.word	0xffff	; ????
    3ca0:	ff ff       	.word	0xffff	; ????
    3ca2:	ff ff       	.word	0xffff	; ????
    3ca4:	ff ff       	.word	0xffff	; ????
    3ca6:	ff ff       	.word	0xffff	; ????
    3ca8:	ff ff       	.word	0xffff	; ????
    3caa:	ff ff       	.word	0xffff	; ????
    3cac:	ff ff       	.word	0xffff	; ????
    3cae:	ff ff       	.word	0xffff	; ????
    3cb0:	ff ff       	.word	0xffff	; ????
    3cb2:	ff ff       	.word	0xffff	; ????
    3cb4:	ff ff       	.word	0xffff	; ????
    3cb6:	ff ff       	.word	0xffff	; ????
    3cb8:	ff ff       	.word	0xffff	; ????
    3cba:	ff ff       	.word	0xffff	; ????
    3cbc:	ff ff       	.word	0xffff	; ????
    3cbe:	ff ff       	.word	0xffff	; ????
    3cc0:	ff ff       	.word	0xffff	; ????
    3cc2:	ff ff       	.word	0xffff	; ????
    3cc4:	ff ff       	.word	0xffff	; ????
    3cc6:	ff ff       	.word	0xffff	; ????
    3cc8:	ff ff       	.word	0xffff	; ????
    3cca:	ff ff       	.word	0xffff	; ????
    3ccc:	ff ff       	.word	0xffff	; ????
    3cce:	ff ff       	.word	0xffff	; ????
    3cd0:	ff ff       	.word	0xffff	; ????
    3cd2:	ff ff       	.word	0xffff	; ????
    3cd4:	ff ff       	.word	0xffff	; ????
    3cd6:	ff ff       	.word	0xffff	; ????
    3cd8:	ff ff       	.word	0xffff	; ????
    3cda:	ff ff       	.word	0xffff	; ????
    3cdc:	ff ff       	.word	0xffff	; ????
    3cde:	ff ff       	.word	0xffff	; ????
    3ce0:	ff ff       	.word	0xffff	; ????
    3ce2:	ff ff       	.word	0xffff	; ????
    3ce4:	ff ff       	.word	0xffff	; ????
    3ce6:	ff ff       	.word	0xffff	; ????
    3ce8:	ff ff       	.word	0xffff	; ????
    3cea:	ff ff       	.word	0xffff	; ????
    3cec:	ff ff       	.word	0xffff	; ????
    3cee:	ff ff       	.word	0xffff	; ????
    3cf0:	ff ff       	.word	0xffff	; ????
    3cf2:	ff ff       	.word	0xffff	; ????
    3cf4:	ff ff       	.word	0xffff	; ????
    3cf6:	ff ff       	.word	0xffff	; ????
    3cf8:	ff ff       	.word	0xffff	; ????
    3cfa:	ff ff       	.word	0xffff	; ????
    3cfc:	ff ff       	.word	0xffff	; ????
    3cfe:	ff ff       	.word	0xffff	; ????
    3d00:	ff ff       	.word	0xffff	; ????
    3d02:	ff ff       	.word	0xffff	; ????
    3d04:	ff ff       	.word	0xffff	; ????
    3d06:	ff ff       	.word	0xffff	; ????
    3d08:	ff ff       	.word	0xffff	; ????
    3d0a:	ff ff       	.word	0xffff	; ????
    3d0c:	ff ff       	.word	0xffff	; ????
    3d0e:	ff ff       	.word	0xffff	; ????
    3d10:	ff ff       	.word	0xffff	; ????
    3d12:	ff ff       	.word	0xffff	; ????
    3d14:	ff ff       	.word	0xffff	; ????
    3d16:	ff ff       	.word	0xffff	; ????
    3d18:	ff ff       	.word	0xffff	; ????
    3d1a:	ff ff       	.word	0xffff	; ????
    3d1c:	ff ff       	.word	0xffff	; ????
    3d1e:	ff ff       	.word	0xffff	; ????
    3d20:	ff ff       	.word	0xffff	; ????
    3d22:	ff ff       	.word	0xffff	; ????
    3d24:	ff ff       	.word	0xffff	; ????
    3d26:	ff ff       	.word	0xffff	; ????
    3d28:	ff ff       	.word	0xffff	; ????
    3d2a:	ff ff       	.word	0xffff	; ????
    3d2c:	ff ff       	.word	0xffff	; ????
    3d2e:	ff ff       	.word	0xffff	; ????
    3d30:	ff ff       	.word	0xffff	; ????
    3d32:	ff ff       	.word	0xffff	; ????
    3d34:	ff ff       	.word	0xffff	; ????
    3d36:	ff ff       	.word	0xffff	; ????
    3d38:	ff ff       	.word	0xffff	; ????
    3d3a:	ff ff       	.word	0xffff	; ????
    3d3c:	ff ff       	.word	0xffff	; ????
    3d3e:	ff ff       	.word	0xffff	; ????
    3d40:	ff ff       	.word	0xffff	; ????
    3d42:	ff ff       	.word	0xffff	; ????
    3d44:	ff ff       	.word	0xffff	; ????
    3d46:	ff ff       	.word	0xffff	; ????
    3d48:	ff ff       	.word	0xffff	; ????
    3d4a:	ff ff       	.word	0xffff	; ????
    3d4c:	ff ff       	.word	0xffff	; ????
    3d4e:	ff ff       	.word	0xffff	; ????
    3d50:	ff ff       	.word	0xffff	; ????
    3d52:	ff ff       	.word	0xffff	; ????
    3d54:	ff ff       	.word	0xffff	; ????
    3d56:	ff ff       	.word	0xffff	; ????
    3d58:	ff ff       	.word	0xffff	; ????
    3d5a:	ff ff       	.word	0xffff	; ????
    3d5c:	ff ff       	.word	0xffff	; ????
    3d5e:	ff ff       	.word	0xffff	; ????
    3d60:	ff ff       	.word	0xffff	; ????
    3d62:	ff ff       	.word	0xffff	; ????
    3d64:	ff ff       	.word	0xffff	; ????
    3d66:	ff ff       	.word	0xffff	; ????
    3d68:	ff ff       	.word	0xffff	; ????
    3d6a:	ff ff       	.word	0xffff	; ????
    3d6c:	ff ff       	.word	0xffff	; ????
    3d6e:	ff ff       	.word	0xffff	; ????
    3d70:	ff ff       	.word	0xffff	; ????
    3d72:	ff ff       	.word	0xffff	; ????
    3d74:	ff ff       	.word	0xffff	; ????
    3d76:	ff ff       	.word	0xffff	; ????
    3d78:	ff ff       	.word	0xffff	; ????
    3d7a:	ff ff       	.word	0xffff	; ????
    3d7c:	ff ff       	.word	0xffff	; ????
    3d7e:	ff ff       	.word	0xffff	; ????
    3d80:	ff ff       	.word	0xffff	; ????
    3d82:	ff ff       	.word	0xffff	; ????
    3d84:	ff ff       	.word	0xffff	; ????
    3d86:	ff ff       	.word	0xffff	; ????
    3d88:	ff ff       	.word	0xffff	; ????
    3d8a:	ff ff       	.word	0xffff	; ????
    3d8c:	ff ff       	.word	0xffff	; ????
    3d8e:	ff ff       	.word	0xffff	; ????
    3d90:	ff ff       	.word	0xffff	; ????
    3d92:	ff ff       	.word	0xffff	; ????
    3d94:	ff ff       	.word	0xffff	; ????
    3d96:	ff ff       	.word	0xffff	; ????
    3d98:	ff ff       	.word	0xffff	; ????
    3d9a:	ff ff       	.word	0xffff	; ????
    3d9c:	ff ff       	.word	0xffff	; ????
    3d9e:	ff ff       	.word	0xffff	; ????
    3da0:	ff ff       	.word	0xffff	; ????
    3da2:	ff ff       	.word	0xffff	; ????
    3da4:	ff ff       	.word	0xffff	; ????
    3da6:	ff ff       	.word	0xffff	; ????
    3da8:	ff ff       	.word	0xffff	; ????
    3daa:	ff ff       	.word	0xffff	; ????
    3dac:	ff ff       	.word	0xffff	; ????
    3dae:	ff ff       	.word	0xffff	; ????
    3db0:	ff ff       	.word	0xffff	; ????
    3db2:	ff ff       	.word	0xffff	; ????
    3db4:	ff ff       	.word	0xffff	; ????
    3db6:	ff ff       	.word	0xffff	; ????
    3db8:	ff ff       	.word	0xffff	; ????
    3dba:	ff ff       	.word	0xffff	; ????
    3dbc:	ff ff       	.word	0xffff	; ????
    3dbe:	ff ff       	.word	0xffff	; ????
    3dc0:	ff ff       	.word	0xffff	; ????
    3dc2:	ff ff       	.word	0xffff	; ????
    3dc4:	ff ff       	.word	0xffff	; ????
    3dc6:	ff ff       	.word	0xffff	; ????
    3dc8:	ff ff       	.word	0xffff	; ????
    3dca:	ff ff       	.word	0xffff	; ????
    3dcc:	ff ff       	.word	0xffff	; ????
    3dce:	ff ff       	.word	0xffff	; ????
    3dd0:	ff ff       	.word	0xffff	; ????
    3dd2:	ff ff       	.word	0xffff	; ????
    3dd4:	ff ff       	.word	0xffff	; ????
    3dd6:	ff ff       	.word	0xffff	; ????
    3dd8:	ff ff       	.word	0xffff	; ????
    3dda:	ff ff       	.word	0xffff	; ????
    3ddc:	ff ff       	.word	0xffff	; ????
    3dde:	ff ff       	.word	0xffff	; ????
    3de0:	ff ff       	.word	0xffff	; ????
    3de2:	ff ff       	.word	0xffff	; ????
    3de4:	ff ff       	.word	0xffff	; ????
    3de6:	ff ff       	.word	0xffff	; ????
    3de8:	ff ff       	.word	0xffff	; ????
    3dea:	ff ff       	.word	0xffff	; ????
    3dec:	ff ff       	.word	0xffff	; ????
    3dee:	ff ff       	.word	0xffff	; ????
    3df0:	ff ff       	.word	0xffff	; ????
    3df2:	ff ff       	.word	0xffff	; ????
    3df4:	ff ff       	.word	0xffff	; ????
    3df6:	ff ff       	.word	0xffff	; ????
    3df8:	ff ff       	.word	0xffff	; ????
    3dfa:	ff ff       	.word	0xffff	; ????
    3dfc:	ff ff       	.word	0xffff	; ????
    3dfe:	ff ff       	.word	0xffff	; ????
    3e00:	ff ff       	.word	0xffff	; ????
    3e02:	ff ff       	.word	0xffff	; ????
    3e04:	ff ff       	.word	0xffff	; ????
    3e06:	ff ff       	.word	0xffff	; ????
    3e08:	ff ff       	.word	0xffff	; ????
    3e0a:	ff ff       	.word	0xffff	; ????
    3e0c:	ff ff       	.word	0xffff	; ????
    3e0e:	ff ff       	.word	0xffff	; ????
    3e10:	ff ff       	.word	0xffff	; ????
    3e12:	ff ff       	.word	0xffff	; ????
    3e14:	ff ff       	.word	0xffff	; ????
    3e16:	ff ff       	.word	0xffff	; ????
    3e18:	ff ff       	.word	0xffff	; ????
    3e1a:	ff ff       	.word	0xffff	; ????
    3e1c:	ff ff       	.word	0xffff	; ????
    3e1e:	ff ff       	.word	0xffff	; ????
    3e20:	ff ff       	.word	0xffff	; ????
    3e22:	ff ff       	.word	0xffff	; ????
    3e24:	ff ff       	.word	0xffff	; ????
    3e26:	ff ff       	.word	0xffff	; ????
    3e28:	ff ff       	.word	0xffff	; ????
    3e2a:	ff ff       	.word	0xffff	; ????
    3e2c:	ff ff       	.word	0xffff	; ????
    3e2e:	ff ff       	.word	0xffff	; ????
    3e30:	ff ff       	.word	0xffff	; ????
    3e32:	ff ff       	.word	0xffff	; ????
    3e34:	ff ff       	.word	0xffff	; ????
    3e36:	ff ff       	.word	0xffff	; ????
    3e38:	ff ff       	.word	0xffff	; ????
    3e3a:	ff ff       	.word	0xffff	; ????
    3e3c:	ff ff       	.word	0xffff	; ????
    3e3e:	ff ff       	.word	0xffff	; ????
    3e40:	ff ff       	.word	0xffff	; ????
    3e42:	ff ff       	.word	0xffff	; ????
    3e44:	ff ff       	.word	0xffff	; ????
    3e46:	ff ff       	.word	0xffff	; ????
    3e48:	ff ff       	.word	0xffff	; ????
    3e4a:	ff ff       	.word	0xffff	; ????
    3e4c:	ff ff       	.word	0xffff	; ????
    3e4e:	ff ff       	.word	0xffff	; ????
    3e50:	ff ff       	.word	0xffff	; ????
    3e52:	ff ff       	.word	0xffff	; ????
    3e54:	ff ff       	.word	0xffff	; ????
    3e56:	ff ff       	.word	0xffff	; ????
    3e58:	ff ff       	.word	0xffff	; ????
    3e5a:	ff ff       	.word	0xffff	; ????
    3e5c:	ff ff       	.word	0xffff	; ????
    3e5e:	ff ff       	.word	0xffff	; ????
    3e60:	ff ff       	.word	0xffff	; ????
    3e62:	ff ff       	.word	0xffff	; ????
    3e64:	ff ff       	.word	0xffff	; ????
    3e66:	ff ff       	.word	0xffff	; ????
    3e68:	ff ff       	.word	0xffff	; ????
    3e6a:	ff ff       	.word	0xffff	; ????
    3e6c:	ff ff       	.word	0xffff	; ????
    3e6e:	ff ff       	.word	0xffff	; ????
    3e70:	ff ff       	.word	0xffff	; ????
    3e72:	ff ff       	.word	0xffff	; ????
    3e74:	ff ff       	.word	0xffff	; ????
    3e76:	ff ff       	.word	0xffff	; ????
    3e78:	ff ff       	.word	0xffff	; ????
    3e7a:	ff ff       	.word	0xffff	; ????
    3e7c:	ff ff       	.word	0xffff	; ????
    3e7e:	ff ff       	.word	0xffff	; ????
    3e80:	ff ff       	.word	0xffff	; ????
    3e82:	ff ff       	.word	0xffff	; ????
    3e84:	ff ff       	.word	0xffff	; ????
    3e86:	ff ff       	.word	0xffff	; ????
    3e88:	ff ff       	.word	0xffff	; ????
    3e8a:	ff ff       	.word	0xffff	; ????
    3e8c:	ff ff       	.word	0xffff	; ????
    3e8e:	ff ff       	.word	0xffff	; ????
    3e90:	ff ff       	.word	0xffff	; ????
    3e92:	ff ff       	.word	0xffff	; ????
    3e94:	ff ff       	.word	0xffff	; ????
    3e96:	ff ff       	.word	0xffff	; ????
    3e98:	ff ff       	.word	0xffff	; ????
    3e9a:	ff ff       	.word	0xffff	; ????
    3e9c:	ff ff       	.word	0xffff	; ????
    3e9e:	ff ff       	.word	0xffff	; ????
    3ea0:	ff ff       	.word	0xffff	; ????
    3ea2:	ff ff       	.word	0xffff	; ????
    3ea4:	ff ff       	.word	0xffff	; ????
    3ea6:	ff ff       	.word	0xffff	; ????
    3ea8:	ff ff       	.word	0xffff	; ????
    3eaa:	ff ff       	.word	0xffff	; ????
    3eac:	ff ff       	.word	0xffff	; ????
    3eae:	ff ff       	.word	0xffff	; ????
    3eb0:	ff ff       	.word	0xffff	; ????
    3eb2:	ff ff       	.word	0xffff	; ????
    3eb4:	ff ff       	.word	0xffff	; ????
    3eb6:	ff ff       	.word	0xffff	; ????
    3eb8:	ff ff       	.word	0xffff	; ????
    3eba:	ff ff       	.word	0xffff	; ????
    3ebc:	ff ff       	.word	0xffff	; ????
    3ebe:	ff ff       	.word	0xffff	; ????
    3ec0:	ff ff       	.word	0xffff	; ????
    3ec2:	ff ff       	.word	0xffff	; ????
    3ec4:	ff ff       	.word	0xffff	; ????
    3ec6:	ff ff       	.word	0xffff	; ????
    3ec8:	ff ff       	.word	0xffff	; ????
    3eca:	ff ff       	.word	0xffff	; ????
    3ecc:	ff ff       	.word	0xffff	; ????
    3ece:	ff ff       	.word	0xffff	; ????
    3ed0:	ff ff       	.word	0xffff	; ????
    3ed2:	ff ff       	.word	0xffff	; ????
    3ed4:	ff ff       	.word	0xffff	; ????
    3ed6:	ff ff       	.word	0xffff	; ????
    3ed8:	ff ff       	.word	0xffff	; ????
    3eda:	ff ff       	.word	0xffff	; ????
    3edc:	ff ff       	.word	0xffff	; ????
    3ede:	ff ff       	.word	0xffff	; ????
    3ee0:	ff ff       	.word	0xffff	; ????
    3ee2:	ff ff       	.word	0xffff	; ????
    3ee4:	ff ff       	.word	0xffff	; ????
    3ee6:	ff ff       	.word	0xffff	; ????
    3ee8:	ff ff       	.word	0xffff	; ????
    3eea:	ff ff       	.word	0xffff	; ????
    3eec:	ff ff       	.word	0xffff	; ????
    3eee:	ff ff       	.word	0xffff	; ????
    3ef0:	ff ff       	.word	0xffff	; ????
    3ef2:	ff ff       	.word	0xffff	; ????
    3ef4:	ff ff       	.word	0xffff	; ????
    3ef6:	ff ff       	.word	0xffff	; ????
    3ef8:	ff ff       	.word	0xffff	; ????
    3efa:	ff ff       	.word	0xffff	; ????
    3efc:	ff ff       	.word	0xffff	; ????
    3efe:	ff ff       	.word	0xffff	; ????
    3f00:	ff ff       	.word	0xffff	; ????
    3f02:	ff ff       	.word	0xffff	; ????
    3f04:	ff ff       	.word	0xffff	; ????
    3f06:	ff ff       	.word	0xffff	; ????
    3f08:	ff ff       	.word	0xffff	; ????
    3f0a:	ff ff       	.word	0xffff	; ????
    3f0c:	ff ff       	.word	0xffff	; ????
    3f0e:	ff ff       	.word	0xffff	; ????
    3f10:	ff ff       	.word	0xffff	; ????
    3f12:	ff ff       	.word	0xffff	; ????
    3f14:	ff ff       	.word	0xffff	; ????
    3f16:	ff ff       	.word	0xffff	; ????
    3f18:	ff ff       	.word	0xffff	; ????
    3f1a:	ff ff       	.word	0xffff	; ????
    3f1c:	ff ff       	.word	0xffff	; ????
    3f1e:	ff ff       	.word	0xffff	; ????
    3f20:	ff ff       	.word	0xffff	; ????
    3f22:	ff ff       	.word	0xffff	; ????
    3f24:	ff ff       	.word	0xffff	; ????
    3f26:	ff ff       	.word	0xffff	; ????
    3f28:	ff ff       	.word	0xffff	; ????
    3f2a:	ff ff       	.word	0xffff	; ????
    3f2c:	ff ff       	.word	0xffff	; ????
    3f2e:	ff ff       	.word	0xffff	; ????
    3f30:	ff ff       	.word	0xffff	; ????
    3f32:	ff ff       	.word	0xffff	; ????
    3f34:	ff ff       	.word	0xffff	; ????
    3f36:	ff ff       	.word	0xffff	; ????
    3f38:	ff ff       	.word	0xffff	; ????
    3f3a:	ff ff       	.word	0xffff	; ????
    3f3c:	ff ff       	.word	0xffff	; ????
    3f3e:	ff ff       	.word	0xffff	; ????
    3f40:	ff ff       	.word	0xffff	; ????
    3f42:	ff ff       	.word	0xffff	; ????
    3f44:	ff ff       	.word	0xffff	; ????
    3f46:	ff ff       	.word	0xffff	; ????
    3f48:	ff ff       	.word	0xffff	; ????
    3f4a:	ff ff       	.word	0xffff	; ????
    3f4c:	ff ff       	.word	0xffff	; ????
    3f4e:	ff ff       	.word	0xffff	; ????
    3f50:	ff ff       	.word	0xffff	; ????
    3f52:	ff ff       	.word	0xffff	; ????
    3f54:	ff ff       	.word	0xffff	; ????
    3f56:	ff ff       	.word	0xffff	; ????
    3f58:	ff ff       	.word	0xffff	; ????
    3f5a:	ff ff       	.word	0xffff	; ????
    3f5c:	ff ff       	.word	0xffff	; ????
    3f5e:	ff ff       	.word	0xffff	; ????
    3f60:	ff ff       	.word	0xffff	; ????
    3f62:	ff ff       	.word	0xffff	; ????
    3f64:	ff ff       	.word	0xffff	; ????
    3f66:	ff ff       	.word	0xffff	; ????
    3f68:	ff ff       	.word	0xffff	; ????
    3f6a:	ff ff       	.word	0xffff	; ????
    3f6c:	ff ff       	.word	0xffff	; ????
    3f6e:	ff ff       	.word	0xffff	; ????
    3f70:	ff ff       	.word	0xffff	; ????
    3f72:	ff ff       	.word	0xffff	; ????
    3f74:	ff ff       	.word	0xffff	; ????
    3f76:	ff ff       	.word	0xffff	; ????
    3f78:	ff ff       	.word	0xffff	; ????
    3f7a:	ff ff       	.word	0xffff	; ????
    3f7c:	ff ff       	.word	0xffff	; ????
    3f7e:	ff ff       	.word	0xffff	; ????
    3f80:	ff ff       	.word	0xffff	; ????
    3f82:	ff ff       	.word	0xffff	; ????
    3f84:	ff ff       	.word	0xffff	; ????
    3f86:	ff ff       	.word	0xffff	; ????
    3f88:	ff ff       	.word	0xffff	; ????
    3f8a:	ff ff       	.word	0xffff	; ????
    3f8c:	ff ff       	.word	0xffff	; ????
    3f8e:	ff ff       	.word	0xffff	; ????
    3f90:	ff ff       	.word	0xffff	; ????
    3f92:	ff ff       	.word	0xffff	; ????
    3f94:	ff ff       	.word	0xffff	; ????
    3f96:	ff ff       	.word	0xffff	; ????
    3f98:	ff ff       	.word	0xffff	; ????
    3f9a:	ff ff       	.word	0xffff	; ????
    3f9c:	ff ff       	.word	0xffff	; ????
    3f9e:	ff ff       	.word	0xffff	; ????
    3fa0:	ff ff       	.word	0xffff	; ????
    3fa2:	ff ff       	.word	0xffff	; ????
    3fa4:	ff ff       	.word	0xffff	; ????
    3fa6:	ff ff       	.word	0xffff	; ????
    3fa8:	ff ff       	.word	0xffff	; ????
    3faa:	ff ff       	.word	0xffff	; ????
    3fac:	ff ff       	.word	0xffff	; ????
    3fae:	ff ff       	.word	0xffff	; ????
    3fb0:	ff ff       	.word	0xffff	; ????
    3fb2:	ff ff       	.word	0xffff	; ????
    3fb4:	ff ff       	.word	0xffff	; ????
    3fb6:	ff ff       	.word	0xffff	; ????
    3fb8:	ff ff       	.word	0xffff	; ????
    3fba:	ff ff       	.word	0xffff	; ????
    3fbc:	ff ff       	.word	0xffff	; ????
    3fbe:	ff ff       	.word	0xffff	; ????
    3fc0:	ff ff       	.word	0xffff	; ????
    3fc2:	ff ff       	.word	0xffff	; ????
    3fc4:	ff ff       	.word	0xffff	; ????
    3fc6:	ff ff       	.word	0xffff	; ????
    3fc8:	ff ff       	.word	0xffff	; ????
    3fca:	ff ff       	.word	0xffff	; ????
    3fcc:	ff ff       	.word	0xffff	; ????
    3fce:	ff ff       	.word	0xffff	; ????
    3fd0:	ff ff       	.word	0xffff	; ????
    3fd2:	ff ff       	.word	0xffff	; ????
    3fd4:	ff ff       	.word	0xffff	; ????
    3fd6:	ff ff       	.word	0xffff	; ????
    3fd8:	ff ff       	.word	0xffff	; ????
    3fda:	ff ff       	.word	0xffff	; ????
    3fdc:	ff ff       	.word	0xffff	; ????
    3fde:	ff ff       	.word	0xffff	; ????
    3fe0:	ff ff       	.word	0xffff	; ????
    3fe2:	ff ff       	.word	0xffff	; ????
    3fe4:	ff ff       	.word	0xffff	; ????
    3fe6:	ff ff       	.word	0xffff	; ????
    3fe8:	ff ff       	.word	0xffff	; ????
    3fea:	ff ff       	.word	0xffff	; ????
    3fec:	ff ff       	.word	0xffff	; ????
    3fee:	ff ff       	.word	0xffff	; ????
    3ff0:	ff ff       	.word	0xffff	; ????
    3ff2:	ff ff       	.word	0xffff	; ????
    3ff4:	ff ff       	.word	0xffff	; ????
    3ff6:	ff ff       	.word	0xffff	; ????
    3ff8:	ff ff       	.word	0xffff	; ????
    3ffa:	ff ff       	.word	0xffff	; ????
    3ffc:	ff ff       	.word	0xffff	; ????
    3ffe:	ff ff       	.word	0xffff	; ????
    4000:	ff ff       	.word	0xffff	; ????
    4002:	ff ff       	.word	0xffff	; ????
    4004:	ff ff       	.word	0xffff	; ????
    4006:	ff ff       	.word	0xffff	; ????
    4008:	ff ff       	.word	0xffff	; ????
    400a:	ff ff       	.word	0xffff	; ????
    400c:	ff ff       	.word	0xffff	; ????
    400e:	ff ff       	.word	0xffff	; ????
    4010:	ff ff       	.word	0xffff	; ????
    4012:	ff ff       	.word	0xffff	; ????
    4014:	ff ff       	.word	0xffff	; ????
    4016:	ff ff       	.word	0xffff	; ????
    4018:	ff ff       	.word	0xffff	; ????
    401a:	ff ff       	.word	0xffff	; ????
    401c:	ff ff       	.word	0xffff	; ????
    401e:	ff ff       	.word	0xffff	; ????
    4020:	ff ff       	.word	0xffff	; ????
    4022:	ff ff       	.word	0xffff	; ????
    4024:	ff ff       	.word	0xffff	; ????
    4026:	ff ff       	.word	0xffff	; ????
    4028:	ff ff       	.word	0xffff	; ????
    402a:	ff ff       	.word	0xffff	; ????
    402c:	ff ff       	.word	0xffff	; ????
    402e:	ff ff       	.word	0xffff	; ????
    4030:	ff ff       	.word	0xffff	; ????
    4032:	ff ff       	.word	0xffff	; ????
    4034:	ff ff       	.word	0xffff	; ????
    4036:	ff ff       	.word	0xffff	; ????
    4038:	ff ff       	.word	0xffff	; ????
    403a:	ff ff       	.word	0xffff	; ????
    403c:	ff ff       	.word	0xffff	; ????
    403e:	ff ff       	.word	0xffff	; ????
    4040:	ff ff       	.word	0xffff	; ????
    4042:	ff ff       	.word	0xffff	; ????
    4044:	ff ff       	.word	0xffff	; ????
    4046:	ff ff       	.word	0xffff	; ????
    4048:	ff ff       	.word	0xffff	; ????
    404a:	ff ff       	.word	0xffff	; ????
    404c:	ff ff       	.word	0xffff	; ????
    404e:	ff ff       	.word	0xffff	; ????
    4050:	ff ff       	.word	0xffff	; ????
    4052:	ff ff       	.word	0xffff	; ????
    4054:	ff ff       	.word	0xffff	; ????
    4056:	ff ff       	.word	0xffff	; ????
    4058:	ff ff       	.word	0xffff	; ????
    405a:	ff ff       	.word	0xffff	; ????
    405c:	ff ff       	.word	0xffff	; ????
    405e:	ff ff       	.word	0xffff	; ????
    4060:	ff ff       	.word	0xffff	; ????
    4062:	ff ff       	.word	0xffff	; ????
    4064:	ff ff       	.word	0xffff	; ????
    4066:	ff ff       	.word	0xffff	; ????
    4068:	ff ff       	.word	0xffff	; ????
    406a:	ff ff       	.word	0xffff	; ????
    406c:	ff ff       	.word	0xffff	; ????
    406e:	ff ff       	.word	0xffff	; ????
    4070:	ff ff       	.word	0xffff	; ????
    4072:	ff ff       	.word	0xffff	; ????
    4074:	ff ff       	.word	0xffff	; ????
    4076:	ff ff       	.word	0xffff	; ????
    4078:	ff ff       	.word	0xffff	; ????
    407a:	ff ff       	.word	0xffff	; ????
    407c:	ff ff       	.word	0xffff	; ????
    407e:	ff ff       	.word	0xffff	; ????
    4080:	ff ff       	.word	0xffff	; ????
    4082:	ff ff       	.word	0xffff	; ????
    4084:	ff ff       	.word	0xffff	; ????
    4086:	ff ff       	.word	0xffff	; ????
    4088:	ff ff       	.word	0xffff	; ????
    408a:	ff ff       	.word	0xffff	; ????
    408c:	ff ff       	.word	0xffff	; ????
    408e:	ff ff       	.word	0xffff	; ????
    4090:	ff ff       	.word	0xffff	; ????
    4092:	ff ff       	.word	0xffff	; ????
    4094:	ff ff       	.word	0xffff	; ????
    4096:	ff ff       	.word	0xffff	; ????
    4098:	ff ff       	.word	0xffff	; ????
    409a:	ff ff       	.word	0xffff	; ????
    409c:	ff ff       	.word	0xffff	; ????
    409e:	ff ff       	.word	0xffff	; ????
    40a0:	ff ff       	.word	0xffff	; ????
    40a2:	ff ff       	.word	0xffff	; ????
    40a4:	ff ff       	.word	0xffff	; ????
    40a6:	ff ff       	.word	0xffff	; ????
    40a8:	ff ff       	.word	0xffff	; ????
    40aa:	ff ff       	.word	0xffff	; ????
    40ac:	ff ff       	.word	0xffff	; ????
    40ae:	ff ff       	.word	0xffff	; ????
    40b0:	ff ff       	.word	0xffff	; ????
    40b2:	ff ff       	.word	0xffff	; ????
    40b4:	ff ff       	.word	0xffff	; ????
    40b6:	ff ff       	.word	0xffff	; ????
    40b8:	ff ff       	.word	0xffff	; ????
    40ba:	ff ff       	.word	0xffff	; ????
    40bc:	ff ff       	.word	0xffff	; ????
    40be:	ff ff       	.word	0xffff	; ????
    40c0:	ff ff       	.word	0xffff	; ????
    40c2:	ff ff       	.word	0xffff	; ????
    40c4:	ff ff       	.word	0xffff	; ????
    40c6:	ff ff       	.word	0xffff	; ????
    40c8:	ff ff       	.word	0xffff	; ????
    40ca:	ff ff       	.word	0xffff	; ????
    40cc:	ff ff       	.word	0xffff	; ????
    40ce:	ff ff       	.word	0xffff	; ????
    40d0:	ff ff       	.word	0xffff	; ????
    40d2:	ff ff       	.word	0xffff	; ????
    40d4:	ff ff       	.word	0xffff	; ????
    40d6:	ff ff       	.word	0xffff	; ????
    40d8:	ff ff       	.word	0xffff	; ????
    40da:	ff ff       	.word	0xffff	; ????
    40dc:	ff ff       	.word	0xffff	; ????
    40de:	ff ff       	.word	0xffff	; ????
    40e0:	ff ff       	.word	0xffff	; ????
    40e2:	ff ff       	.word	0xffff	; ????
    40e4:	ff ff       	.word	0xffff	; ????
    40e6:	ff ff       	.word	0xffff	; ????
    40e8:	ff ff       	.word	0xffff	; ????
    40ea:	ff ff       	.word	0xffff	; ????
    40ec:	ff ff       	.word	0xffff	; ????
    40ee:	ff ff       	.word	0xffff	; ????
    40f0:	ff ff       	.word	0xffff	; ????
    40f2:	ff ff       	.word	0xffff	; ????
    40f4:	ff ff       	.word	0xffff	; ????
    40f6:	ff ff       	.word	0xffff	; ????
    40f8:	ff ff       	.word	0xffff	; ????
    40fa:	ff ff       	.word	0xffff	; ????
    40fc:	ff ff       	.word	0xffff	; ????
    40fe:	ff ff       	.word	0xffff	; ????
    4100:	ff ff       	.word	0xffff	; ????
    4102:	ff ff       	.word	0xffff	; ????
    4104:	ff ff       	.word	0xffff	; ????
    4106:	ff ff       	.word	0xffff	; ????
    4108:	ff ff       	.word	0xffff	; ????
    410a:	ff ff       	.word	0xffff	; ????
    410c:	ff ff       	.word	0xffff	; ????
    410e:	ff ff       	.word	0xffff	; ????
    4110:	ff ff       	.word	0xffff	; ????
    4112:	ff ff       	.word	0xffff	; ????
    4114:	ff ff       	.word	0xffff	; ????
    4116:	ff ff       	.word	0xffff	; ????
    4118:	ff ff       	.word	0xffff	; ????
    411a:	ff ff       	.word	0xffff	; ????
    411c:	ff ff       	.word	0xffff	; ????
    411e:	ff ff       	.word	0xffff	; ????
    4120:	ff ff       	.word	0xffff	; ????
    4122:	ff ff       	.word	0xffff	; ????
    4124:	ff ff       	.word	0xffff	; ????
    4126:	ff ff       	.word	0xffff	; ????
    4128:	ff ff       	.word	0xffff	; ????
    412a:	ff ff       	.word	0xffff	; ????
    412c:	ff ff       	.word	0xffff	; ????
    412e:	ff ff       	.word	0xffff	; ????
    4130:	ff ff       	.word	0xffff	; ????
    4132:	ff ff       	.word	0xffff	; ????
    4134:	ff ff       	.word	0xffff	; ????
    4136:	ff ff       	.word	0xffff	; ????
    4138:	ff ff       	.word	0xffff	; ????
    413a:	ff ff       	.word	0xffff	; ????
    413c:	ff ff       	.word	0xffff	; ????
    413e:	ff ff       	.word	0xffff	; ????
    4140:	ff ff       	.word	0xffff	; ????
    4142:	ff ff       	.word	0xffff	; ????
    4144:	ff ff       	.word	0xffff	; ????
    4146:	ff ff       	.word	0xffff	; ????
    4148:	ff ff       	.word	0xffff	; ????
    414a:	ff ff       	.word	0xffff	; ????
    414c:	ff ff       	.word	0xffff	; ????
    414e:	ff ff       	.word	0xffff	; ????
    4150:	ff ff       	.word	0xffff	; ????
    4152:	ff ff       	.word	0xffff	; ????
    4154:	ff ff       	.word	0xffff	; ????
    4156:	ff ff       	.word	0xffff	; ????
    4158:	ff ff       	.word	0xffff	; ????
    415a:	ff ff       	.word	0xffff	; ????
    415c:	ff ff       	.word	0xffff	; ????
    415e:	ff ff       	.word	0xffff	; ????
    4160:	ff ff       	.word	0xffff	; ????
    4162:	ff ff       	.word	0xffff	; ????
    4164:	ff ff       	.word	0xffff	; ????
    4166:	ff ff       	.word	0xffff	; ????
    4168:	ff ff       	.word	0xffff	; ????
    416a:	ff ff       	.word	0xffff	; ????
    416c:	ff ff       	.word	0xffff	; ????
    416e:	ff ff       	.word	0xffff	; ????
    4170:	ff ff       	.word	0xffff	; ????
    4172:	ff ff       	.word	0xffff	; ????
    4174:	ff ff       	.word	0xffff	; ????
    4176:	ff ff       	.word	0xffff	; ????
    4178:	ff ff       	.word	0xffff	; ????
    417a:	ff ff       	.word	0xffff	; ????
    417c:	ff ff       	.word	0xffff	; ????
    417e:	ff ff       	.word	0xffff	; ????
    4180:	ff ff       	.word	0xffff	; ????
    4182:	ff ff       	.word	0xffff	; ????
    4184:	ff ff       	.word	0xffff	; ????
    4186:	ff ff       	.word	0xffff	; ????
    4188:	ff ff       	.word	0xffff	; ????
    418a:	ff ff       	.word	0xffff	; ????
    418c:	ff ff       	.word	0xffff	; ????
    418e:	ff ff       	.word	0xffff	; ????
    4190:	ff ff       	.word	0xffff	; ????
    4192:	ff ff       	.word	0xffff	; ????
    4194:	ff ff       	.word	0xffff	; ????
    4196:	ff ff       	.word	0xffff	; ????
    4198:	ff ff       	.word	0xffff	; ????
    419a:	ff ff       	.word	0xffff	; ????
    419c:	ff ff       	.word	0xffff	; ????
    419e:	ff ff       	.word	0xffff	; ????
    41a0:	ff ff       	.word	0xffff	; ????
    41a2:	ff ff       	.word	0xffff	; ????
    41a4:	ff ff       	.word	0xffff	; ????
    41a6:	ff ff       	.word	0xffff	; ????
    41a8:	ff ff       	.word	0xffff	; ????
    41aa:	ff ff       	.word	0xffff	; ????
    41ac:	ff ff       	.word	0xffff	; ????
    41ae:	ff ff       	.word	0xffff	; ????
    41b0:	ff ff       	.word	0xffff	; ????
    41b2:	ff ff       	.word	0xffff	; ????
    41b4:	ff ff       	.word	0xffff	; ????
    41b6:	ff ff       	.word	0xffff	; ????
    41b8:	ff ff       	.word	0xffff	; ????
    41ba:	ff ff       	.word	0xffff	; ????
    41bc:	ff ff       	.word	0xffff	; ????
    41be:	ff ff       	.word	0xffff	; ????
    41c0:	ff ff       	.word	0xffff	; ????
    41c2:	ff ff       	.word	0xffff	; ????
    41c4:	ff ff       	.word	0xffff	; ????
    41c6:	ff ff       	.word	0xffff	; ????
    41c8:	ff ff       	.word	0xffff	; ????
    41ca:	ff ff       	.word	0xffff	; ????
    41cc:	ff ff       	.word	0xffff	; ????
    41ce:	ff ff       	.word	0xffff	; ????
    41d0:	ff ff       	.word	0xffff	; ????
    41d2:	ff ff       	.word	0xffff	; ????
    41d4:	ff ff       	.word	0xffff	; ????
    41d6:	ff ff       	.word	0xffff	; ????
    41d8:	ff ff       	.word	0xffff	; ????
    41da:	ff ff       	.word	0xffff	; ????
    41dc:	ff ff       	.word	0xffff	; ????
    41de:	ff ff       	.word	0xffff	; ????
    41e0:	ff ff       	.word	0xffff	; ????
    41e2:	ff ff       	.word	0xffff	; ????
    41e4:	ff ff       	.word	0xffff	; ????
    41e6:	ff ff       	.word	0xffff	; ????
    41e8:	ff ff       	.word	0xffff	; ????
    41ea:	ff ff       	.word	0xffff	; ????
    41ec:	ff ff       	.word	0xffff	; ????
    41ee:	ff ff       	.word	0xffff	; ????
    41f0:	ff ff       	.word	0xffff	; ????
    41f2:	ff ff       	.word	0xffff	; ????
    41f4:	ff ff       	.word	0xffff	; ????
    41f6:	ff ff       	.word	0xffff	; ????
    41f8:	ff ff       	.word	0xffff	; ????
    41fa:	ff ff       	.word	0xffff	; ????
    41fc:	ff ff       	.word	0xffff	; ????
    41fe:	ff ff       	.word	0xffff	; ????
    4200:	ff ff       	.word	0xffff	; ????
    4202:	ff ff       	.word	0xffff	; ????
    4204:	ff ff       	.word	0xffff	; ????
    4206:	ff ff       	.word	0xffff	; ????
    4208:	ff ff       	.word	0xffff	; ????
    420a:	ff ff       	.word	0xffff	; ????
    420c:	ff ff       	.word	0xffff	; ????
    420e:	ff ff       	.word	0xffff	; ????
    4210:	ff ff       	.word	0xffff	; ????
    4212:	ff ff       	.word	0xffff	; ????
    4214:	ff ff       	.word	0xffff	; ????
    4216:	ff ff       	.word	0xffff	; ????
    4218:	ff ff       	.word	0xffff	; ????
    421a:	ff ff       	.word	0xffff	; ????
    421c:	ff ff       	.word	0xffff	; ????
    421e:	ff ff       	.word	0xffff	; ????
    4220:	ff ff       	.word	0xffff	; ????
    4222:	ff ff       	.word	0xffff	; ????
    4224:	ff ff       	.word	0xffff	; ????
    4226:	ff ff       	.word	0xffff	; ????
    4228:	ff ff       	.word	0xffff	; ????
    422a:	ff ff       	.word	0xffff	; ????
    422c:	ff ff       	.word	0xffff	; ????
    422e:	ff ff       	.word	0xffff	; ????
    4230:	ff ff       	.word	0xffff	; ????
    4232:	ff ff       	.word	0xffff	; ????
    4234:	ff ff       	.word	0xffff	; ????
    4236:	ff ff       	.word	0xffff	; ????
    4238:	ff ff       	.word	0xffff	; ????
    423a:	ff ff       	.word	0xffff	; ????
    423c:	ff ff       	.word	0xffff	; ????
    423e:	ff ff       	.word	0xffff	; ????
    4240:	ff ff       	.word	0xffff	; ????
    4242:	ff ff       	.word	0xffff	; ????
    4244:	ff ff       	.word	0xffff	; ????
    4246:	ff ff       	.word	0xffff	; ????
    4248:	ff ff       	.word	0xffff	; ????
    424a:	ff ff       	.word	0xffff	; ????
    424c:	ff ff       	.word	0xffff	; ????
    424e:	ff ff       	.word	0xffff	; ????
    4250:	ff ff       	.word	0xffff	; ????
    4252:	ff ff       	.word	0xffff	; ????
    4254:	ff ff       	.word	0xffff	; ????
    4256:	ff ff       	.word	0xffff	; ????
    4258:	ff ff       	.word	0xffff	; ????
    425a:	ff ff       	.word	0xffff	; ????
    425c:	ff ff       	.word	0xffff	; ????
    425e:	ff ff       	.word	0xffff	; ????
    4260:	ff ff       	.word	0xffff	; ????
    4262:	ff ff       	.word	0xffff	; ????
    4264:	ff ff       	.word	0xffff	; ????
    4266:	ff ff       	.word	0xffff	; ????
    4268:	ff ff       	.word	0xffff	; ????
    426a:	ff ff       	.word	0xffff	; ????
    426c:	ff ff       	.word	0xffff	; ????
    426e:	ff ff       	.word	0xffff	; ????
    4270:	ff ff       	.word	0xffff	; ????
    4272:	ff ff       	.word	0xffff	; ????
    4274:	ff ff       	.word	0xffff	; ????
    4276:	ff ff       	.word	0xffff	; ????
    4278:	ff ff       	.word	0xffff	; ????
    427a:	ff ff       	.word	0xffff	; ????
    427c:	ff ff       	.word	0xffff	; ????
    427e:	ff ff       	.word	0xffff	; ????
    4280:	ff ff       	.word	0xffff	; ????
    4282:	ff ff       	.word	0xffff	; ????
    4284:	ff ff       	.word	0xffff	; ????
    4286:	ff ff       	.word	0xffff	; ????
    4288:	ff ff       	.word	0xffff	; ????
    428a:	ff ff       	.word	0xffff	; ????
    428c:	ff ff       	.word	0xffff	; ????
    428e:	ff ff       	.word	0xffff	; ????
    4290:	ff ff       	.word	0xffff	; ????
    4292:	ff ff       	.word	0xffff	; ????
    4294:	ff ff       	.word	0xffff	; ????
    4296:	ff ff       	.word	0xffff	; ????
    4298:	ff ff       	.word	0xffff	; ????
    429a:	ff ff       	.word	0xffff	; ????
    429c:	ff ff       	.word	0xffff	; ????
    429e:	ff ff       	.word	0xffff	; ????
    42a0:	ff ff       	.word	0xffff	; ????
    42a2:	ff ff       	.word	0xffff	; ????
    42a4:	ff ff       	.word	0xffff	; ????
    42a6:	ff ff       	.word	0xffff	; ????
    42a8:	ff ff       	.word	0xffff	; ????
    42aa:	ff ff       	.word	0xffff	; ????
    42ac:	ff ff       	.word	0xffff	; ????
    42ae:	ff ff       	.word	0xffff	; ????
    42b0:	ff ff       	.word	0xffff	; ????
    42b2:	ff ff       	.word	0xffff	; ????
    42b4:	ff ff       	.word	0xffff	; ????
    42b6:	ff ff       	.word	0xffff	; ????
    42b8:	ff ff       	.word	0xffff	; ????
    42ba:	ff ff       	.word	0xffff	; ????
    42bc:	ff ff       	.word	0xffff	; ????
    42be:	ff ff       	.word	0xffff	; ????
    42c0:	ff ff       	.word	0xffff	; ????
    42c2:	ff ff       	.word	0xffff	; ????
    42c4:	ff ff       	.word	0xffff	; ????
    42c6:	ff ff       	.word	0xffff	; ????
    42c8:	ff ff       	.word	0xffff	; ????
    42ca:	ff ff       	.word	0xffff	; ????
    42cc:	ff ff       	.word	0xffff	; ????
    42ce:	ff ff       	.word	0xffff	; ????
    42d0:	ff ff       	.word	0xffff	; ????
    42d2:	ff ff       	.word	0xffff	; ????
    42d4:	ff ff       	.word	0xffff	; ????
    42d6:	ff ff       	.word	0xffff	; ????
    42d8:	ff ff       	.word	0xffff	; ????
    42da:	ff ff       	.word	0xffff	; ????
    42dc:	ff ff       	.word	0xffff	; ????
    42de:	ff ff       	.word	0xffff	; ????
    42e0:	ff ff       	.word	0xffff	; ????
    42e2:	ff ff       	.word	0xffff	; ????
    42e4:	ff ff       	.word	0xffff	; ????
    42e6:	ff ff       	.word	0xffff	; ????
    42e8:	ff ff       	.word	0xffff	; ????
    42ea:	ff ff       	.word	0xffff	; ????
    42ec:	ff ff       	.word	0xffff	; ????
    42ee:	ff ff       	.word	0xffff	; ????
    42f0:	ff ff       	.word	0xffff	; ????
    42f2:	ff ff       	.word	0xffff	; ????
    42f4:	ff ff       	.word	0xffff	; ????
    42f6:	ff ff       	.word	0xffff	; ????
    42f8:	ff ff       	.word	0xffff	; ????
    42fa:	ff ff       	.word	0xffff	; ????
    42fc:	ff ff       	.word	0xffff	; ????
    42fe:	ff ff       	.word	0xffff	; ????
    4300:	ff ff       	.word	0xffff	; ????
    4302:	ff ff       	.word	0xffff	; ????
    4304:	ff ff       	.word	0xffff	; ????
    4306:	ff ff       	.word	0xffff	; ????
    4308:	ff ff       	.word	0xffff	; ????
    430a:	ff ff       	.word	0xffff	; ????
    430c:	ff ff       	.word	0xffff	; ????
    430e:	ff ff       	.word	0xffff	; ????
    4310:	ff ff       	.word	0xffff	; ????
    4312:	ff ff       	.word	0xffff	; ????
    4314:	ff ff       	.word	0xffff	; ????
    4316:	ff ff       	.word	0xffff	; ????
    4318:	ff ff       	.word	0xffff	; ????
    431a:	ff ff       	.word	0xffff	; ????
    431c:	ff ff       	.word	0xffff	; ????
    431e:	ff ff       	.word	0xffff	; ????
    4320:	ff ff       	.word	0xffff	; ????
    4322:	ff ff       	.word	0xffff	; ????
    4324:	ff ff       	.word	0xffff	; ????
    4326:	ff ff       	.word	0xffff	; ????
    4328:	ff ff       	.word	0xffff	; ????
    432a:	ff ff       	.word	0xffff	; ????
    432c:	ff ff       	.word	0xffff	; ????
    432e:	ff ff       	.word	0xffff	; ????
    4330:	ff ff       	.word	0xffff	; ????
    4332:	ff ff       	.word	0xffff	; ????
    4334:	ff ff       	.word	0xffff	; ????
    4336:	ff ff       	.word	0xffff	; ????
    4338:	ff ff       	.word	0xffff	; ????
    433a:	ff ff       	.word	0xffff	; ????
    433c:	ff ff       	.word	0xffff	; ????
    433e:	ff ff       	.word	0xffff	; ????
    4340:	ff ff       	.word	0xffff	; ????
    4342:	ff ff       	.word	0xffff	; ????
    4344:	ff ff       	.word	0xffff	; ????
    4346:	ff ff       	.word	0xffff	; ????
    4348:	ff ff       	.word	0xffff	; ????
    434a:	ff ff       	.word	0xffff	; ????
    434c:	ff ff       	.word	0xffff	; ????
    434e:	ff ff       	.word	0xffff	; ????
    4350:	ff ff       	.word	0xffff	; ????
    4352:	ff ff       	.word	0xffff	; ????
    4354:	ff ff       	.word	0xffff	; ????
    4356:	ff ff       	.word	0xffff	; ????
    4358:	ff ff       	.word	0xffff	; ????
    435a:	ff ff       	.word	0xffff	; ????
    435c:	ff ff       	.word	0xffff	; ????
    435e:	ff ff       	.word	0xffff	; ????
    4360:	ff ff       	.word	0xffff	; ????
    4362:	ff ff       	.word	0xffff	; ????
    4364:	ff ff       	.word	0xffff	; ????
    4366:	ff ff       	.word	0xffff	; ????
    4368:	ff ff       	.word	0xffff	; ????
    436a:	ff ff       	.word	0xffff	; ????
    436c:	ff ff       	.word	0xffff	; ????
    436e:	ff ff       	.word	0xffff	; ????
    4370:	ff ff       	.word	0xffff	; ????
    4372:	ff ff       	.word	0xffff	; ????
    4374:	ff ff       	.word	0xffff	; ????
    4376:	ff ff       	.word	0xffff	; ????
    4378:	ff ff       	.word	0xffff	; ????
    437a:	ff ff       	.word	0xffff	; ????
    437c:	ff ff       	.word	0xffff	; ????
    437e:	ff ff       	.word	0xffff	; ????
    4380:	ff ff       	.word	0xffff	; ????
    4382:	ff ff       	.word	0xffff	; ????
    4384:	ff ff       	.word	0xffff	; ????
    4386:	ff ff       	.word	0xffff	; ????
    4388:	ff ff       	.word	0xffff	; ????
    438a:	ff ff       	.word	0xffff	; ????
    438c:	ff ff       	.word	0xffff	; ????
    438e:	ff ff       	.word	0xffff	; ????
    4390:	ff ff       	.word	0xffff	; ????
    4392:	ff ff       	.word	0xffff	; ????
    4394:	ff ff       	.word	0xffff	; ????
    4396:	ff ff       	.word	0xffff	; ????
    4398:	ff ff       	.word	0xffff	; ????
    439a:	ff ff       	.word	0xffff	; ????
    439c:	ff ff       	.word	0xffff	; ????
    439e:	ff ff       	.word	0xffff	; ????
    43a0:	ff ff       	.word	0xffff	; ????
    43a2:	ff ff       	.word	0xffff	; ????
    43a4:	ff ff       	.word	0xffff	; ????
    43a6:	ff ff       	.word	0xffff	; ????
    43a8:	ff ff       	.word	0xffff	; ????
    43aa:	ff ff       	.word	0xffff	; ????
    43ac:	ff ff       	.word	0xffff	; ????
    43ae:	ff ff       	.word	0xffff	; ????
    43b0:	ff ff       	.word	0xffff	; ????
    43b2:	ff ff       	.word	0xffff	; ????
    43b4:	ff ff       	.word	0xffff	; ????
    43b6:	ff ff       	.word	0xffff	; ????
    43b8:	ff ff       	.word	0xffff	; ????
    43ba:	ff ff       	.word	0xffff	; ????
    43bc:	ff ff       	.word	0xffff	; ????
    43be:	ff ff       	.word	0xffff	; ????
    43c0:	ff ff       	.word	0xffff	; ????
    43c2:	ff ff       	.word	0xffff	; ????
    43c4:	ff ff       	.word	0xffff	; ????
    43c6:	ff ff       	.word	0xffff	; ????
    43c8:	ff ff       	.word	0xffff	; ????
    43ca:	ff ff       	.word	0xffff	; ????
    43cc:	ff ff       	.word	0xffff	; ????
    43ce:	ff ff       	.word	0xffff	; ????
    43d0:	ff ff       	.word	0xffff	; ????
    43d2:	ff ff       	.word	0xffff	; ????
    43d4:	ff ff       	.word	0xffff	; ????
    43d6:	ff ff       	.word	0xffff	; ????
    43d8:	ff ff       	.word	0xffff	; ????
    43da:	ff ff       	.word	0xffff	; ????
    43dc:	ff ff       	.word	0xffff	; ????
    43de:	ff ff       	.word	0xffff	; ????
    43e0:	ff ff       	.word	0xffff	; ????
    43e2:	ff ff       	.word	0xffff	; ????
    43e4:	ff ff       	.word	0xffff	; ????
    43e6:	ff ff       	.word	0xffff	; ????
    43e8:	ff ff       	.word	0xffff	; ????
    43ea:	ff ff       	.word	0xffff	; ????
    43ec:	ff ff       	.word	0xffff	; ????
    43ee:	ff ff       	.word	0xffff	; ????
    43f0:	ff ff       	.word	0xffff	; ????
    43f2:	ff ff       	.word	0xffff	; ????
    43f4:	ff ff       	.word	0xffff	; ????
    43f6:	ff ff       	.word	0xffff	; ????
    43f8:	ff ff       	.word	0xffff	; ????
    43fa:	ff ff       	.word	0xffff	; ????
    43fc:	ff ff       	.word	0xffff	; ????
    43fe:	ff ff       	.word	0xffff	; ????
    4400:	ff ff       	.word	0xffff	; ????
    4402:	ff ff       	.word	0xffff	; ????
    4404:	ff ff       	.word	0xffff	; ????
    4406:	ff ff       	.word	0xffff	; ????
    4408:	ff ff       	.word	0xffff	; ????
    440a:	ff ff       	.word	0xffff	; ????
    440c:	ff ff       	.word	0xffff	; ????
    440e:	ff ff       	.word	0xffff	; ????
    4410:	ff ff       	.word	0xffff	; ????
    4412:	ff ff       	.word	0xffff	; ????
    4414:	ff ff       	.word	0xffff	; ????
    4416:	ff ff       	.word	0xffff	; ????
    4418:	ff ff       	.word	0xffff	; ????
    441a:	ff ff       	.word	0xffff	; ????
    441c:	ff ff       	.word	0xffff	; ????
    441e:	ff ff       	.word	0xffff	; ????
    4420:	ff ff       	.word	0xffff	; ????
    4422:	ff ff       	.word	0xffff	; ????
    4424:	ff ff       	.word	0xffff	; ????
    4426:	ff ff       	.word	0xffff	; ????
    4428:	ff ff       	.word	0xffff	; ????
    442a:	ff ff       	.word	0xffff	; ????
    442c:	ff ff       	.word	0xffff	; ????
    442e:	ff ff       	.word	0xffff	; ????
    4430:	ff ff       	.word	0xffff	; ????
    4432:	ff ff       	.word	0xffff	; ????
    4434:	ff ff       	.word	0xffff	; ????
    4436:	ff ff       	.word	0xffff	; ????
    4438:	ff ff       	.word	0xffff	; ????
    443a:	ff ff       	.word	0xffff	; ????
    443c:	ff ff       	.word	0xffff	; ????
    443e:	ff ff       	.word	0xffff	; ????
    4440:	ff ff       	.word	0xffff	; ????
    4442:	ff ff       	.word	0xffff	; ????
    4444:	ff ff       	.word	0xffff	; ????
    4446:	ff ff       	.word	0xffff	; ????
    4448:	ff ff       	.word	0xffff	; ????
    444a:	ff ff       	.word	0xffff	; ????
    444c:	ff ff       	.word	0xffff	; ????
    444e:	ff ff       	.word	0xffff	; ????
    4450:	ff ff       	.word	0xffff	; ????
    4452:	ff ff       	.word	0xffff	; ????
    4454:	ff ff       	.word	0xffff	; ????
    4456:	ff ff       	.word	0xffff	; ????
    4458:	ff ff       	.word	0xffff	; ????
    445a:	ff ff       	.word	0xffff	; ????
    445c:	ff ff       	.word	0xffff	; ????
    445e:	ff ff       	.word	0xffff	; ????
    4460:	ff ff       	.word	0xffff	; ????
    4462:	ff ff       	.word	0xffff	; ????
    4464:	ff ff       	.word	0xffff	; ????
    4466:	ff ff       	.word	0xffff	; ????
    4468:	ff ff       	.word	0xffff	; ????
    446a:	ff ff       	.word	0xffff	; ????
    446c:	ff ff       	.word	0xffff	; ????
    446e:	ff ff       	.word	0xffff	; ????
    4470:	ff ff       	.word	0xffff	; ????
    4472:	ff ff       	.word	0xffff	; ????
    4474:	ff ff       	.word	0xffff	; ????
    4476:	ff ff       	.word	0xffff	; ????
    4478:	ff ff       	.word	0xffff	; ????
    447a:	ff ff       	.word	0xffff	; ????
    447c:	ff ff       	.word	0xffff	; ????
    447e:	ff ff       	.word	0xffff	; ????
    4480:	ff ff       	.word	0xffff	; ????
    4482:	ff ff       	.word	0xffff	; ????
    4484:	ff ff       	.word	0xffff	; ????
    4486:	ff ff       	.word	0xffff	; ????
    4488:	ff ff       	.word	0xffff	; ????
    448a:	ff ff       	.word	0xffff	; ????
    448c:	ff ff       	.word	0xffff	; ????
    448e:	ff ff       	.word	0xffff	; ????
    4490:	ff ff       	.word	0xffff	; ????
    4492:	ff ff       	.word	0xffff	; ????
    4494:	ff ff       	.word	0xffff	; ????
    4496:	ff ff       	.word	0xffff	; ????
    4498:	ff ff       	.word	0xffff	; ????
    449a:	ff ff       	.word	0xffff	; ????
    449c:	ff ff       	.word	0xffff	; ????
    449e:	ff ff       	.word	0xffff	; ????
    44a0:	ff ff       	.word	0xffff	; ????
    44a2:	ff ff       	.word	0xffff	; ????
    44a4:	ff ff       	.word	0xffff	; ????
    44a6:	ff ff       	.word	0xffff	; ????
    44a8:	ff ff       	.word	0xffff	; ????
    44aa:	ff ff       	.word	0xffff	; ????
    44ac:	ff ff       	.word	0xffff	; ????
    44ae:	ff ff       	.word	0xffff	; ????
    44b0:	ff ff       	.word	0xffff	; ????
    44b2:	ff ff       	.word	0xffff	; ????
    44b4:	ff ff       	.word	0xffff	; ????
    44b6:	ff ff       	.word	0xffff	; ????
    44b8:	ff ff       	.word	0xffff	; ????
    44ba:	ff ff       	.word	0xffff	; ????
    44bc:	ff ff       	.word	0xffff	; ????
    44be:	ff ff       	.word	0xffff	; ????
    44c0:	ff ff       	.word	0xffff	; ????
    44c2:	ff ff       	.word	0xffff	; ????
    44c4:	ff ff       	.word	0xffff	; ????
    44c6:	ff ff       	.word	0xffff	; ????
    44c8:	ff ff       	.word	0xffff	; ????
    44ca:	ff ff       	.word	0xffff	; ????
    44cc:	ff ff       	.word	0xffff	; ????
    44ce:	ff ff       	.word	0xffff	; ????
    44d0:	ff ff       	.word	0xffff	; ????
    44d2:	ff ff       	.word	0xffff	; ????
    44d4:	ff ff       	.word	0xffff	; ????
    44d6:	ff ff       	.word	0xffff	; ????
    44d8:	ff ff       	.word	0xffff	; ????
    44da:	ff ff       	.word	0xffff	; ????
    44dc:	ff ff       	.word	0xffff	; ????
    44de:	ff ff       	.word	0xffff	; ????
    44e0:	ff ff       	.word	0xffff	; ????
    44e2:	ff ff       	.word	0xffff	; ????
    44e4:	ff ff       	.word	0xffff	; ????
    44e6:	ff ff       	.word	0xffff	; ????
    44e8:	ff ff       	.word	0xffff	; ????
    44ea:	ff ff       	.word	0xffff	; ????
    44ec:	ff ff       	.word	0xffff	; ????
    44ee:	ff ff       	.word	0xffff	; ????
    44f0:	ff ff       	.word	0xffff	; ????
    44f2:	ff ff       	.word	0xffff	; ????
    44f4:	ff ff       	.word	0xffff	; ????
    44f6:	ff ff       	.word	0xffff	; ????
    44f8:	ff ff       	.word	0xffff	; ????
    44fa:	ff ff       	.word	0xffff	; ????
    44fc:	ff ff       	.word	0xffff	; ????
    44fe:	ff ff       	.word	0xffff	; ????
    4500:	ff ff       	.word	0xffff	; ????
    4502:	ff ff       	.word	0xffff	; ????
    4504:	ff ff       	.word	0xffff	; ????
    4506:	ff ff       	.word	0xffff	; ????
    4508:	ff ff       	.word	0xffff	; ????
    450a:	ff ff       	.word	0xffff	; ????
    450c:	ff ff       	.word	0xffff	; ????
    450e:	ff ff       	.word	0xffff	; ????
    4510:	ff ff       	.word	0xffff	; ????
    4512:	ff ff       	.word	0xffff	; ????
    4514:	ff ff       	.word	0xffff	; ????
    4516:	ff ff       	.word	0xffff	; ????
    4518:	ff ff       	.word	0xffff	; ????
    451a:	ff ff       	.word	0xffff	; ????
    451c:	ff ff       	.word	0xffff	; ????
    451e:	ff ff       	.word	0xffff	; ????
    4520:	ff ff       	.word	0xffff	; ????
    4522:	ff ff       	.word	0xffff	; ????
    4524:	ff ff       	.word	0xffff	; ????
    4526:	ff ff       	.word	0xffff	; ????
    4528:	ff ff       	.word	0xffff	; ????
    452a:	ff ff       	.word	0xffff	; ????
    452c:	ff ff       	.word	0xffff	; ????
    452e:	ff ff       	.word	0xffff	; ????
    4530:	ff ff       	.word	0xffff	; ????
    4532:	ff ff       	.word	0xffff	; ????
    4534:	ff ff       	.word	0xffff	; ????
    4536:	ff ff       	.word	0xffff	; ????
    4538:	ff ff       	.word	0xffff	; ????
    453a:	ff ff       	.word	0xffff	; ????
    453c:	ff ff       	.word	0xffff	; ????
    453e:	ff ff       	.word	0xffff	; ????
    4540:	ff ff       	.word	0xffff	; ????
    4542:	ff ff       	.word	0xffff	; ????
    4544:	ff ff       	.word	0xffff	; ????
    4546:	ff ff       	.word	0xffff	; ????
    4548:	ff ff       	.word	0xffff	; ????
    454a:	ff ff       	.word	0xffff	; ????
    454c:	ff ff       	.word	0xffff	; ????
    454e:	ff ff       	.word	0xffff	; ????
    4550:	ff ff       	.word	0xffff	; ????
    4552:	ff ff       	.word	0xffff	; ????
    4554:	ff ff       	.word	0xffff	; ????
    4556:	ff ff       	.word	0xffff	; ????
    4558:	ff ff       	.word	0xffff	; ????
    455a:	ff ff       	.word	0xffff	; ????
    455c:	ff ff       	.word	0xffff	; ????
    455e:	ff ff       	.word	0xffff	; ????
    4560:	ff ff       	.word	0xffff	; ????
    4562:	ff ff       	.word	0xffff	; ????
    4564:	ff ff       	.word	0xffff	; ????
    4566:	ff ff       	.word	0xffff	; ????
    4568:	ff ff       	.word	0xffff	; ????
    456a:	ff ff       	.word	0xffff	; ????
    456c:	ff ff       	.word	0xffff	; ????
    456e:	ff ff       	.word	0xffff	; ????
    4570:	ff ff       	.word	0xffff	; ????
    4572:	ff ff       	.word	0xffff	; ????
    4574:	ff ff       	.word	0xffff	; ????
    4576:	ff ff       	.word	0xffff	; ????
    4578:	ff ff       	.word	0xffff	; ????
    457a:	ff ff       	.word	0xffff	; ????
    457c:	ff ff       	.word	0xffff	; ????
    457e:	ff ff       	.word	0xffff	; ????
    4580:	ff ff       	.word	0xffff	; ????
    4582:	ff ff       	.word	0xffff	; ????
    4584:	ff ff       	.word	0xffff	; ????
    4586:	ff ff       	.word	0xffff	; ????
    4588:	ff ff       	.word	0xffff	; ????
    458a:	ff ff       	.word	0xffff	; ????
    458c:	ff ff       	.word	0xffff	; ????
    458e:	ff ff       	.word	0xffff	; ????
    4590:	ff ff       	.word	0xffff	; ????
    4592:	ff ff       	.word	0xffff	; ????
    4594:	ff ff       	.word	0xffff	; ????
    4596:	ff ff       	.word	0xffff	; ????
    4598:	ff ff       	.word	0xffff	; ????
    459a:	ff ff       	.word	0xffff	; ????
    459c:	ff ff       	.word	0xffff	; ????
    459e:	ff ff       	.word	0xffff	; ????
    45a0:	ff ff       	.word	0xffff	; ????
    45a2:	ff ff       	.word	0xffff	; ????
    45a4:	ff ff       	.word	0xffff	; ????
    45a6:	ff ff       	.word	0xffff	; ????
    45a8:	ff ff       	.word	0xffff	; ????
    45aa:	ff ff       	.word	0xffff	; ????
    45ac:	ff ff       	.word	0xffff	; ????
    45ae:	ff ff       	.word	0xffff	; ????
    45b0:	ff ff       	.word	0xffff	; ????
    45b2:	ff ff       	.word	0xffff	; ????
    45b4:	ff ff       	.word	0xffff	; ????
    45b6:	ff ff       	.word	0xffff	; ????
    45b8:	ff ff       	.word	0xffff	; ????
    45ba:	ff ff       	.word	0xffff	; ????
    45bc:	ff ff       	.word	0xffff	; ????
    45be:	ff ff       	.word	0xffff	; ????
    45c0:	ff ff       	.word	0xffff	; ????
    45c2:	ff ff       	.word	0xffff	; ????
    45c4:	ff ff       	.word	0xffff	; ????
    45c6:	ff ff       	.word	0xffff	; ????
    45c8:	ff ff       	.word	0xffff	; ????
    45ca:	ff ff       	.word	0xffff	; ????
    45cc:	ff ff       	.word	0xffff	; ????
    45ce:	ff ff       	.word	0xffff	; ????
    45d0:	ff ff       	.word	0xffff	; ????
    45d2:	ff ff       	.word	0xffff	; ????
    45d4:	ff ff       	.word	0xffff	; ????
    45d6:	ff ff       	.word	0xffff	; ????
    45d8:	ff ff       	.word	0xffff	; ????
    45da:	ff ff       	.word	0xffff	; ????
    45dc:	ff ff       	.word	0xffff	; ????
    45de:	ff ff       	.word	0xffff	; ????
    45e0:	ff ff       	.word	0xffff	; ????
    45e2:	ff ff       	.word	0xffff	; ????
    45e4:	ff ff       	.word	0xffff	; ????
    45e6:	ff ff       	.word	0xffff	; ????
    45e8:	ff ff       	.word	0xffff	; ????
    45ea:	ff ff       	.word	0xffff	; ????
    45ec:	ff ff       	.word	0xffff	; ????
    45ee:	ff ff       	.word	0xffff	; ????
    45f0:	ff ff       	.word	0xffff	; ????
    45f2:	ff ff       	.word	0xffff	; ????
    45f4:	ff ff       	.word	0xffff	; ????
    45f6:	ff ff       	.word	0xffff	; ????
    45f8:	ff ff       	.word	0xffff	; ????
    45fa:	ff ff       	.word	0xffff	; ????
    45fc:	ff ff       	.word	0xffff	; ????
    45fe:	ff ff       	.word	0xffff	; ????
    4600:	ff ff       	.word	0xffff	; ????
    4602:	ff ff       	.word	0xffff	; ????
    4604:	ff ff       	.word	0xffff	; ????
    4606:	ff ff       	.word	0xffff	; ????
    4608:	ff ff       	.word	0xffff	; ????
    460a:	ff ff       	.word	0xffff	; ????
    460c:	ff ff       	.word	0xffff	; ????
    460e:	ff ff       	.word	0xffff	; ????
    4610:	ff ff       	.word	0xffff	; ????
    4612:	ff ff       	.word	0xffff	; ????
    4614:	ff ff       	.word	0xffff	; ????
    4616:	ff ff       	.word	0xffff	; ????
    4618:	ff ff       	.word	0xffff	; ????
    461a:	ff ff       	.word	0xffff	; ????
    461c:	ff ff       	.word	0xffff	; ????
    461e:	ff ff       	.word	0xffff	; ????
    4620:	ff ff       	.word	0xffff	; ????
    4622:	ff ff       	.word	0xffff	; ????
    4624:	ff ff       	.word	0xffff	; ????
    4626:	ff ff       	.word	0xffff	; ????
    4628:	ff ff       	.word	0xffff	; ????
    462a:	ff ff       	.word	0xffff	; ????
    462c:	ff ff       	.word	0xffff	; ????
    462e:	ff ff       	.word	0xffff	; ????
    4630:	ff ff       	.word	0xffff	; ????
    4632:	ff ff       	.word	0xffff	; ????
    4634:	ff ff       	.word	0xffff	; ????
    4636:	ff ff       	.word	0xffff	; ????
    4638:	ff ff       	.word	0xffff	; ????
    463a:	ff ff       	.word	0xffff	; ????
    463c:	ff ff       	.word	0xffff	; ????
    463e:	ff ff       	.word	0xffff	; ????
    4640:	ff ff       	.word	0xffff	; ????
    4642:	ff ff       	.word	0xffff	; ????
    4644:	ff ff       	.word	0xffff	; ????
    4646:	ff ff       	.word	0xffff	; ????
    4648:	ff ff       	.word	0xffff	; ????
    464a:	ff ff       	.word	0xffff	; ????
    464c:	ff ff       	.word	0xffff	; ????
    464e:	ff ff       	.word	0xffff	; ????
    4650:	ff ff       	.word	0xffff	; ????
    4652:	ff ff       	.word	0xffff	; ????
    4654:	ff ff       	.word	0xffff	; ????
    4656:	ff ff       	.word	0xffff	; ????
    4658:	ff ff       	.word	0xffff	; ????
    465a:	ff ff       	.word	0xffff	; ????
    465c:	ff ff       	.word	0xffff	; ????
    465e:	ff ff       	.word	0xffff	; ????
    4660:	ff ff       	.word	0xffff	; ????
    4662:	ff ff       	.word	0xffff	; ????
    4664:	ff ff       	.word	0xffff	; ????
    4666:	ff ff       	.word	0xffff	; ????
    4668:	ff ff       	.word	0xffff	; ????
    466a:	ff ff       	.word	0xffff	; ????
    466c:	ff ff       	.word	0xffff	; ????
    466e:	ff ff       	.word	0xffff	; ????
    4670:	ff ff       	.word	0xffff	; ????
    4672:	ff ff       	.word	0xffff	; ????
    4674:	ff ff       	.word	0xffff	; ????
    4676:	ff ff       	.word	0xffff	; ????
    4678:	ff ff       	.word	0xffff	; ????
    467a:	ff ff       	.word	0xffff	; ????
    467c:	ff ff       	.word	0xffff	; ????
    467e:	ff ff       	.word	0xffff	; ????
    4680:	ff ff       	.word	0xffff	; ????
    4682:	ff ff       	.word	0xffff	; ????
    4684:	ff ff       	.word	0xffff	; ????
    4686:	ff ff       	.word	0xffff	; ????
    4688:	ff ff       	.word	0xffff	; ????
    468a:	ff ff       	.word	0xffff	; ????
    468c:	ff ff       	.word	0xffff	; ????
    468e:	ff ff       	.word	0xffff	; ????
    4690:	ff ff       	.word	0xffff	; ????
    4692:	ff ff       	.word	0xffff	; ????
    4694:	ff ff       	.word	0xffff	; ????
    4696:	ff ff       	.word	0xffff	; ????
    4698:	ff ff       	.word	0xffff	; ????
    469a:	ff ff       	.word	0xffff	; ????
    469c:	ff ff       	.word	0xffff	; ????
    469e:	ff ff       	.word	0xffff	; ????
    46a0:	ff ff       	.word	0xffff	; ????
    46a2:	ff ff       	.word	0xffff	; ????
    46a4:	ff ff       	.word	0xffff	; ????
    46a6:	ff ff       	.word	0xffff	; ????
    46a8:	ff ff       	.word	0xffff	; ????
    46aa:	ff ff       	.word	0xffff	; ????
    46ac:	ff ff       	.word	0xffff	; ????
    46ae:	ff ff       	.word	0xffff	; ????
    46b0:	ff ff       	.word	0xffff	; ????
    46b2:	ff ff       	.word	0xffff	; ????
    46b4:	ff ff       	.word	0xffff	; ????
    46b6:	ff ff       	.word	0xffff	; ????
    46b8:	ff ff       	.word	0xffff	; ????
    46ba:	ff ff       	.word	0xffff	; ????
    46bc:	ff ff       	.word	0xffff	; ????
    46be:	ff ff       	.word	0xffff	; ????
    46c0:	ff ff       	.word	0xffff	; ????
    46c2:	ff ff       	.word	0xffff	; ????
    46c4:	ff ff       	.word	0xffff	; ????
    46c6:	ff ff       	.word	0xffff	; ????
    46c8:	ff ff       	.word	0xffff	; ????
    46ca:	ff ff       	.word	0xffff	; ????
    46cc:	ff ff       	.word	0xffff	; ????
    46ce:	ff ff       	.word	0xffff	; ????
    46d0:	ff ff       	.word	0xffff	; ????
    46d2:	ff ff       	.word	0xffff	; ????
    46d4:	ff ff       	.word	0xffff	; ????
    46d6:	ff ff       	.word	0xffff	; ????
    46d8:	ff ff       	.word	0xffff	; ????
    46da:	ff ff       	.word	0xffff	; ????
    46dc:	ff ff       	.word	0xffff	; ????
    46de:	ff ff       	.word	0xffff	; ????
    46e0:	ff ff       	.word	0xffff	; ????
    46e2:	ff ff       	.word	0xffff	; ????
    46e4:	ff ff       	.word	0xffff	; ????
    46e6:	ff ff       	.word	0xffff	; ????
    46e8:	ff ff       	.word	0xffff	; ????
    46ea:	ff ff       	.word	0xffff	; ????
    46ec:	ff ff       	.word	0xffff	; ????
    46ee:	ff ff       	.word	0xffff	; ????
    46f0:	ff ff       	.word	0xffff	; ????
    46f2:	ff ff       	.word	0xffff	; ????
    46f4:	ff ff       	.word	0xffff	; ????
    46f6:	ff ff       	.word	0xffff	; ????
    46f8:	ff ff       	.word	0xffff	; ????
    46fa:	ff ff       	.word	0xffff	; ????
    46fc:	ff ff       	.word	0xffff	; ????
    46fe:	ff ff       	.word	0xffff	; ????
    4700:	ff ff       	.word	0xffff	; ????
    4702:	ff ff       	.word	0xffff	; ????
    4704:	ff ff       	.word	0xffff	; ????
    4706:	ff ff       	.word	0xffff	; ????
    4708:	ff ff       	.word	0xffff	; ????
    470a:	ff ff       	.word	0xffff	; ????
    470c:	ff ff       	.word	0xffff	; ????
    470e:	ff ff       	.word	0xffff	; ????
    4710:	ff ff       	.word	0xffff	; ????
    4712:	ff ff       	.word	0xffff	; ????
    4714:	ff ff       	.word	0xffff	; ????
    4716:	ff ff       	.word	0xffff	; ????
    4718:	ff ff       	.word	0xffff	; ????
    471a:	ff ff       	.word	0xffff	; ????
    471c:	ff ff       	.word	0xffff	; ????
    471e:	ff ff       	.word	0xffff	; ????
    4720:	ff ff       	.word	0xffff	; ????
    4722:	ff ff       	.word	0xffff	; ????
    4724:	ff ff       	.word	0xffff	; ????
    4726:	ff ff       	.word	0xffff	; ????
    4728:	ff ff       	.word	0xffff	; ????
    472a:	ff ff       	.word	0xffff	; ????
    472c:	ff ff       	.word	0xffff	; ????
    472e:	ff ff       	.word	0xffff	; ????
    4730:	ff ff       	.word	0xffff	; ????
    4732:	ff ff       	.word	0xffff	; ????
    4734:	ff ff       	.word	0xffff	; ????
    4736:	ff ff       	.word	0xffff	; ????
    4738:	ff ff       	.word	0xffff	; ????
    473a:	ff ff       	.word	0xffff	; ????
    473c:	ff ff       	.word	0xffff	; ????
    473e:	ff ff       	.word	0xffff	; ????
    4740:	ff ff       	.word	0xffff	; ????
    4742:	ff ff       	.word	0xffff	; ????
    4744:	ff ff       	.word	0xffff	; ????
    4746:	ff ff       	.word	0xffff	; ????
    4748:	ff ff       	.word	0xffff	; ????
    474a:	ff ff       	.word	0xffff	; ????
    474c:	ff ff       	.word	0xffff	; ????
    474e:	ff ff       	.word	0xffff	; ????
    4750:	ff ff       	.word	0xffff	; ????
    4752:	ff ff       	.word	0xffff	; ????
    4754:	ff ff       	.word	0xffff	; ????
    4756:	ff ff       	.word	0xffff	; ????
    4758:	ff ff       	.word	0xffff	; ????
    475a:	ff ff       	.word	0xffff	; ????
    475c:	ff ff       	.word	0xffff	; ????
    475e:	ff ff       	.word	0xffff	; ????
    4760:	ff ff       	.word	0xffff	; ????
    4762:	ff ff       	.word	0xffff	; ????
    4764:	ff ff       	.word	0xffff	; ????
    4766:	ff ff       	.word	0xffff	; ????
    4768:	ff ff       	.word	0xffff	; ????
    476a:	ff ff       	.word	0xffff	; ????
    476c:	ff ff       	.word	0xffff	; ????
    476e:	ff ff       	.word	0xffff	; ????
    4770:	ff ff       	.word	0xffff	; ????
    4772:	ff ff       	.word	0xffff	; ????
    4774:	ff ff       	.word	0xffff	; ????
    4776:	ff ff       	.word	0xffff	; ????
    4778:	ff ff       	.word	0xffff	; ????
    477a:	ff ff       	.word	0xffff	; ????
    477c:	ff ff       	.word	0xffff	; ????
    477e:	ff ff       	.word	0xffff	; ????
    4780:	ff ff       	.word	0xffff	; ????
    4782:	ff ff       	.word	0xffff	; ????
    4784:	ff ff       	.word	0xffff	; ????
    4786:	ff ff       	.word	0xffff	; ????
    4788:	ff ff       	.word	0xffff	; ????
    478a:	ff ff       	.word	0xffff	; ????
    478c:	ff ff       	.word	0xffff	; ????
    478e:	ff ff       	.word	0xffff	; ????
    4790:	ff ff       	.word	0xffff	; ????
    4792:	ff ff       	.word	0xffff	; ????
    4794:	ff ff       	.word	0xffff	; ????
    4796:	ff ff       	.word	0xffff	; ????
    4798:	ff ff       	.word	0xffff	; ????
    479a:	ff ff       	.word	0xffff	; ????
    479c:	ff ff       	.word	0xffff	; ????
    479e:	ff ff       	.word	0xffff	; ????
    47a0:	ff ff       	.word	0xffff	; ????
    47a2:	ff ff       	.word	0xffff	; ????
    47a4:	ff ff       	.word	0xffff	; ????
    47a6:	ff ff       	.word	0xffff	; ????
    47a8:	ff ff       	.word	0xffff	; ????
    47aa:	ff ff       	.word	0xffff	; ????
    47ac:	ff ff       	.word	0xffff	; ????
    47ae:	ff ff       	.word	0xffff	; ????
    47b0:	ff ff       	.word	0xffff	; ????
    47b2:	ff ff       	.word	0xffff	; ????
    47b4:	ff ff       	.word	0xffff	; ????
    47b6:	ff ff       	.word	0xffff	; ????
    47b8:	ff ff       	.word	0xffff	; ????
    47ba:	ff ff       	.word	0xffff	; ????
    47bc:	ff ff       	.word	0xffff	; ????
    47be:	ff ff       	.word	0xffff	; ????
    47c0:	ff ff       	.word	0xffff	; ????
    47c2:	ff ff       	.word	0xffff	; ????
    47c4:	ff ff       	.word	0xffff	; ????
    47c6:	ff ff       	.word	0xffff	; ????
    47c8:	ff ff       	.word	0xffff	; ????
    47ca:	ff ff       	.word	0xffff	; ????
    47cc:	ff ff       	.word	0xffff	; ????
    47ce:	ff ff       	.word	0xffff	; ????
    47d0:	ff ff       	.word	0xffff	; ????
    47d2:	ff ff       	.word	0xffff	; ????
    47d4:	ff ff       	.word	0xffff	; ????
    47d6:	ff ff       	.word	0xffff	; ????
    47d8:	ff ff       	.word	0xffff	; ????
    47da:	ff ff       	.word	0xffff	; ????
    47dc:	ff ff       	.word	0xffff	; ????
    47de:	ff ff       	.word	0xffff	; ????
    47e0:	ff ff       	.word	0xffff	; ????
    47e2:	ff ff       	.word	0xffff	; ????
    47e4:	ff ff       	.word	0xffff	; ????
    47e6:	ff ff       	.word	0xffff	; ????
    47e8:	ff ff       	.word	0xffff	; ????
    47ea:	ff ff       	.word	0xffff	; ????
    47ec:	ff ff       	.word	0xffff	; ????
    47ee:	ff ff       	.word	0xffff	; ????
    47f0:	ff ff       	.word	0xffff	; ????
    47f2:	ff ff       	.word	0xffff	; ????
    47f4:	ff ff       	.word	0xffff	; ????
    47f6:	ff ff       	.word	0xffff	; ????
    47f8:	ff ff       	.word	0xffff	; ????
    47fa:	ff ff       	.word	0xffff	; ????
    47fc:	ff ff       	.word	0xffff	; ????
    47fe:	ff ff       	.word	0xffff	; ????
    4800:	ff ff       	.word	0xffff	; ????
    4802:	ff ff       	.word	0xffff	; ????
    4804:	ff ff       	.word	0xffff	; ????
    4806:	ff ff       	.word	0xffff	; ????
    4808:	ff ff       	.word	0xffff	; ????
    480a:	ff ff       	.word	0xffff	; ????
    480c:	ff ff       	.word	0xffff	; ????
    480e:	ff ff       	.word	0xffff	; ????
    4810:	ff ff       	.word	0xffff	; ????
    4812:	ff ff       	.word	0xffff	; ????
    4814:	ff ff       	.word	0xffff	; ????
    4816:	ff ff       	.word	0xffff	; ????
    4818:	ff ff       	.word	0xffff	; ????
    481a:	ff ff       	.word	0xffff	; ????
    481c:	ff ff       	.word	0xffff	; ????
    481e:	ff ff       	.word	0xffff	; ????
    4820:	ff ff       	.word	0xffff	; ????
    4822:	ff ff       	.word	0xffff	; ????
    4824:	ff ff       	.word	0xffff	; ????
    4826:	ff ff       	.word	0xffff	; ????
    4828:	ff ff       	.word	0xffff	; ????
    482a:	ff ff       	.word	0xffff	; ????
    482c:	ff ff       	.word	0xffff	; ????
    482e:	ff ff       	.word	0xffff	; ????
    4830:	ff ff       	.word	0xffff	; ????
    4832:	ff ff       	.word	0xffff	; ????
    4834:	ff ff       	.word	0xffff	; ????
    4836:	ff ff       	.word	0xffff	; ????
    4838:	ff ff       	.word	0xffff	; ????
    483a:	ff ff       	.word	0xffff	; ????
    483c:	ff ff       	.word	0xffff	; ????
    483e:	ff ff       	.word	0xffff	; ????
    4840:	ff ff       	.word	0xffff	; ????
    4842:	ff ff       	.word	0xffff	; ????
    4844:	ff ff       	.word	0xffff	; ????
    4846:	ff ff       	.word	0xffff	; ????
    4848:	ff ff       	.word	0xffff	; ????
    484a:	ff ff       	.word	0xffff	; ????
    484c:	ff ff       	.word	0xffff	; ????
    484e:	ff ff       	.word	0xffff	; ????
    4850:	ff ff       	.word	0xffff	; ????
    4852:	ff ff       	.word	0xffff	; ????
    4854:	ff ff       	.word	0xffff	; ????
    4856:	ff ff       	.word	0xffff	; ????
    4858:	ff ff       	.word	0xffff	; ????
    485a:	ff ff       	.word	0xffff	; ????
    485c:	ff ff       	.word	0xffff	; ????
    485e:	ff ff       	.word	0xffff	; ????
    4860:	ff ff       	.word	0xffff	; ????
    4862:	ff ff       	.word	0xffff	; ????
    4864:	ff ff       	.word	0xffff	; ????
    4866:	ff ff       	.word	0xffff	; ????
    4868:	ff ff       	.word	0xffff	; ????
    486a:	ff ff       	.word	0xffff	; ????
    486c:	ff ff       	.word	0xffff	; ????
    486e:	ff ff       	.word	0xffff	; ????
    4870:	ff ff       	.word	0xffff	; ????
    4872:	ff ff       	.word	0xffff	; ????
    4874:	ff ff       	.word	0xffff	; ????
    4876:	ff ff       	.word	0xffff	; ????
    4878:	ff ff       	.word	0xffff	; ????
    487a:	ff ff       	.word	0xffff	; ????
    487c:	ff ff       	.word	0xffff	; ????
    487e:	ff ff       	.word	0xffff	; ????
    4880:	ff ff       	.word	0xffff	; ????
    4882:	ff ff       	.word	0xffff	; ????
    4884:	ff ff       	.word	0xffff	; ????
    4886:	ff ff       	.word	0xffff	; ????
    4888:	ff ff       	.word	0xffff	; ????
    488a:	ff ff       	.word	0xffff	; ????
    488c:	ff ff       	.word	0xffff	; ????
    488e:	ff ff       	.word	0xffff	; ????
    4890:	ff ff       	.word	0xffff	; ????
    4892:	ff ff       	.word	0xffff	; ????
    4894:	ff ff       	.word	0xffff	; ????
    4896:	ff ff       	.word	0xffff	; ????
    4898:	ff ff       	.word	0xffff	; ????
    489a:	ff ff       	.word	0xffff	; ????
    489c:	ff ff       	.word	0xffff	; ????
    489e:	ff ff       	.word	0xffff	; ????
    48a0:	ff ff       	.word	0xffff	; ????
    48a2:	ff ff       	.word	0xffff	; ????
    48a4:	ff ff       	.word	0xffff	; ????
    48a6:	ff ff       	.word	0xffff	; ????
    48a8:	ff ff       	.word	0xffff	; ????
    48aa:	ff ff       	.word	0xffff	; ????
    48ac:	ff ff       	.word	0xffff	; ????
    48ae:	ff ff       	.word	0xffff	; ????
    48b0:	ff ff       	.word	0xffff	; ????
    48b2:	ff ff       	.word	0xffff	; ????
    48b4:	ff ff       	.word	0xffff	; ????
    48b6:	ff ff       	.word	0xffff	; ????
    48b8:	ff ff       	.word	0xffff	; ????
    48ba:	ff ff       	.word	0xffff	; ????
    48bc:	ff ff       	.word	0xffff	; ????
    48be:	ff ff       	.word	0xffff	; ????
    48c0:	ff ff       	.word	0xffff	; ????
    48c2:	ff ff       	.word	0xffff	; ????
    48c4:	ff ff       	.word	0xffff	; ????
    48c6:	ff ff       	.word	0xffff	; ????
    48c8:	ff ff       	.word	0xffff	; ????
    48ca:	ff ff       	.word	0xffff	; ????
    48cc:	ff ff       	.word	0xffff	; ????
    48ce:	ff ff       	.word	0xffff	; ????
    48d0:	ff ff       	.word	0xffff	; ????
    48d2:	ff ff       	.word	0xffff	; ????
    48d4:	ff ff       	.word	0xffff	; ????
    48d6:	ff ff       	.word	0xffff	; ????
    48d8:	ff ff       	.word	0xffff	; ????
    48da:	ff ff       	.word	0xffff	; ????
    48dc:	ff ff       	.word	0xffff	; ????
    48de:	ff ff       	.word	0xffff	; ????
    48e0:	ff ff       	.word	0xffff	; ????
    48e2:	ff ff       	.word	0xffff	; ????
    48e4:	ff ff       	.word	0xffff	; ????
    48e6:	ff ff       	.word	0xffff	; ????
    48e8:	ff ff       	.word	0xffff	; ????
    48ea:	ff ff       	.word	0xffff	; ????
    48ec:	ff ff       	.word	0xffff	; ????
    48ee:	ff ff       	.word	0xffff	; ????
    48f0:	ff ff       	.word	0xffff	; ????
    48f2:	ff ff       	.word	0xffff	; ????
    48f4:	ff ff       	.word	0xffff	; ????
    48f6:	ff ff       	.word	0xffff	; ????
    48f8:	ff ff       	.word	0xffff	; ????
    48fa:	ff ff       	.word	0xffff	; ????
    48fc:	ff ff       	.word	0xffff	; ????
    48fe:	ff ff       	.word	0xffff	; ????
    4900:	ff ff       	.word	0xffff	; ????
    4902:	ff ff       	.word	0xffff	; ????
    4904:	ff ff       	.word	0xffff	; ????
    4906:	ff ff       	.word	0xffff	; ????
    4908:	ff ff       	.word	0xffff	; ????
    490a:	ff ff       	.word	0xffff	; ????
    490c:	ff ff       	.word	0xffff	; ????
    490e:	ff ff       	.word	0xffff	; ????
    4910:	ff ff       	.word	0xffff	; ????
    4912:	ff ff       	.word	0xffff	; ????
    4914:	ff ff       	.word	0xffff	; ????
    4916:	ff ff       	.word	0xffff	; ????
    4918:	ff ff       	.word	0xffff	; ????
    491a:	ff ff       	.word	0xffff	; ????
    491c:	ff ff       	.word	0xffff	; ????
    491e:	ff ff       	.word	0xffff	; ????
    4920:	ff ff       	.word	0xffff	; ????
    4922:	ff ff       	.word	0xffff	; ????
    4924:	ff ff       	.word	0xffff	; ????
    4926:	ff ff       	.word	0xffff	; ????
    4928:	ff ff       	.word	0xffff	; ????
    492a:	ff ff       	.word	0xffff	; ????
    492c:	ff ff       	.word	0xffff	; ????
    492e:	ff ff       	.word	0xffff	; ????
    4930:	ff ff       	.word	0xffff	; ????
    4932:	ff ff       	.word	0xffff	; ????
    4934:	ff ff       	.word	0xffff	; ????
    4936:	ff ff       	.word	0xffff	; ????
    4938:	ff ff       	.word	0xffff	; ????
    493a:	ff ff       	.word	0xffff	; ????
    493c:	ff ff       	.word	0xffff	; ????
    493e:	ff ff       	.word	0xffff	; ????
    4940:	ff ff       	.word	0xffff	; ????
    4942:	ff ff       	.word	0xffff	; ????
    4944:	ff ff       	.word	0xffff	; ????
    4946:	ff ff       	.word	0xffff	; ????
    4948:	ff ff       	.word	0xffff	; ????
    494a:	ff ff       	.word	0xffff	; ????
    494c:	ff ff       	.word	0xffff	; ????
    494e:	ff ff       	.word	0xffff	; ????
    4950:	ff ff       	.word	0xffff	; ????
    4952:	ff ff       	.word	0xffff	; ????
    4954:	ff ff       	.word	0xffff	; ????
    4956:	ff ff       	.word	0xffff	; ????
    4958:	ff ff       	.word	0xffff	; ????
    495a:	ff ff       	.word	0xffff	; ????
    495c:	ff ff       	.word	0xffff	; ????
    495e:	ff ff       	.word	0xffff	; ????
    4960:	ff ff       	.word	0xffff	; ????
    4962:	ff ff       	.word	0xffff	; ????
    4964:	ff ff       	.word	0xffff	; ????
    4966:	ff ff       	.word	0xffff	; ????
    4968:	ff ff       	.word	0xffff	; ????
    496a:	ff ff       	.word	0xffff	; ????
    496c:	ff ff       	.word	0xffff	; ????
    496e:	ff ff       	.word	0xffff	; ????
    4970:	ff ff       	.word	0xffff	; ????
    4972:	ff ff       	.word	0xffff	; ????
    4974:	ff ff       	.word	0xffff	; ????
    4976:	ff ff       	.word	0xffff	; ????
    4978:	ff ff       	.word	0xffff	; ????
    497a:	ff ff       	.word	0xffff	; ????
    497c:	ff ff       	.word	0xffff	; ????
    497e:	ff ff       	.word	0xffff	; ????
    4980:	ff ff       	.word	0xffff	; ????
    4982:	ff ff       	.word	0xffff	; ????
    4984:	ff ff       	.word	0xffff	; ????
    4986:	ff ff       	.word	0xffff	; ????
    4988:	ff ff       	.word	0xffff	; ????
    498a:	ff ff       	.word	0xffff	; ????
    498c:	ff ff       	.word	0xffff	; ????
    498e:	ff ff       	.word	0xffff	; ????
    4990:	ff ff       	.word	0xffff	; ????
    4992:	ff ff       	.word	0xffff	; ????
    4994:	ff ff       	.word	0xffff	; ????
    4996:	ff ff       	.word	0xffff	; ????
    4998:	ff ff       	.word	0xffff	; ????
    499a:	ff ff       	.word	0xffff	; ????
    499c:	ff ff       	.word	0xffff	; ????
    499e:	ff ff       	.word	0xffff	; ????
    49a0:	ff ff       	.word	0xffff	; ????
    49a2:	ff ff       	.word	0xffff	; ????
    49a4:	ff ff       	.word	0xffff	; ????
    49a6:	ff ff       	.word	0xffff	; ????
    49a8:	ff ff       	.word	0xffff	; ????
    49aa:	ff ff       	.word	0xffff	; ????
    49ac:	ff ff       	.word	0xffff	; ????
    49ae:	ff ff       	.word	0xffff	; ????
    49b0:	ff ff       	.word	0xffff	; ????
    49b2:	ff ff       	.word	0xffff	; ????
    49b4:	ff ff       	.word	0xffff	; ????
    49b6:	ff ff       	.word	0xffff	; ????
    49b8:	ff ff       	.word	0xffff	; ????
    49ba:	ff ff       	.word	0xffff	; ????
    49bc:	ff ff       	.word	0xffff	; ????
    49be:	ff ff       	.word	0xffff	; ????
    49c0:	ff ff       	.word	0xffff	; ????
    49c2:	ff ff       	.word	0xffff	; ????
    49c4:	ff ff       	.word	0xffff	; ????
    49c6:	ff ff       	.word	0xffff	; ????
    49c8:	ff ff       	.word	0xffff	; ????
    49ca:	ff ff       	.word	0xffff	; ????
    49cc:	ff ff       	.word	0xffff	; ????
    49ce:	ff ff       	.word	0xffff	; ????
    49d0:	ff ff       	.word	0xffff	; ????
    49d2:	ff ff       	.word	0xffff	; ????
    49d4:	ff ff       	.word	0xffff	; ????
    49d6:	ff ff       	.word	0xffff	; ????
    49d8:	ff ff       	.word	0xffff	; ????
    49da:	ff ff       	.word	0xffff	; ????
    49dc:	ff ff       	.word	0xffff	; ????
    49de:	ff ff       	.word	0xffff	; ????
    49e0:	ff ff       	.word	0xffff	; ????
    49e2:	ff ff       	.word	0xffff	; ????
    49e4:	ff ff       	.word	0xffff	; ????
    49e6:	ff ff       	.word	0xffff	; ????
    49e8:	ff ff       	.word	0xffff	; ????
    49ea:	ff ff       	.word	0xffff	; ????
    49ec:	ff ff       	.word	0xffff	; ????
    49ee:	ff ff       	.word	0xffff	; ????
    49f0:	ff ff       	.word	0xffff	; ????
    49f2:	ff ff       	.word	0xffff	; ????
    49f4:	ff ff       	.word	0xffff	; ????
    49f6:	ff ff       	.word	0xffff	; ????
    49f8:	ff ff       	.word	0xffff	; ????
    49fa:	ff ff       	.word	0xffff	; ????
    49fc:	ff ff       	.word	0xffff	; ????
    49fe:	ff ff       	.word	0xffff	; ????
    4a00:	ff ff       	.word	0xffff	; ????
    4a02:	ff ff       	.word	0xffff	; ????
    4a04:	ff ff       	.word	0xffff	; ????
    4a06:	ff ff       	.word	0xffff	; ????
    4a08:	ff ff       	.word	0xffff	; ????
    4a0a:	ff ff       	.word	0xffff	; ????
    4a0c:	ff ff       	.word	0xffff	; ????
    4a0e:	ff ff       	.word	0xffff	; ????
    4a10:	ff ff       	.word	0xffff	; ????
    4a12:	ff ff       	.word	0xffff	; ????
    4a14:	ff ff       	.word	0xffff	; ????
    4a16:	ff ff       	.word	0xffff	; ????
    4a18:	ff ff       	.word	0xffff	; ????
    4a1a:	ff ff       	.word	0xffff	; ????
    4a1c:	ff ff       	.word	0xffff	; ????
    4a1e:	ff ff       	.word	0xffff	; ????
    4a20:	ff ff       	.word	0xffff	; ????
    4a22:	ff ff       	.word	0xffff	; ????
    4a24:	ff ff       	.word	0xffff	; ????
    4a26:	ff ff       	.word	0xffff	; ????
    4a28:	ff ff       	.word	0xffff	; ????
    4a2a:	ff ff       	.word	0xffff	; ????
    4a2c:	ff ff       	.word	0xffff	; ????
    4a2e:	ff ff       	.word	0xffff	; ????
    4a30:	ff ff       	.word	0xffff	; ????
    4a32:	ff ff       	.word	0xffff	; ????
    4a34:	ff ff       	.word	0xffff	; ????
    4a36:	ff ff       	.word	0xffff	; ????
    4a38:	ff ff       	.word	0xffff	; ????
    4a3a:	ff ff       	.word	0xffff	; ????
    4a3c:	ff ff       	.word	0xffff	; ????
    4a3e:	ff ff       	.word	0xffff	; ????
    4a40:	ff ff       	.word	0xffff	; ????
    4a42:	ff ff       	.word	0xffff	; ????
    4a44:	ff ff       	.word	0xffff	; ????
    4a46:	ff ff       	.word	0xffff	; ????
    4a48:	ff ff       	.word	0xffff	; ????
    4a4a:	ff ff       	.word	0xffff	; ????
    4a4c:	ff ff       	.word	0xffff	; ????
    4a4e:	ff ff       	.word	0xffff	; ????
    4a50:	ff ff       	.word	0xffff	; ????
    4a52:	ff ff       	.word	0xffff	; ????
    4a54:	ff ff       	.word	0xffff	; ????
    4a56:	ff ff       	.word	0xffff	; ????
    4a58:	ff ff       	.word	0xffff	; ????
    4a5a:	ff ff       	.word	0xffff	; ????
    4a5c:	ff ff       	.word	0xffff	; ????
    4a5e:	ff ff       	.word	0xffff	; ????
    4a60:	ff ff       	.word	0xffff	; ????
    4a62:	ff ff       	.word	0xffff	; ????
    4a64:	ff ff       	.word	0xffff	; ????
    4a66:	ff ff       	.word	0xffff	; ????
    4a68:	ff ff       	.word	0xffff	; ????
    4a6a:	ff ff       	.word	0xffff	; ????
    4a6c:	ff ff       	.word	0xffff	; ????
    4a6e:	ff ff       	.word	0xffff	; ????
    4a70:	ff ff       	.word	0xffff	; ????
    4a72:	ff ff       	.word	0xffff	; ????
    4a74:	ff ff       	.word	0xffff	; ????
    4a76:	ff ff       	.word	0xffff	; ????
    4a78:	ff ff       	.word	0xffff	; ????
    4a7a:	ff ff       	.word	0xffff	; ????
    4a7c:	ff ff       	.word	0xffff	; ????
    4a7e:	ff ff       	.word	0xffff	; ????
    4a80:	ff ff       	.word	0xffff	; ????
    4a82:	ff ff       	.word	0xffff	; ????
    4a84:	ff ff       	.word	0xffff	; ????
    4a86:	ff ff       	.word	0xffff	; ????
    4a88:	ff ff       	.word	0xffff	; ????
    4a8a:	ff ff       	.word	0xffff	; ????
    4a8c:	ff ff       	.word	0xffff	; ????
    4a8e:	ff ff       	.word	0xffff	; ????
    4a90:	ff ff       	.word	0xffff	; ????
    4a92:	ff ff       	.word	0xffff	; ????
    4a94:	ff ff       	.word	0xffff	; ????
    4a96:	ff ff       	.word	0xffff	; ????
    4a98:	ff ff       	.word	0xffff	; ????
    4a9a:	ff ff       	.word	0xffff	; ????
    4a9c:	ff ff       	.word	0xffff	; ????
    4a9e:	ff ff       	.word	0xffff	; ????
    4aa0:	ff ff       	.word	0xffff	; ????
    4aa2:	ff ff       	.word	0xffff	; ????
    4aa4:	ff ff       	.word	0xffff	; ????
    4aa6:	ff ff       	.word	0xffff	; ????
    4aa8:	ff ff       	.word	0xffff	; ????
    4aaa:	ff ff       	.word	0xffff	; ????
    4aac:	ff ff       	.word	0xffff	; ????
    4aae:	ff ff       	.word	0xffff	; ????
    4ab0:	ff ff       	.word	0xffff	; ????
    4ab2:	ff ff       	.word	0xffff	; ????
    4ab4:	ff ff       	.word	0xffff	; ????
    4ab6:	ff ff       	.word	0xffff	; ????
    4ab8:	ff ff       	.word	0xffff	; ????
    4aba:	ff ff       	.word	0xffff	; ????
    4abc:	ff ff       	.word	0xffff	; ????
    4abe:	ff ff       	.word	0xffff	; ????
    4ac0:	ff ff       	.word	0xffff	; ????
    4ac2:	ff ff       	.word	0xffff	; ????
    4ac4:	ff ff       	.word	0xffff	; ????
    4ac6:	ff ff       	.word	0xffff	; ????
    4ac8:	ff ff       	.word	0xffff	; ????
    4aca:	ff ff       	.word	0xffff	; ????
    4acc:	ff ff       	.word	0xffff	; ????
    4ace:	ff ff       	.word	0xffff	; ????
    4ad0:	ff ff       	.word	0xffff	; ????
    4ad2:	ff ff       	.word	0xffff	; ????
    4ad4:	ff ff       	.word	0xffff	; ????
    4ad6:	ff ff       	.word	0xffff	; ????
    4ad8:	ff ff       	.word	0xffff	; ????
    4ada:	ff ff       	.word	0xffff	; ????
    4adc:	ff ff       	.word	0xffff	; ????
    4ade:	ff ff       	.word	0xffff	; ????
    4ae0:	ff ff       	.word	0xffff	; ????
    4ae2:	ff ff       	.word	0xffff	; ????
    4ae4:	ff ff       	.word	0xffff	; ????
    4ae6:	ff ff       	.word	0xffff	; ????
    4ae8:	ff ff       	.word	0xffff	; ????
    4aea:	ff ff       	.word	0xffff	; ????
    4aec:	ff ff       	.word	0xffff	; ????
    4aee:	ff ff       	.word	0xffff	; ????
    4af0:	ff ff       	.word	0xffff	; ????
    4af2:	ff ff       	.word	0xffff	; ????
    4af4:	ff ff       	.word	0xffff	; ????
    4af6:	ff ff       	.word	0xffff	; ????
    4af8:	ff ff       	.word	0xffff	; ????
    4afa:	ff ff       	.word	0xffff	; ????
    4afc:	ff ff       	.word	0xffff	; ????
    4afe:	ff ff       	.word	0xffff	; ????
    4b00:	ff ff       	.word	0xffff	; ????
    4b02:	ff ff       	.word	0xffff	; ????
    4b04:	ff ff       	.word	0xffff	; ????
    4b06:	ff ff       	.word	0xffff	; ????
    4b08:	ff ff       	.word	0xffff	; ????
    4b0a:	ff ff       	.word	0xffff	; ????
    4b0c:	ff ff       	.word	0xffff	; ????
    4b0e:	ff ff       	.word	0xffff	; ????
    4b10:	ff ff       	.word	0xffff	; ????
    4b12:	ff ff       	.word	0xffff	; ????
    4b14:	ff ff       	.word	0xffff	; ????
    4b16:	ff ff       	.word	0xffff	; ????
    4b18:	ff ff       	.word	0xffff	; ????
    4b1a:	ff ff       	.word	0xffff	; ????
    4b1c:	ff ff       	.word	0xffff	; ????
    4b1e:	ff ff       	.word	0xffff	; ????
    4b20:	ff ff       	.word	0xffff	; ????
    4b22:	ff ff       	.word	0xffff	; ????
    4b24:	ff ff       	.word	0xffff	; ????
    4b26:	ff ff       	.word	0xffff	; ????
    4b28:	ff ff       	.word	0xffff	; ????
    4b2a:	ff ff       	.word	0xffff	; ????
    4b2c:	ff ff       	.word	0xffff	; ????
    4b2e:	ff ff       	.word	0xffff	; ????
    4b30:	ff ff       	.word	0xffff	; ????
    4b32:	ff ff       	.word	0xffff	; ????
    4b34:	ff ff       	.word	0xffff	; ????
    4b36:	ff ff       	.word	0xffff	; ????
    4b38:	ff ff       	.word	0xffff	; ????
    4b3a:	ff ff       	.word	0xffff	; ????
    4b3c:	ff ff       	.word	0xffff	; ????
    4b3e:	ff ff       	.word	0xffff	; ????
    4b40:	ff ff       	.word	0xffff	; ????
    4b42:	ff ff       	.word	0xffff	; ????
    4b44:	ff ff       	.word	0xffff	; ????
    4b46:	ff ff       	.word	0xffff	; ????
    4b48:	ff ff       	.word	0xffff	; ????
    4b4a:	ff ff       	.word	0xffff	; ????
    4b4c:	ff ff       	.word	0xffff	; ????
    4b4e:	ff ff       	.word	0xffff	; ????
    4b50:	ff ff       	.word	0xffff	; ????
    4b52:	ff ff       	.word	0xffff	; ????
    4b54:	ff ff       	.word	0xffff	; ????
    4b56:	ff ff       	.word	0xffff	; ????
    4b58:	ff ff       	.word	0xffff	; ????
    4b5a:	ff ff       	.word	0xffff	; ????
    4b5c:	ff ff       	.word	0xffff	; ????
    4b5e:	ff ff       	.word	0xffff	; ????
    4b60:	ff ff       	.word	0xffff	; ????
    4b62:	ff ff       	.word	0xffff	; ????
    4b64:	ff ff       	.word	0xffff	; ????
    4b66:	ff ff       	.word	0xffff	; ????
    4b68:	ff ff       	.word	0xffff	; ????
    4b6a:	ff ff       	.word	0xffff	; ????
    4b6c:	ff ff       	.word	0xffff	; ????
    4b6e:	ff ff       	.word	0xffff	; ????
    4b70:	ff ff       	.word	0xffff	; ????
    4b72:	ff ff       	.word	0xffff	; ????
    4b74:	ff ff       	.word	0xffff	; ????
    4b76:	ff ff       	.word	0xffff	; ????
    4b78:	ff ff       	.word	0xffff	; ????
    4b7a:	ff ff       	.word	0xffff	; ????
    4b7c:	ff ff       	.word	0xffff	; ????
    4b7e:	ff ff       	.word	0xffff	; ????
    4b80:	ff ff       	.word	0xffff	; ????
    4b82:	ff ff       	.word	0xffff	; ????
    4b84:	ff ff       	.word	0xffff	; ????
    4b86:	ff ff       	.word	0xffff	; ????
    4b88:	ff ff       	.word	0xffff	; ????
    4b8a:	ff ff       	.word	0xffff	; ????
    4b8c:	ff ff       	.word	0xffff	; ????
    4b8e:	ff ff       	.word	0xffff	; ????
    4b90:	ff ff       	.word	0xffff	; ????
    4b92:	ff ff       	.word	0xffff	; ????
    4b94:	ff ff       	.word	0xffff	; ????
    4b96:	ff ff       	.word	0xffff	; ????
    4b98:	ff ff       	.word	0xffff	; ????
    4b9a:	ff ff       	.word	0xffff	; ????
    4b9c:	ff ff       	.word	0xffff	; ????
    4b9e:	ff ff       	.word	0xffff	; ????
    4ba0:	ff ff       	.word	0xffff	; ????
    4ba2:	ff ff       	.word	0xffff	; ????
    4ba4:	ff ff       	.word	0xffff	; ????
    4ba6:	ff ff       	.word	0xffff	; ????
    4ba8:	ff ff       	.word	0xffff	; ????
    4baa:	ff ff       	.word	0xffff	; ????
    4bac:	ff ff       	.word	0xffff	; ????
    4bae:	ff ff       	.word	0xffff	; ????
    4bb0:	ff ff       	.word	0xffff	; ????
    4bb2:	ff ff       	.word	0xffff	; ????
    4bb4:	ff ff       	.word	0xffff	; ????
    4bb6:	ff ff       	.word	0xffff	; ????
    4bb8:	ff ff       	.word	0xffff	; ????
    4bba:	ff ff       	.word	0xffff	; ????
    4bbc:	ff ff       	.word	0xffff	; ????
    4bbe:	ff ff       	.word	0xffff	; ????
    4bc0:	ff ff       	.word	0xffff	; ????
    4bc2:	ff ff       	.word	0xffff	; ????
    4bc4:	ff ff       	.word	0xffff	; ????
    4bc6:	ff ff       	.word	0xffff	; ????
    4bc8:	ff ff       	.word	0xffff	; ????
    4bca:	ff ff       	.word	0xffff	; ????
    4bcc:	ff ff       	.word	0xffff	; ????
    4bce:	ff ff       	.word	0xffff	; ????
    4bd0:	ff ff       	.word	0xffff	; ????
    4bd2:	ff ff       	.word	0xffff	; ????
    4bd4:	ff ff       	.word	0xffff	; ????
    4bd6:	ff ff       	.word	0xffff	; ????
    4bd8:	ff ff       	.word	0xffff	; ????
    4bda:	ff ff       	.word	0xffff	; ????
    4bdc:	ff ff       	.word	0xffff	; ????
    4bde:	ff ff       	.word	0xffff	; ????
    4be0:	ff ff       	.word	0xffff	; ????
    4be2:	ff ff       	.word	0xffff	; ????
    4be4:	ff ff       	.word	0xffff	; ????
    4be6:	ff ff       	.word	0xffff	; ????
    4be8:	ff ff       	.word	0xffff	; ????
    4bea:	ff ff       	.word	0xffff	; ????
    4bec:	ff ff       	.word	0xffff	; ????
    4bee:	ff ff       	.word	0xffff	; ????
    4bf0:	ff ff       	.word	0xffff	; ????
    4bf2:	ff ff       	.word	0xffff	; ????
    4bf4:	ff ff       	.word	0xffff	; ????
    4bf6:	ff ff       	.word	0xffff	; ????
    4bf8:	ff ff       	.word	0xffff	; ????
    4bfa:	ff ff       	.word	0xffff	; ????
    4bfc:	ff ff       	.word	0xffff	; ????
    4bfe:	ff ff       	.word	0xffff	; ????
    4c00:	ff ff       	.word	0xffff	; ????
    4c02:	ff ff       	.word	0xffff	; ????
    4c04:	ff ff       	.word	0xffff	; ????
    4c06:	ff ff       	.word	0xffff	; ????
    4c08:	ff ff       	.word	0xffff	; ????
    4c0a:	ff ff       	.word	0xffff	; ????
    4c0c:	ff ff       	.word	0xffff	; ????
    4c0e:	ff ff       	.word	0xffff	; ????
    4c10:	ff ff       	.word	0xffff	; ????
    4c12:	ff ff       	.word	0xffff	; ????
    4c14:	ff ff       	.word	0xffff	; ????
    4c16:	ff ff       	.word	0xffff	; ????
    4c18:	ff ff       	.word	0xffff	; ????
    4c1a:	ff ff       	.word	0xffff	; ????
    4c1c:	ff ff       	.word	0xffff	; ????
    4c1e:	ff ff       	.word	0xffff	; ????
    4c20:	ff ff       	.word	0xffff	; ????
    4c22:	ff ff       	.word	0xffff	; ????
    4c24:	ff ff       	.word	0xffff	; ????
    4c26:	ff ff       	.word	0xffff	; ????
    4c28:	ff ff       	.word	0xffff	; ????
    4c2a:	ff ff       	.word	0xffff	; ????
    4c2c:	ff ff       	.word	0xffff	; ????
    4c2e:	ff ff       	.word	0xffff	; ????
    4c30:	ff ff       	.word	0xffff	; ????
    4c32:	ff ff       	.word	0xffff	; ????
    4c34:	ff ff       	.word	0xffff	; ????
    4c36:	ff ff       	.word	0xffff	; ????
    4c38:	ff ff       	.word	0xffff	; ????
    4c3a:	ff ff       	.word	0xffff	; ????
    4c3c:	ff ff       	.word	0xffff	; ????
    4c3e:	ff ff       	.word	0xffff	; ????
    4c40:	ff ff       	.word	0xffff	; ????
    4c42:	ff ff       	.word	0xffff	; ????
    4c44:	ff ff       	.word	0xffff	; ????
    4c46:	ff ff       	.word	0xffff	; ????
    4c48:	ff ff       	.word	0xffff	; ????
    4c4a:	ff ff       	.word	0xffff	; ????
    4c4c:	ff ff       	.word	0xffff	; ????
    4c4e:	ff ff       	.word	0xffff	; ????
    4c50:	ff ff       	.word	0xffff	; ????
    4c52:	ff ff       	.word	0xffff	; ????
    4c54:	ff ff       	.word	0xffff	; ????
    4c56:	ff ff       	.word	0xffff	; ????
    4c58:	ff ff       	.word	0xffff	; ????
    4c5a:	ff ff       	.word	0xffff	; ????
    4c5c:	ff ff       	.word	0xffff	; ????
    4c5e:	ff ff       	.word	0xffff	; ????
    4c60:	ff ff       	.word	0xffff	; ????
    4c62:	ff ff       	.word	0xffff	; ????
    4c64:	ff ff       	.word	0xffff	; ????
    4c66:	ff ff       	.word	0xffff	; ????
    4c68:	ff ff       	.word	0xffff	; ????
    4c6a:	ff ff       	.word	0xffff	; ????
    4c6c:	ff ff       	.word	0xffff	; ????
    4c6e:	ff ff       	.word	0xffff	; ????
    4c70:	ff ff       	.word	0xffff	; ????
    4c72:	ff ff       	.word	0xffff	; ????
    4c74:	ff ff       	.word	0xffff	; ????
    4c76:	ff ff       	.word	0xffff	; ????
    4c78:	ff ff       	.word	0xffff	; ????
    4c7a:	ff ff       	.word	0xffff	; ????
    4c7c:	ff ff       	.word	0xffff	; ????
    4c7e:	ff ff       	.word	0xffff	; ????
    4c80:	ff ff       	.word	0xffff	; ????
    4c82:	ff ff       	.word	0xffff	; ????
    4c84:	ff ff       	.word	0xffff	; ????
    4c86:	ff ff       	.word	0xffff	; ????
    4c88:	ff ff       	.word	0xffff	; ????
    4c8a:	ff ff       	.word	0xffff	; ????
    4c8c:	ff ff       	.word	0xffff	; ????
    4c8e:	ff ff       	.word	0xffff	; ????
    4c90:	ff ff       	.word	0xffff	; ????
    4c92:	ff ff       	.word	0xffff	; ????
    4c94:	ff ff       	.word	0xffff	; ????
    4c96:	ff ff       	.word	0xffff	; ????
    4c98:	ff ff       	.word	0xffff	; ????
    4c9a:	ff ff       	.word	0xffff	; ????
    4c9c:	ff ff       	.word	0xffff	; ????
    4c9e:	ff ff       	.word	0xffff	; ????
    4ca0:	ff ff       	.word	0xffff	; ????
    4ca2:	ff ff       	.word	0xffff	; ????
    4ca4:	ff ff       	.word	0xffff	; ????
    4ca6:	ff ff       	.word	0xffff	; ????
    4ca8:	ff ff       	.word	0xffff	; ????
    4caa:	ff ff       	.word	0xffff	; ????
    4cac:	ff ff       	.word	0xffff	; ????
    4cae:	ff ff       	.word	0xffff	; ????
    4cb0:	ff ff       	.word	0xffff	; ????
    4cb2:	ff ff       	.word	0xffff	; ????
    4cb4:	ff ff       	.word	0xffff	; ????
    4cb6:	ff ff       	.word	0xffff	; ????
    4cb8:	ff ff       	.word	0xffff	; ????
    4cba:	ff ff       	.word	0xffff	; ????
    4cbc:	ff ff       	.word	0xffff	; ????
    4cbe:	ff ff       	.word	0xffff	; ????
    4cc0:	ff ff       	.word	0xffff	; ????
    4cc2:	ff ff       	.word	0xffff	; ????
    4cc4:	ff ff       	.word	0xffff	; ????
    4cc6:	ff ff       	.word	0xffff	; ????
    4cc8:	ff ff       	.word	0xffff	; ????
    4cca:	ff ff       	.word	0xffff	; ????
    4ccc:	ff ff       	.word	0xffff	; ????
    4cce:	ff ff       	.word	0xffff	; ????
    4cd0:	ff ff       	.word	0xffff	; ????
    4cd2:	ff ff       	.word	0xffff	; ????
    4cd4:	ff ff       	.word	0xffff	; ????
    4cd6:	ff ff       	.word	0xffff	; ????
    4cd8:	ff ff       	.word	0xffff	; ????
    4cda:	ff ff       	.word	0xffff	; ????
    4cdc:	ff ff       	.word	0xffff	; ????
    4cde:	ff ff       	.word	0xffff	; ????
    4ce0:	ff ff       	.word	0xffff	; ????
    4ce2:	ff ff       	.word	0xffff	; ????
    4ce4:	ff ff       	.word	0xffff	; ????
    4ce6:	ff ff       	.word	0xffff	; ????
    4ce8:	ff ff       	.word	0xffff	; ????
    4cea:	ff ff       	.word	0xffff	; ????
    4cec:	ff ff       	.word	0xffff	; ????
    4cee:	ff ff       	.word	0xffff	; ????
    4cf0:	ff ff       	.word	0xffff	; ????
    4cf2:	ff ff       	.word	0xffff	; ????
    4cf4:	ff ff       	.word	0xffff	; ????
    4cf6:	ff ff       	.word	0xffff	; ????
    4cf8:	ff ff       	.word	0xffff	; ????
    4cfa:	ff ff       	.word	0xffff	; ????
    4cfc:	ff ff       	.word	0xffff	; ????
    4cfe:	ff ff       	.word	0xffff	; ????
    4d00:	ff ff       	.word	0xffff	; ????
    4d02:	ff ff       	.word	0xffff	; ????
    4d04:	ff ff       	.word	0xffff	; ????
    4d06:	ff ff       	.word	0xffff	; ????
    4d08:	ff ff       	.word	0xffff	; ????
    4d0a:	ff ff       	.word	0xffff	; ????
    4d0c:	ff ff       	.word	0xffff	; ????
    4d0e:	ff ff       	.word	0xffff	; ????
    4d10:	ff ff       	.word	0xffff	; ????
    4d12:	ff ff       	.word	0xffff	; ????
    4d14:	ff ff       	.word	0xffff	; ????
    4d16:	ff ff       	.word	0xffff	; ????
    4d18:	ff ff       	.word	0xffff	; ????
    4d1a:	ff ff       	.word	0xffff	; ????
    4d1c:	ff ff       	.word	0xffff	; ????
    4d1e:	ff ff       	.word	0xffff	; ????
    4d20:	ff ff       	.word	0xffff	; ????
    4d22:	ff ff       	.word	0xffff	; ????
    4d24:	ff ff       	.word	0xffff	; ????
    4d26:	ff ff       	.word	0xffff	; ????
    4d28:	ff ff       	.word	0xffff	; ????
    4d2a:	ff ff       	.word	0xffff	; ????
    4d2c:	ff ff       	.word	0xffff	; ????
    4d2e:	ff ff       	.word	0xffff	; ????
    4d30:	ff ff       	.word	0xffff	; ????
    4d32:	ff ff       	.word	0xffff	; ????
    4d34:	ff ff       	.word	0xffff	; ????
    4d36:	ff ff       	.word	0xffff	; ????
    4d38:	ff ff       	.word	0xffff	; ????
    4d3a:	ff ff       	.word	0xffff	; ????
    4d3c:	ff ff       	.word	0xffff	; ????
    4d3e:	ff ff       	.word	0xffff	; ????
    4d40:	ff ff       	.word	0xffff	; ????
    4d42:	ff ff       	.word	0xffff	; ????
    4d44:	ff ff       	.word	0xffff	; ????
    4d46:	ff ff       	.word	0xffff	; ????
    4d48:	ff ff       	.word	0xffff	; ????
    4d4a:	ff ff       	.word	0xffff	; ????
    4d4c:	ff ff       	.word	0xffff	; ????
    4d4e:	ff ff       	.word	0xffff	; ????
    4d50:	ff ff       	.word	0xffff	; ????
    4d52:	ff ff       	.word	0xffff	; ????
    4d54:	ff ff       	.word	0xffff	; ????
    4d56:	ff ff       	.word	0xffff	; ????
    4d58:	ff ff       	.word	0xffff	; ????
    4d5a:	ff ff       	.word	0xffff	; ????
    4d5c:	ff ff       	.word	0xffff	; ????
    4d5e:	ff ff       	.word	0xffff	; ????
    4d60:	ff ff       	.word	0xffff	; ????
    4d62:	ff ff       	.word	0xffff	; ????
    4d64:	ff ff       	.word	0xffff	; ????
    4d66:	ff ff       	.word	0xffff	; ????
    4d68:	ff ff       	.word	0xffff	; ????
    4d6a:	ff ff       	.word	0xffff	; ????
    4d6c:	ff ff       	.word	0xffff	; ????
    4d6e:	ff ff       	.word	0xffff	; ????
    4d70:	ff ff       	.word	0xffff	; ????
    4d72:	ff ff       	.word	0xffff	; ????
    4d74:	ff ff       	.word	0xffff	; ????
    4d76:	ff ff       	.word	0xffff	; ????
    4d78:	ff ff       	.word	0xffff	; ????
    4d7a:	ff ff       	.word	0xffff	; ????
    4d7c:	ff ff       	.word	0xffff	; ????
    4d7e:	ff ff       	.word	0xffff	; ????
    4d80:	ff ff       	.word	0xffff	; ????
    4d82:	ff ff       	.word	0xffff	; ????
    4d84:	ff ff       	.word	0xffff	; ????
    4d86:	ff ff       	.word	0xffff	; ????
    4d88:	ff ff       	.word	0xffff	; ????
    4d8a:	ff ff       	.word	0xffff	; ????
    4d8c:	ff ff       	.word	0xffff	; ????
    4d8e:	ff ff       	.word	0xffff	; ????
    4d90:	ff ff       	.word	0xffff	; ????
    4d92:	ff ff       	.word	0xffff	; ????
    4d94:	ff ff       	.word	0xffff	; ????
    4d96:	ff ff       	.word	0xffff	; ????
    4d98:	ff ff       	.word	0xffff	; ????
    4d9a:	ff ff       	.word	0xffff	; ????
    4d9c:	ff ff       	.word	0xffff	; ????
    4d9e:	ff ff       	.word	0xffff	; ????
    4da0:	ff ff       	.word	0xffff	; ????
    4da2:	ff ff       	.word	0xffff	; ????
    4da4:	ff ff       	.word	0xffff	; ????
    4da6:	ff ff       	.word	0xffff	; ????
    4da8:	ff ff       	.word	0xffff	; ????
    4daa:	ff ff       	.word	0xffff	; ????
    4dac:	ff ff       	.word	0xffff	; ????
    4dae:	ff ff       	.word	0xffff	; ????
    4db0:	ff ff       	.word	0xffff	; ????
    4db2:	ff ff       	.word	0xffff	; ????
    4db4:	ff ff       	.word	0xffff	; ????
    4db6:	ff ff       	.word	0xffff	; ????
    4db8:	ff ff       	.word	0xffff	; ????
    4dba:	ff ff       	.word	0xffff	; ????
    4dbc:	ff ff       	.word	0xffff	; ????
    4dbe:	ff ff       	.word	0xffff	; ????
    4dc0:	ff ff       	.word	0xffff	; ????
    4dc2:	ff ff       	.word	0xffff	; ????
    4dc4:	ff ff       	.word	0xffff	; ????
    4dc6:	ff ff       	.word	0xffff	; ????
    4dc8:	ff ff       	.word	0xffff	; ????
    4dca:	ff ff       	.word	0xffff	; ????
    4dcc:	ff ff       	.word	0xffff	; ????
    4dce:	ff ff       	.word	0xffff	; ????
    4dd0:	ff ff       	.word	0xffff	; ????
    4dd2:	ff ff       	.word	0xffff	; ????
    4dd4:	ff ff       	.word	0xffff	; ????
    4dd6:	ff ff       	.word	0xffff	; ????
    4dd8:	ff ff       	.word	0xffff	; ????
    4dda:	ff ff       	.word	0xffff	; ????
    4ddc:	ff ff       	.word	0xffff	; ????
    4dde:	ff ff       	.word	0xffff	; ????
    4de0:	ff ff       	.word	0xffff	; ????
    4de2:	ff ff       	.word	0xffff	; ????
    4de4:	ff ff       	.word	0xffff	; ????
    4de6:	ff ff       	.word	0xffff	; ????
    4de8:	ff ff       	.word	0xffff	; ????
    4dea:	ff ff       	.word	0xffff	; ????
    4dec:	ff ff       	.word	0xffff	; ????
    4dee:	ff ff       	.word	0xffff	; ????
    4df0:	ff ff       	.word	0xffff	; ????
    4df2:	ff ff       	.word	0xffff	; ????
    4df4:	ff ff       	.word	0xffff	; ????
    4df6:	ff ff       	.word	0xffff	; ????
    4df8:	ff ff       	.word	0xffff	; ????
    4dfa:	ff ff       	.word	0xffff	; ????
    4dfc:	ff ff       	.word	0xffff	; ????
    4dfe:	ff ff       	.word	0xffff	; ????
    4e00:	ff ff       	.word	0xffff	; ????
    4e02:	ff ff       	.word	0xffff	; ????
    4e04:	ff ff       	.word	0xffff	; ????
    4e06:	ff ff       	.word	0xffff	; ????
    4e08:	ff ff       	.word	0xffff	; ????
    4e0a:	ff ff       	.word	0xffff	; ????
    4e0c:	ff ff       	.word	0xffff	; ????
    4e0e:	ff ff       	.word	0xffff	; ????
    4e10:	ff ff       	.word	0xffff	; ????
    4e12:	ff ff       	.word	0xffff	; ????
    4e14:	ff ff       	.word	0xffff	; ????
    4e16:	ff ff       	.word	0xffff	; ????
    4e18:	ff ff       	.word	0xffff	; ????
    4e1a:	ff ff       	.word	0xffff	; ????
    4e1c:	ff ff       	.word	0xffff	; ????
    4e1e:	ff ff       	.word	0xffff	; ????
    4e20:	ff ff       	.word	0xffff	; ????
    4e22:	ff ff       	.word	0xffff	; ????
    4e24:	ff ff       	.word	0xffff	; ????
    4e26:	ff ff       	.word	0xffff	; ????
    4e28:	ff ff       	.word	0xffff	; ????
    4e2a:	ff ff       	.word	0xffff	; ????
    4e2c:	ff ff       	.word	0xffff	; ????
    4e2e:	ff ff       	.word	0xffff	; ????
    4e30:	ff ff       	.word	0xffff	; ????
    4e32:	ff ff       	.word	0xffff	; ????
    4e34:	ff ff       	.word	0xffff	; ????
    4e36:	ff ff       	.word	0xffff	; ????
    4e38:	ff ff       	.word	0xffff	; ????
    4e3a:	ff ff       	.word	0xffff	; ????
    4e3c:	ff ff       	.word	0xffff	; ????
    4e3e:	ff ff       	.word	0xffff	; ????
    4e40:	ff ff       	.word	0xffff	; ????
    4e42:	ff ff       	.word	0xffff	; ????
    4e44:	ff ff       	.word	0xffff	; ????
    4e46:	ff ff       	.word	0xffff	; ????
    4e48:	ff ff       	.word	0xffff	; ????
    4e4a:	ff ff       	.word	0xffff	; ????
    4e4c:	ff ff       	.word	0xffff	; ????
    4e4e:	ff ff       	.word	0xffff	; ????
    4e50:	ff ff       	.word	0xffff	; ????
    4e52:	ff ff       	.word	0xffff	; ????
    4e54:	ff ff       	.word	0xffff	; ????
    4e56:	ff ff       	.word	0xffff	; ????
    4e58:	ff ff       	.word	0xffff	; ????
    4e5a:	ff ff       	.word	0xffff	; ????
    4e5c:	ff ff       	.word	0xffff	; ????
    4e5e:	ff ff       	.word	0xffff	; ????
    4e60:	ff ff       	.word	0xffff	; ????
    4e62:	ff ff       	.word	0xffff	; ????
    4e64:	ff ff       	.word	0xffff	; ????
    4e66:	ff ff       	.word	0xffff	; ????
    4e68:	ff ff       	.word	0xffff	; ????
    4e6a:	ff ff       	.word	0xffff	; ????
    4e6c:	ff ff       	.word	0xffff	; ????
    4e6e:	ff ff       	.word	0xffff	; ????
    4e70:	ff ff       	.word	0xffff	; ????
    4e72:	ff ff       	.word	0xffff	; ????
    4e74:	ff ff       	.word	0xffff	; ????
    4e76:	ff ff       	.word	0xffff	; ????
    4e78:	ff ff       	.word	0xffff	; ????
    4e7a:	ff ff       	.word	0xffff	; ????
    4e7c:	ff ff       	.word	0xffff	; ????
    4e7e:	ff ff       	.word	0xffff	; ????
    4e80:	ff ff       	.word	0xffff	; ????
    4e82:	ff ff       	.word	0xffff	; ????
    4e84:	ff ff       	.word	0xffff	; ????
    4e86:	ff ff       	.word	0xffff	; ????
    4e88:	ff ff       	.word	0xffff	; ????
    4e8a:	ff ff       	.word	0xffff	; ????
    4e8c:	ff ff       	.word	0xffff	; ????
    4e8e:	ff ff       	.word	0xffff	; ????
    4e90:	ff ff       	.word	0xffff	; ????
    4e92:	ff ff       	.word	0xffff	; ????
    4e94:	ff ff       	.word	0xffff	; ????
    4e96:	ff ff       	.word	0xffff	; ????
    4e98:	ff ff       	.word	0xffff	; ????
    4e9a:	ff ff       	.word	0xffff	; ????
    4e9c:	ff ff       	.word	0xffff	; ????
    4e9e:	ff ff       	.word	0xffff	; ????
    4ea0:	ff ff       	.word	0xffff	; ????
    4ea2:	ff ff       	.word	0xffff	; ????
    4ea4:	ff ff       	.word	0xffff	; ????
    4ea6:	ff ff       	.word	0xffff	; ????
    4ea8:	ff ff       	.word	0xffff	; ????
    4eaa:	ff ff       	.word	0xffff	; ????
    4eac:	ff ff       	.word	0xffff	; ????
    4eae:	ff ff       	.word	0xffff	; ????
    4eb0:	ff ff       	.word	0xffff	; ????
    4eb2:	ff ff       	.word	0xffff	; ????
    4eb4:	ff ff       	.word	0xffff	; ????
    4eb6:	ff ff       	.word	0xffff	; ????
    4eb8:	ff ff       	.word	0xffff	; ????
    4eba:	ff ff       	.word	0xffff	; ????
    4ebc:	ff ff       	.word	0xffff	; ????
    4ebe:	ff ff       	.word	0xffff	; ????
    4ec0:	ff ff       	.word	0xffff	; ????
    4ec2:	ff ff       	.word	0xffff	; ????
    4ec4:	ff ff       	.word	0xffff	; ????
    4ec6:	ff ff       	.word	0xffff	; ????
    4ec8:	ff ff       	.word	0xffff	; ????
    4eca:	ff ff       	.word	0xffff	; ????
    4ecc:	ff ff       	.word	0xffff	; ????
    4ece:	ff ff       	.word	0xffff	; ????
    4ed0:	ff ff       	.word	0xffff	; ????
    4ed2:	ff ff       	.word	0xffff	; ????
    4ed4:	ff ff       	.word	0xffff	; ????
    4ed6:	ff ff       	.word	0xffff	; ????
    4ed8:	ff ff       	.word	0xffff	; ????
    4eda:	ff ff       	.word	0xffff	; ????
    4edc:	ff ff       	.word	0xffff	; ????
    4ede:	ff ff       	.word	0xffff	; ????
    4ee0:	ff ff       	.word	0xffff	; ????
    4ee2:	ff ff       	.word	0xffff	; ????
    4ee4:	ff ff       	.word	0xffff	; ????
    4ee6:	ff ff       	.word	0xffff	; ????
    4ee8:	ff ff       	.word	0xffff	; ????
    4eea:	ff ff       	.word	0xffff	; ????
    4eec:	ff ff       	.word	0xffff	; ????
    4eee:	ff ff       	.word	0xffff	; ????
    4ef0:	ff ff       	.word	0xffff	; ????
    4ef2:	ff ff       	.word	0xffff	; ????
    4ef4:	ff ff       	.word	0xffff	; ????
    4ef6:	ff ff       	.word	0xffff	; ????
    4ef8:	ff ff       	.word	0xffff	; ????
    4efa:	ff ff       	.word	0xffff	; ????
    4efc:	ff ff       	.word	0xffff	; ????
    4efe:	ff ff       	.word	0xffff	; ????
    4f00:	ff ff       	.word	0xffff	; ????
    4f02:	ff ff       	.word	0xffff	; ????
    4f04:	ff ff       	.word	0xffff	; ????
    4f06:	ff ff       	.word	0xffff	; ????
    4f08:	ff ff       	.word	0xffff	; ????
    4f0a:	ff ff       	.word	0xffff	; ????
    4f0c:	ff ff       	.word	0xffff	; ????
    4f0e:	ff ff       	.word	0xffff	; ????
    4f10:	ff ff       	.word	0xffff	; ????
    4f12:	ff ff       	.word	0xffff	; ????
    4f14:	ff ff       	.word	0xffff	; ????
    4f16:	ff ff       	.word	0xffff	; ????
    4f18:	ff ff       	.word	0xffff	; ????
    4f1a:	ff ff       	.word	0xffff	; ????
    4f1c:	ff ff       	.word	0xffff	; ????
    4f1e:	ff ff       	.word	0xffff	; ????
    4f20:	ff ff       	.word	0xffff	; ????
    4f22:	ff ff       	.word	0xffff	; ????
    4f24:	ff ff       	.word	0xffff	; ????
    4f26:	ff ff       	.word	0xffff	; ????
    4f28:	ff ff       	.word	0xffff	; ????
    4f2a:	ff ff       	.word	0xffff	; ????
    4f2c:	ff ff       	.word	0xffff	; ????
    4f2e:	ff ff       	.word	0xffff	; ????
    4f30:	ff ff       	.word	0xffff	; ????
    4f32:	ff ff       	.word	0xffff	; ????
    4f34:	ff ff       	.word	0xffff	; ????
    4f36:	ff ff       	.word	0xffff	; ????
    4f38:	ff ff       	.word	0xffff	; ????
    4f3a:	ff ff       	.word	0xffff	; ????
    4f3c:	ff ff       	.word	0xffff	; ????
    4f3e:	ff ff       	.word	0xffff	; ????
    4f40:	ff ff       	.word	0xffff	; ????
    4f42:	ff ff       	.word	0xffff	; ????
    4f44:	ff ff       	.word	0xffff	; ????
    4f46:	ff ff       	.word	0xffff	; ????
    4f48:	ff ff       	.word	0xffff	; ????
    4f4a:	ff ff       	.word	0xffff	; ????
    4f4c:	ff ff       	.word	0xffff	; ????
    4f4e:	ff ff       	.word	0xffff	; ????
    4f50:	ff ff       	.word	0xffff	; ????
    4f52:	ff ff       	.word	0xffff	; ????
    4f54:	ff ff       	.word	0xffff	; ????
    4f56:	ff ff       	.word	0xffff	; ????
    4f58:	ff ff       	.word	0xffff	; ????
    4f5a:	ff ff       	.word	0xffff	; ????
    4f5c:	ff ff       	.word	0xffff	; ????
    4f5e:	ff ff       	.word	0xffff	; ????
    4f60:	ff ff       	.word	0xffff	; ????
    4f62:	ff ff       	.word	0xffff	; ????
    4f64:	ff ff       	.word	0xffff	; ????
    4f66:	ff ff       	.word	0xffff	; ????
    4f68:	ff ff       	.word	0xffff	; ????
    4f6a:	ff ff       	.word	0xffff	; ????
    4f6c:	ff ff       	.word	0xffff	; ????
    4f6e:	ff ff       	.word	0xffff	; ????
    4f70:	ff ff       	.word	0xffff	; ????
    4f72:	ff ff       	.word	0xffff	; ????
    4f74:	ff ff       	.word	0xffff	; ????
    4f76:	ff ff       	.word	0xffff	; ????
    4f78:	ff ff       	.word	0xffff	; ????
    4f7a:	ff ff       	.word	0xffff	; ????
    4f7c:	ff ff       	.word	0xffff	; ????
    4f7e:	ff ff       	.word	0xffff	; ????
    4f80:	ff ff       	.word	0xffff	; ????
    4f82:	ff ff       	.word	0xffff	; ????
    4f84:	ff ff       	.word	0xffff	; ????
    4f86:	ff ff       	.word	0xffff	; ????
    4f88:	ff ff       	.word	0xffff	; ????
    4f8a:	ff ff       	.word	0xffff	; ????
    4f8c:	ff ff       	.word	0xffff	; ????
    4f8e:	ff ff       	.word	0xffff	; ????
    4f90:	ff ff       	.word	0xffff	; ????
    4f92:	ff ff       	.word	0xffff	; ????
    4f94:	ff ff       	.word	0xffff	; ????
    4f96:	ff ff       	.word	0xffff	; ????
    4f98:	ff ff       	.word	0xffff	; ????
    4f9a:	ff ff       	.word	0xffff	; ????
    4f9c:	ff ff       	.word	0xffff	; ????
    4f9e:	ff ff       	.word	0xffff	; ????
    4fa0:	ff ff       	.word	0xffff	; ????
    4fa2:	ff ff       	.word	0xffff	; ????
    4fa4:	ff ff       	.word	0xffff	; ????
    4fa6:	ff ff       	.word	0xffff	; ????
    4fa8:	ff ff       	.word	0xffff	; ????
    4faa:	ff ff       	.word	0xffff	; ????
    4fac:	ff ff       	.word	0xffff	; ????
    4fae:	ff ff       	.word	0xffff	; ????
    4fb0:	ff ff       	.word	0xffff	; ????
    4fb2:	ff ff       	.word	0xffff	; ????
    4fb4:	ff ff       	.word	0xffff	; ????
    4fb6:	ff ff       	.word	0xffff	; ????
    4fb8:	ff ff       	.word	0xffff	; ????
    4fba:	ff ff       	.word	0xffff	; ????
    4fbc:	ff ff       	.word	0xffff	; ????
    4fbe:	ff ff       	.word	0xffff	; ????
    4fc0:	ff ff       	.word	0xffff	; ????
    4fc2:	ff ff       	.word	0xffff	; ????
    4fc4:	ff ff       	.word	0xffff	; ????
    4fc6:	ff ff       	.word	0xffff	; ????
    4fc8:	ff ff       	.word	0xffff	; ????
    4fca:	ff ff       	.word	0xffff	; ????
    4fcc:	ff ff       	.word	0xffff	; ????
    4fce:	ff ff       	.word	0xffff	; ????
    4fd0:	ff ff       	.word	0xffff	; ????
    4fd2:	ff ff       	.word	0xffff	; ????
    4fd4:	ff ff       	.word	0xffff	; ????
    4fd6:	ff ff       	.word	0xffff	; ????
    4fd8:	ff ff       	.word	0xffff	; ????
    4fda:	ff ff       	.word	0xffff	; ????
    4fdc:	ff ff       	.word	0xffff	; ????
    4fde:	ff ff       	.word	0xffff	; ????
    4fe0:	ff ff       	.word	0xffff	; ????
    4fe2:	ff ff       	.word	0xffff	; ????
    4fe4:	ff ff       	.word	0xffff	; ????
    4fe6:	ff ff       	.word	0xffff	; ????
    4fe8:	ff ff       	.word	0xffff	; ????
    4fea:	ff ff       	.word	0xffff	; ????
    4fec:	ff ff       	.word	0xffff	; ????
    4fee:	ff ff       	.word	0xffff	; ????
    4ff0:	ff ff       	.word	0xffff	; ????
    4ff2:	ff ff       	.word	0xffff	; ????
    4ff4:	ff ff       	.word	0xffff	; ????
    4ff6:	ff ff       	.word	0xffff	; ????
    4ff8:	ff ff       	.word	0xffff	; ????
    4ffa:	ff ff       	.word	0xffff	; ????
    4ffc:	ff ff       	.word	0xffff	; ????
    4ffe:	ff ff       	.word	0xffff	; ????
    5000:	ff ff       	.word	0xffff	; ????
    5002:	ff ff       	.word	0xffff	; ????
    5004:	ff ff       	.word	0xffff	; ????
    5006:	ff ff       	.word	0xffff	; ????
    5008:	ff ff       	.word	0xffff	; ????
    500a:	ff ff       	.word	0xffff	; ????
    500c:	ff ff       	.word	0xffff	; ????
    500e:	ff ff       	.word	0xffff	; ????
    5010:	ff ff       	.word	0xffff	; ????
    5012:	ff ff       	.word	0xffff	; ????
    5014:	ff ff       	.word	0xffff	; ????
    5016:	ff ff       	.word	0xffff	; ????
    5018:	ff ff       	.word	0xffff	; ????
    501a:	ff ff       	.word	0xffff	; ????
    501c:	ff ff       	.word	0xffff	; ????
    501e:	ff ff       	.word	0xffff	; ????
    5020:	ff ff       	.word	0xffff	; ????
    5022:	ff ff       	.word	0xffff	; ????
    5024:	ff ff       	.word	0xffff	; ????
    5026:	ff ff       	.word	0xffff	; ????
    5028:	ff ff       	.word	0xffff	; ????
    502a:	ff ff       	.word	0xffff	; ????
    502c:	ff ff       	.word	0xffff	; ????
    502e:	ff ff       	.word	0xffff	; ????
    5030:	ff ff       	.word	0xffff	; ????
    5032:	ff ff       	.word	0xffff	; ????
    5034:	ff ff       	.word	0xffff	; ????
    5036:	ff ff       	.word	0xffff	; ????
    5038:	ff ff       	.word	0xffff	; ????
    503a:	ff ff       	.word	0xffff	; ????
    503c:	ff ff       	.word	0xffff	; ????
    503e:	ff ff       	.word	0xffff	; ????
    5040:	ff ff       	.word	0xffff	; ????
    5042:	ff ff       	.word	0xffff	; ????
    5044:	ff ff       	.word	0xffff	; ????
    5046:	ff ff       	.word	0xffff	; ????
    5048:	ff ff       	.word	0xffff	; ????
    504a:	ff ff       	.word	0xffff	; ????
    504c:	ff ff       	.word	0xffff	; ????
    504e:	ff ff       	.word	0xffff	; ????
    5050:	ff ff       	.word	0xffff	; ????
    5052:	ff ff       	.word	0xffff	; ????
    5054:	ff ff       	.word	0xffff	; ????
    5056:	ff ff       	.word	0xffff	; ????
    5058:	ff ff       	.word	0xffff	; ????
    505a:	ff ff       	.word	0xffff	; ????
    505c:	ff ff       	.word	0xffff	; ????
    505e:	ff ff       	.word	0xffff	; ????
    5060:	ff ff       	.word	0xffff	; ????
    5062:	ff ff       	.word	0xffff	; ????
    5064:	ff ff       	.word	0xffff	; ????
    5066:	ff ff       	.word	0xffff	; ????
    5068:	ff ff       	.word	0xffff	; ????
    506a:	ff ff       	.word	0xffff	; ????
    506c:	ff ff       	.word	0xffff	; ????
    506e:	ff ff       	.word	0xffff	; ????
    5070:	ff ff       	.word	0xffff	; ????
    5072:	ff ff       	.word	0xffff	; ????
    5074:	ff ff       	.word	0xffff	; ????
    5076:	ff ff       	.word	0xffff	; ????
    5078:	ff ff       	.word	0xffff	; ????
    507a:	ff ff       	.word	0xffff	; ????
    507c:	ff ff       	.word	0xffff	; ????
    507e:	ff ff       	.word	0xffff	; ????
    5080:	ff ff       	.word	0xffff	; ????
    5082:	ff ff       	.word	0xffff	; ????
    5084:	ff ff       	.word	0xffff	; ????
    5086:	ff ff       	.word	0xffff	; ????
    5088:	ff ff       	.word	0xffff	; ????
    508a:	ff ff       	.word	0xffff	; ????
    508c:	ff ff       	.word	0xffff	; ????
    508e:	ff ff       	.word	0xffff	; ????
    5090:	ff ff       	.word	0xffff	; ????
    5092:	ff ff       	.word	0xffff	; ????
    5094:	ff ff       	.word	0xffff	; ????
    5096:	ff ff       	.word	0xffff	; ????
    5098:	ff ff       	.word	0xffff	; ????
    509a:	ff ff       	.word	0xffff	; ????
    509c:	ff ff       	.word	0xffff	; ????
    509e:	ff ff       	.word	0xffff	; ????
    50a0:	ff ff       	.word	0xffff	; ????
    50a2:	ff ff       	.word	0xffff	; ????
    50a4:	ff ff       	.word	0xffff	; ????
    50a6:	ff ff       	.word	0xffff	; ????
    50a8:	ff ff       	.word	0xffff	; ????
    50aa:	ff ff       	.word	0xffff	; ????
    50ac:	ff ff       	.word	0xffff	; ????
    50ae:	ff ff       	.word	0xffff	; ????
    50b0:	ff ff       	.word	0xffff	; ????
    50b2:	ff ff       	.word	0xffff	; ????
    50b4:	ff ff       	.word	0xffff	; ????
    50b6:	ff ff       	.word	0xffff	; ????
    50b8:	ff ff       	.word	0xffff	; ????
    50ba:	ff ff       	.word	0xffff	; ????
    50bc:	ff ff       	.word	0xffff	; ????
    50be:	ff ff       	.word	0xffff	; ????
    50c0:	ff ff       	.word	0xffff	; ????
    50c2:	ff ff       	.word	0xffff	; ????
    50c4:	ff ff       	.word	0xffff	; ????
    50c6:	ff ff       	.word	0xffff	; ????
    50c8:	ff ff       	.word	0xffff	; ????
    50ca:	ff ff       	.word	0xffff	; ????
    50cc:	ff ff       	.word	0xffff	; ????
    50ce:	ff ff       	.word	0xffff	; ????
    50d0:	ff ff       	.word	0xffff	; ????
    50d2:	ff ff       	.word	0xffff	; ????
    50d4:	ff ff       	.word	0xffff	; ????
    50d6:	ff ff       	.word	0xffff	; ????
    50d8:	ff ff       	.word	0xffff	; ????
    50da:	ff ff       	.word	0xffff	; ????
    50dc:	ff ff       	.word	0xffff	; ????
    50de:	ff ff       	.word	0xffff	; ????
    50e0:	ff ff       	.word	0xffff	; ????
    50e2:	ff ff       	.word	0xffff	; ????
    50e4:	ff ff       	.word	0xffff	; ????
    50e6:	ff ff       	.word	0xffff	; ????
    50e8:	ff ff       	.word	0xffff	; ????
    50ea:	ff ff       	.word	0xffff	; ????
    50ec:	ff ff       	.word	0xffff	; ????
    50ee:	ff ff       	.word	0xffff	; ????
    50f0:	ff ff       	.word	0xffff	; ????
    50f2:	ff ff       	.word	0xffff	; ????
    50f4:	ff ff       	.word	0xffff	; ????
    50f6:	ff ff       	.word	0xffff	; ????
    50f8:	ff ff       	.word	0xffff	; ????
    50fa:	ff ff       	.word	0xffff	; ????
    50fc:	ff ff       	.word	0xffff	; ????
    50fe:	ff ff       	.word	0xffff	; ????
    5100:	ff ff       	.word	0xffff	; ????
    5102:	ff ff       	.word	0xffff	; ????
    5104:	ff ff       	.word	0xffff	; ????
    5106:	ff ff       	.word	0xffff	; ????
    5108:	ff ff       	.word	0xffff	; ????
    510a:	ff ff       	.word	0xffff	; ????
    510c:	ff ff       	.word	0xffff	; ????
    510e:	ff ff       	.word	0xffff	; ????
    5110:	ff ff       	.word	0xffff	; ????
    5112:	ff ff       	.word	0xffff	; ????
    5114:	ff ff       	.word	0xffff	; ????
    5116:	ff ff       	.word	0xffff	; ????
    5118:	ff ff       	.word	0xffff	; ????
    511a:	ff ff       	.word	0xffff	; ????
    511c:	ff ff       	.word	0xffff	; ????
    511e:	ff ff       	.word	0xffff	; ????
    5120:	ff ff       	.word	0xffff	; ????
    5122:	ff ff       	.word	0xffff	; ????
    5124:	ff ff       	.word	0xffff	; ????
    5126:	ff ff       	.word	0xffff	; ????
    5128:	ff ff       	.word	0xffff	; ????
    512a:	ff ff       	.word	0xffff	; ????
    512c:	ff ff       	.word	0xffff	; ????
    512e:	ff ff       	.word	0xffff	; ????
    5130:	ff ff       	.word	0xffff	; ????
    5132:	ff ff       	.word	0xffff	; ????
    5134:	ff ff       	.word	0xffff	; ????
    5136:	ff ff       	.word	0xffff	; ????
    5138:	ff ff       	.word	0xffff	; ????
    513a:	ff ff       	.word	0xffff	; ????
    513c:	ff ff       	.word	0xffff	; ????
    513e:	ff ff       	.word	0xffff	; ????
    5140:	ff ff       	.word	0xffff	; ????
    5142:	ff ff       	.word	0xffff	; ????
    5144:	ff ff       	.word	0xffff	; ????
    5146:	ff ff       	.word	0xffff	; ????
    5148:	ff ff       	.word	0xffff	; ????
    514a:	ff ff       	.word	0xffff	; ????
    514c:	ff ff       	.word	0xffff	; ????
    514e:	ff ff       	.word	0xffff	; ????
    5150:	ff ff       	.word	0xffff	; ????
    5152:	ff ff       	.word	0xffff	; ????
    5154:	ff ff       	.word	0xffff	; ????
    5156:	ff ff       	.word	0xffff	; ????
    5158:	ff ff       	.word	0xffff	; ????
    515a:	ff ff       	.word	0xffff	; ????
    515c:	ff ff       	.word	0xffff	; ????
    515e:	ff ff       	.word	0xffff	; ????
    5160:	ff ff       	.word	0xffff	; ????
    5162:	ff ff       	.word	0xffff	; ????
    5164:	ff ff       	.word	0xffff	; ????
    5166:	ff ff       	.word	0xffff	; ????
    5168:	ff ff       	.word	0xffff	; ????
    516a:	ff ff       	.word	0xffff	; ????
    516c:	ff ff       	.word	0xffff	; ????
    516e:	ff ff       	.word	0xffff	; ????
    5170:	ff ff       	.word	0xffff	; ????
    5172:	ff ff       	.word	0xffff	; ????
    5174:	ff ff       	.word	0xffff	; ????
    5176:	ff ff       	.word	0xffff	; ????
    5178:	ff ff       	.word	0xffff	; ????
    517a:	ff ff       	.word	0xffff	; ????
    517c:	ff ff       	.word	0xffff	; ????
    517e:	ff ff       	.word	0xffff	; ????
    5180:	ff ff       	.word	0xffff	; ????
    5182:	ff ff       	.word	0xffff	; ????
    5184:	ff ff       	.word	0xffff	; ????
    5186:	ff ff       	.word	0xffff	; ????
    5188:	ff ff       	.word	0xffff	; ????
    518a:	ff ff       	.word	0xffff	; ????
    518c:	ff ff       	.word	0xffff	; ????
    518e:	ff ff       	.word	0xffff	; ????
    5190:	ff ff       	.word	0xffff	; ????
    5192:	ff ff       	.word	0xffff	; ????
    5194:	ff ff       	.word	0xffff	; ????
    5196:	ff ff       	.word	0xffff	; ????
    5198:	ff ff       	.word	0xffff	; ????
    519a:	ff ff       	.word	0xffff	; ????
    519c:	ff ff       	.word	0xffff	; ????
    519e:	ff ff       	.word	0xffff	; ????
    51a0:	ff ff       	.word	0xffff	; ????
    51a2:	ff ff       	.word	0xffff	; ????
    51a4:	ff ff       	.word	0xffff	; ????
    51a6:	ff ff       	.word	0xffff	; ????
    51a8:	ff ff       	.word	0xffff	; ????
    51aa:	ff ff       	.word	0xffff	; ????
    51ac:	ff ff       	.word	0xffff	; ????
    51ae:	ff ff       	.word	0xffff	; ????
    51b0:	ff ff       	.word	0xffff	; ????
    51b2:	ff ff       	.word	0xffff	; ????
    51b4:	ff ff       	.word	0xffff	; ????
    51b6:	ff ff       	.word	0xffff	; ????
    51b8:	ff ff       	.word	0xffff	; ????
    51ba:	ff ff       	.word	0xffff	; ????
    51bc:	ff ff       	.word	0xffff	; ????
    51be:	ff ff       	.word	0xffff	; ????
    51c0:	ff ff       	.word	0xffff	; ????
    51c2:	ff ff       	.word	0xffff	; ????
    51c4:	ff ff       	.word	0xffff	; ????
    51c6:	ff ff       	.word	0xffff	; ????
    51c8:	ff ff       	.word	0xffff	; ????
    51ca:	ff ff       	.word	0xffff	; ????
    51cc:	ff ff       	.word	0xffff	; ????
    51ce:	ff ff       	.word	0xffff	; ????
    51d0:	ff ff       	.word	0xffff	; ????
    51d2:	ff ff       	.word	0xffff	; ????
    51d4:	ff ff       	.word	0xffff	; ????
    51d6:	ff ff       	.word	0xffff	; ????
    51d8:	ff ff       	.word	0xffff	; ????
    51da:	ff ff       	.word	0xffff	; ????
    51dc:	ff ff       	.word	0xffff	; ????
    51de:	ff ff       	.word	0xffff	; ????
    51e0:	ff ff       	.word	0xffff	; ????
    51e2:	ff ff       	.word	0xffff	; ????
    51e4:	ff ff       	.word	0xffff	; ????
    51e6:	ff ff       	.word	0xffff	; ????
    51e8:	ff ff       	.word	0xffff	; ????
    51ea:	ff ff       	.word	0xffff	; ????
    51ec:	ff ff       	.word	0xffff	; ????
    51ee:	ff ff       	.word	0xffff	; ????
    51f0:	ff ff       	.word	0xffff	; ????
    51f2:	ff ff       	.word	0xffff	; ????
    51f4:	ff ff       	.word	0xffff	; ????
    51f6:	ff ff       	.word	0xffff	; ????
    51f8:	ff ff       	.word	0xffff	; ????
    51fa:	ff ff       	.word	0xffff	; ????
    51fc:	ff ff       	.word	0xffff	; ????
    51fe:	ff ff       	.word	0xffff	; ????
    5200:	ff ff       	.word	0xffff	; ????
    5202:	ff ff       	.word	0xffff	; ????
    5204:	ff ff       	.word	0xffff	; ????
    5206:	ff ff       	.word	0xffff	; ????
    5208:	ff ff       	.word	0xffff	; ????
    520a:	ff ff       	.word	0xffff	; ????
    520c:	ff ff       	.word	0xffff	; ????
    520e:	ff ff       	.word	0xffff	; ????
    5210:	ff ff       	.word	0xffff	; ????
    5212:	ff ff       	.word	0xffff	; ????
    5214:	ff ff       	.word	0xffff	; ????
    5216:	ff ff       	.word	0xffff	; ????
    5218:	ff ff       	.word	0xffff	; ????
    521a:	ff ff       	.word	0xffff	; ????
    521c:	ff ff       	.word	0xffff	; ????
    521e:	ff ff       	.word	0xffff	; ????
    5220:	ff ff       	.word	0xffff	; ????
    5222:	ff ff       	.word	0xffff	; ????
    5224:	ff ff       	.word	0xffff	; ????
    5226:	ff ff       	.word	0xffff	; ????
    5228:	ff ff       	.word	0xffff	; ????
    522a:	ff ff       	.word	0xffff	; ????
    522c:	ff ff       	.word	0xffff	; ????
    522e:	ff ff       	.word	0xffff	; ????
    5230:	ff ff       	.word	0xffff	; ????
    5232:	ff ff       	.word	0xffff	; ????
    5234:	ff ff       	.word	0xffff	; ????
    5236:	ff ff       	.word	0xffff	; ????
    5238:	ff ff       	.word	0xffff	; ????
    523a:	ff ff       	.word	0xffff	; ????
    523c:	ff ff       	.word	0xffff	; ????
    523e:	ff ff       	.word	0xffff	; ????
    5240:	ff ff       	.word	0xffff	; ????
    5242:	ff ff       	.word	0xffff	; ????
    5244:	ff ff       	.word	0xffff	; ????
    5246:	ff ff       	.word	0xffff	; ????
    5248:	ff ff       	.word	0xffff	; ????
    524a:	ff ff       	.word	0xffff	; ????
    524c:	ff ff       	.word	0xffff	; ????
    524e:	ff ff       	.word	0xffff	; ????
    5250:	ff ff       	.word	0xffff	; ????
    5252:	ff ff       	.word	0xffff	; ????
    5254:	ff ff       	.word	0xffff	; ????
    5256:	ff ff       	.word	0xffff	; ????
    5258:	ff ff       	.word	0xffff	; ????
    525a:	ff ff       	.word	0xffff	; ????
    525c:	ff ff       	.word	0xffff	; ????
    525e:	ff ff       	.word	0xffff	; ????
    5260:	ff ff       	.word	0xffff	; ????
    5262:	ff ff       	.word	0xffff	; ????
    5264:	ff ff       	.word	0xffff	; ????
    5266:	ff ff       	.word	0xffff	; ????
    5268:	ff ff       	.word	0xffff	; ????
    526a:	ff ff       	.word	0xffff	; ????
    526c:	ff ff       	.word	0xffff	; ????
    526e:	ff ff       	.word	0xffff	; ????
    5270:	ff ff       	.word	0xffff	; ????
    5272:	ff ff       	.word	0xffff	; ????
    5274:	ff ff       	.word	0xffff	; ????
    5276:	ff ff       	.word	0xffff	; ????
    5278:	ff ff       	.word	0xffff	; ????
    527a:	ff ff       	.word	0xffff	; ????
    527c:	ff ff       	.word	0xffff	; ????
    527e:	ff ff       	.word	0xffff	; ????
    5280:	ff ff       	.word	0xffff	; ????
    5282:	ff ff       	.word	0xffff	; ????
    5284:	ff ff       	.word	0xffff	; ????
    5286:	ff ff       	.word	0xffff	; ????
    5288:	ff ff       	.word	0xffff	; ????
    528a:	ff ff       	.word	0xffff	; ????
    528c:	ff ff       	.word	0xffff	; ????
    528e:	ff ff       	.word	0xffff	; ????
    5290:	ff ff       	.word	0xffff	; ????
    5292:	ff ff       	.word	0xffff	; ????
    5294:	ff ff       	.word	0xffff	; ????
    5296:	ff ff       	.word	0xffff	; ????
    5298:	ff ff       	.word	0xffff	; ????
    529a:	ff ff       	.word	0xffff	; ????
    529c:	ff ff       	.word	0xffff	; ????
    529e:	ff ff       	.word	0xffff	; ????
    52a0:	ff ff       	.word	0xffff	; ????
    52a2:	ff ff       	.word	0xffff	; ????
    52a4:	ff ff       	.word	0xffff	; ????
    52a6:	ff ff       	.word	0xffff	; ????
    52a8:	ff ff       	.word	0xffff	; ????
    52aa:	ff ff       	.word	0xffff	; ????
    52ac:	ff ff       	.word	0xffff	; ????
    52ae:	ff ff       	.word	0xffff	; ????
    52b0:	ff ff       	.word	0xffff	; ????
    52b2:	ff ff       	.word	0xffff	; ????
    52b4:	ff ff       	.word	0xffff	; ????
    52b6:	ff ff       	.word	0xffff	; ????
    52b8:	ff ff       	.word	0xffff	; ????
    52ba:	ff ff       	.word	0xffff	; ????
    52bc:	ff ff       	.word	0xffff	; ????
    52be:	ff ff       	.word	0xffff	; ????
    52c0:	ff ff       	.word	0xffff	; ????
    52c2:	ff ff       	.word	0xffff	; ????
    52c4:	ff ff       	.word	0xffff	; ????
    52c6:	ff ff       	.word	0xffff	; ????
    52c8:	ff ff       	.word	0xffff	; ????
    52ca:	ff ff       	.word	0xffff	; ????
    52cc:	ff ff       	.word	0xffff	; ????
    52ce:	ff ff       	.word	0xffff	; ????
    52d0:	ff ff       	.word	0xffff	; ????
    52d2:	ff ff       	.word	0xffff	; ????
    52d4:	ff ff       	.word	0xffff	; ????
    52d6:	ff ff       	.word	0xffff	; ????
    52d8:	ff ff       	.word	0xffff	; ????
    52da:	ff ff       	.word	0xffff	; ????
    52dc:	ff ff       	.word	0xffff	; ????
    52de:	ff ff       	.word	0xffff	; ????
    52e0:	ff ff       	.word	0xffff	; ????
    52e2:	ff ff       	.word	0xffff	; ????
    52e4:	ff ff       	.word	0xffff	; ????
    52e6:	ff ff       	.word	0xffff	; ????
    52e8:	ff ff       	.word	0xffff	; ????
    52ea:	ff ff       	.word	0xffff	; ????
    52ec:	ff ff       	.word	0xffff	; ????
    52ee:	ff ff       	.word	0xffff	; ????
    52f0:	ff ff       	.word	0xffff	; ????
    52f2:	ff ff       	.word	0xffff	; ????
    52f4:	ff ff       	.word	0xffff	; ????
    52f6:	ff ff       	.word	0xffff	; ????
    52f8:	ff ff       	.word	0xffff	; ????
    52fa:	ff ff       	.word	0xffff	; ????
    52fc:	ff ff       	.word	0xffff	; ????
    52fe:	ff ff       	.word	0xffff	; ????
    5300:	ff ff       	.word	0xffff	; ????
    5302:	ff ff       	.word	0xffff	; ????
    5304:	ff ff       	.word	0xffff	; ????
    5306:	ff ff       	.word	0xffff	; ????
    5308:	ff ff       	.word	0xffff	; ????
    530a:	ff ff       	.word	0xffff	; ????
    530c:	ff ff       	.word	0xffff	; ????
    530e:	ff ff       	.word	0xffff	; ????
    5310:	ff ff       	.word	0xffff	; ????
    5312:	ff ff       	.word	0xffff	; ????
    5314:	ff ff       	.word	0xffff	; ????
    5316:	ff ff       	.word	0xffff	; ????
    5318:	ff ff       	.word	0xffff	; ????
    531a:	ff ff       	.word	0xffff	; ????
    531c:	ff ff       	.word	0xffff	; ????
    531e:	ff ff       	.word	0xffff	; ????
    5320:	ff ff       	.word	0xffff	; ????
    5322:	ff ff       	.word	0xffff	; ????
    5324:	ff ff       	.word	0xffff	; ????
    5326:	ff ff       	.word	0xffff	; ????
    5328:	ff ff       	.word	0xffff	; ????
    532a:	ff ff       	.word	0xffff	; ????
    532c:	ff ff       	.word	0xffff	; ????
    532e:	ff ff       	.word	0xffff	; ????
    5330:	ff ff       	.word	0xffff	; ????
    5332:	ff ff       	.word	0xffff	; ????
    5334:	ff ff       	.word	0xffff	; ????
    5336:	ff ff       	.word	0xffff	; ????
    5338:	ff ff       	.word	0xffff	; ????
    533a:	ff ff       	.word	0xffff	; ????
    533c:	ff ff       	.word	0xffff	; ????
    533e:	ff ff       	.word	0xffff	; ????
    5340:	ff ff       	.word	0xffff	; ????
    5342:	ff ff       	.word	0xffff	; ????
    5344:	ff ff       	.word	0xffff	; ????
    5346:	ff ff       	.word	0xffff	; ????
    5348:	ff ff       	.word	0xffff	; ????
    534a:	ff ff       	.word	0xffff	; ????
    534c:	ff ff       	.word	0xffff	; ????
    534e:	ff ff       	.word	0xffff	; ????
    5350:	ff ff       	.word	0xffff	; ????
    5352:	ff ff       	.word	0xffff	; ????
    5354:	ff ff       	.word	0xffff	; ????
    5356:	ff ff       	.word	0xffff	; ????
    5358:	ff ff       	.word	0xffff	; ????
    535a:	ff ff       	.word	0xffff	; ????
    535c:	ff ff       	.word	0xffff	; ????
    535e:	ff ff       	.word	0xffff	; ????
    5360:	ff ff       	.word	0xffff	; ????
    5362:	ff ff       	.word	0xffff	; ????
    5364:	ff ff       	.word	0xffff	; ????
    5366:	ff ff       	.word	0xffff	; ????
    5368:	ff ff       	.word	0xffff	; ????
    536a:	ff ff       	.word	0xffff	; ????
    536c:	ff ff       	.word	0xffff	; ????
    536e:	ff ff       	.word	0xffff	; ????
    5370:	ff ff       	.word	0xffff	; ????
    5372:	ff ff       	.word	0xffff	; ????
    5374:	ff ff       	.word	0xffff	; ????
    5376:	ff ff       	.word	0xffff	; ????
    5378:	ff ff       	.word	0xffff	; ????
    537a:	ff ff       	.word	0xffff	; ????
    537c:	ff ff       	.word	0xffff	; ????
    537e:	ff ff       	.word	0xffff	; ????
    5380:	ff ff       	.word	0xffff	; ????
    5382:	ff ff       	.word	0xffff	; ????
    5384:	ff ff       	.word	0xffff	; ????
    5386:	ff ff       	.word	0xffff	; ????
    5388:	ff ff       	.word	0xffff	; ????
    538a:	ff ff       	.word	0xffff	; ????
    538c:	ff ff       	.word	0xffff	; ????
    538e:	ff ff       	.word	0xffff	; ????
    5390:	ff ff       	.word	0xffff	; ????
    5392:	ff ff       	.word	0xffff	; ????
    5394:	ff ff       	.word	0xffff	; ????
    5396:	ff ff       	.word	0xffff	; ????
    5398:	ff ff       	.word	0xffff	; ????
    539a:	ff ff       	.word	0xffff	; ????
    539c:	ff ff       	.word	0xffff	; ????
    539e:	ff ff       	.word	0xffff	; ????
    53a0:	ff ff       	.word	0xffff	; ????
    53a2:	ff ff       	.word	0xffff	; ????
    53a4:	ff ff       	.word	0xffff	; ????
    53a6:	ff ff       	.word	0xffff	; ????
    53a8:	ff ff       	.word	0xffff	; ????
    53aa:	ff ff       	.word	0xffff	; ????
    53ac:	ff ff       	.word	0xffff	; ????
    53ae:	ff ff       	.word	0xffff	; ????
    53b0:	ff ff       	.word	0xffff	; ????
    53b2:	ff ff       	.word	0xffff	; ????
    53b4:	ff ff       	.word	0xffff	; ????
    53b6:	ff ff       	.word	0xffff	; ????
    53b8:	ff ff       	.word	0xffff	; ????
    53ba:	ff ff       	.word	0xffff	; ????
    53bc:	ff ff       	.word	0xffff	; ????
    53be:	ff ff       	.word	0xffff	; ????
    53c0:	ff ff       	.word	0xffff	; ????
    53c2:	ff ff       	.word	0xffff	; ????
    53c4:	ff ff       	.word	0xffff	; ????
    53c6:	ff ff       	.word	0xffff	; ????
    53c8:	ff ff       	.word	0xffff	; ????
    53ca:	ff ff       	.word	0xffff	; ????
    53cc:	ff ff       	.word	0xffff	; ????
    53ce:	ff ff       	.word	0xffff	; ????
    53d0:	ff ff       	.word	0xffff	; ????
    53d2:	ff ff       	.word	0xffff	; ????
    53d4:	ff ff       	.word	0xffff	; ????
    53d6:	ff ff       	.word	0xffff	; ????
    53d8:	ff ff       	.word	0xffff	; ????
    53da:	ff ff       	.word	0xffff	; ????
    53dc:	ff ff       	.word	0xffff	; ????
    53de:	ff ff       	.word	0xffff	; ????
    53e0:	ff ff       	.word	0xffff	; ????
    53e2:	ff ff       	.word	0xffff	; ????
    53e4:	ff ff       	.word	0xffff	; ????
    53e6:	ff ff       	.word	0xffff	; ????
    53e8:	ff ff       	.word	0xffff	; ????
    53ea:	ff ff       	.word	0xffff	; ????
    53ec:	ff ff       	.word	0xffff	; ????
    53ee:	ff ff       	.word	0xffff	; ????
    53f0:	ff ff       	.word	0xffff	; ????
    53f2:	ff ff       	.word	0xffff	; ????
    53f4:	ff ff       	.word	0xffff	; ????
    53f6:	ff ff       	.word	0xffff	; ????
    53f8:	ff ff       	.word	0xffff	; ????
    53fa:	ff ff       	.word	0xffff	; ????
    53fc:	ff ff       	.word	0xffff	; ????
    53fe:	ff ff       	.word	0xffff	; ????
    5400:	ff ff       	.word	0xffff	; ????
    5402:	ff ff       	.word	0xffff	; ????
    5404:	ff ff       	.word	0xffff	; ????
    5406:	ff ff       	.word	0xffff	; ????
    5408:	ff ff       	.word	0xffff	; ????
    540a:	ff ff       	.word	0xffff	; ????
    540c:	ff ff       	.word	0xffff	; ????
    540e:	ff ff       	.word	0xffff	; ????
    5410:	ff ff       	.word	0xffff	; ????
    5412:	ff ff       	.word	0xffff	; ????
    5414:	ff ff       	.word	0xffff	; ????
    5416:	ff ff       	.word	0xffff	; ????
    5418:	ff ff       	.word	0xffff	; ????
    541a:	ff ff       	.word	0xffff	; ????
    541c:	ff ff       	.word	0xffff	; ????
    541e:	ff ff       	.word	0xffff	; ????
    5420:	ff ff       	.word	0xffff	; ????
    5422:	ff ff       	.word	0xffff	; ????
    5424:	ff ff       	.word	0xffff	; ????
    5426:	ff ff       	.word	0xffff	; ????
    5428:	ff ff       	.word	0xffff	; ????
    542a:	ff ff       	.word	0xffff	; ????
    542c:	ff ff       	.word	0xffff	; ????
    542e:	ff ff       	.word	0xffff	; ????
    5430:	ff ff       	.word	0xffff	; ????
    5432:	ff ff       	.word	0xffff	; ????
    5434:	ff ff       	.word	0xffff	; ????
    5436:	ff ff       	.word	0xffff	; ????
    5438:	ff ff       	.word	0xffff	; ????
    543a:	ff ff       	.word	0xffff	; ????
    543c:	ff ff       	.word	0xffff	; ????
    543e:	ff ff       	.word	0xffff	; ????
    5440:	ff ff       	.word	0xffff	; ????
    5442:	ff ff       	.word	0xffff	; ????
    5444:	ff ff       	.word	0xffff	; ????
    5446:	ff ff       	.word	0xffff	; ????
    5448:	ff ff       	.word	0xffff	; ????
    544a:	ff ff       	.word	0xffff	; ????
    544c:	ff ff       	.word	0xffff	; ????
    544e:	ff ff       	.word	0xffff	; ????
    5450:	ff ff       	.word	0xffff	; ????
    5452:	ff ff       	.word	0xffff	; ????
    5454:	ff ff       	.word	0xffff	; ????
    5456:	ff ff       	.word	0xffff	; ????
    5458:	ff ff       	.word	0xffff	; ????
    545a:	ff ff       	.word	0xffff	; ????
    545c:	ff ff       	.word	0xffff	; ????
    545e:	ff ff       	.word	0xffff	; ????
    5460:	ff ff       	.word	0xffff	; ????
    5462:	ff ff       	.word	0xffff	; ????
    5464:	ff ff       	.word	0xffff	; ????
    5466:	ff ff       	.word	0xffff	; ????
    5468:	ff ff       	.word	0xffff	; ????
    546a:	ff ff       	.word	0xffff	; ????
    546c:	ff ff       	.word	0xffff	; ????
    546e:	ff ff       	.word	0xffff	; ????
    5470:	ff ff       	.word	0xffff	; ????
    5472:	ff ff       	.word	0xffff	; ????
    5474:	ff ff       	.word	0xffff	; ????
    5476:	ff ff       	.word	0xffff	; ????
    5478:	ff ff       	.word	0xffff	; ????
    547a:	ff ff       	.word	0xffff	; ????
    547c:	ff ff       	.word	0xffff	; ????
    547e:	ff ff       	.word	0xffff	; ????
    5480:	ff ff       	.word	0xffff	; ????
    5482:	ff ff       	.word	0xffff	; ????
    5484:	ff ff       	.word	0xffff	; ????
    5486:	ff ff       	.word	0xffff	; ????
    5488:	ff ff       	.word	0xffff	; ????
    548a:	ff ff       	.word	0xffff	; ????
    548c:	ff ff       	.word	0xffff	; ????
    548e:	ff ff       	.word	0xffff	; ????
    5490:	ff ff       	.word	0xffff	; ????
    5492:	ff ff       	.word	0xffff	; ????
    5494:	ff ff       	.word	0xffff	; ????
    5496:	ff ff       	.word	0xffff	; ????
    5498:	ff ff       	.word	0xffff	; ????
    549a:	ff ff       	.word	0xffff	; ????
    549c:	ff ff       	.word	0xffff	; ????
    549e:	ff ff       	.word	0xffff	; ????
    54a0:	ff ff       	.word	0xffff	; ????
    54a2:	ff ff       	.word	0xffff	; ????
    54a4:	ff ff       	.word	0xffff	; ????
    54a6:	ff ff       	.word	0xffff	; ????
    54a8:	ff ff       	.word	0xffff	; ????
    54aa:	ff ff       	.word	0xffff	; ????
    54ac:	ff ff       	.word	0xffff	; ????
    54ae:	ff ff       	.word	0xffff	; ????
    54b0:	ff ff       	.word	0xffff	; ????
    54b2:	ff ff       	.word	0xffff	; ????
    54b4:	ff ff       	.word	0xffff	; ????
    54b6:	ff ff       	.word	0xffff	; ????
    54b8:	ff ff       	.word	0xffff	; ????
    54ba:	ff ff       	.word	0xffff	; ????
    54bc:	ff ff       	.word	0xffff	; ????
    54be:	ff ff       	.word	0xffff	; ????
    54c0:	ff ff       	.word	0xffff	; ????
    54c2:	ff ff       	.word	0xffff	; ????
    54c4:	ff ff       	.word	0xffff	; ????
    54c6:	ff ff       	.word	0xffff	; ????
    54c8:	ff ff       	.word	0xffff	; ????
    54ca:	ff ff       	.word	0xffff	; ????
    54cc:	ff ff       	.word	0xffff	; ????
    54ce:	ff ff       	.word	0xffff	; ????
    54d0:	ff ff       	.word	0xffff	; ????
    54d2:	ff ff       	.word	0xffff	; ????
    54d4:	ff ff       	.word	0xffff	; ????
    54d6:	ff ff       	.word	0xffff	; ????
    54d8:	ff ff       	.word	0xffff	; ????
    54da:	ff ff       	.word	0xffff	; ????
    54dc:	ff ff       	.word	0xffff	; ????
    54de:	ff ff       	.word	0xffff	; ????
    54e0:	ff ff       	.word	0xffff	; ????
    54e2:	ff ff       	.word	0xffff	; ????
    54e4:	ff ff       	.word	0xffff	; ????
    54e6:	ff ff       	.word	0xffff	; ????
    54e8:	ff ff       	.word	0xffff	; ????
    54ea:	ff ff       	.word	0xffff	; ????
    54ec:	ff ff       	.word	0xffff	; ????
    54ee:	ff ff       	.word	0xffff	; ????
    54f0:	ff ff       	.word	0xffff	; ????
    54f2:	ff ff       	.word	0xffff	; ????
    54f4:	ff ff       	.word	0xffff	; ????
    54f6:	ff ff       	.word	0xffff	; ????
    54f8:	ff ff       	.word	0xffff	; ????
    54fa:	ff ff       	.word	0xffff	; ????
    54fc:	ff ff       	.word	0xffff	; ????
    54fe:	ff ff       	.word	0xffff	; ????
    5500:	ff ff       	.word	0xffff	; ????
    5502:	ff ff       	.word	0xffff	; ????
    5504:	ff ff       	.word	0xffff	; ????
    5506:	ff ff       	.word	0xffff	; ????
    5508:	ff ff       	.word	0xffff	; ????
    550a:	ff ff       	.word	0xffff	; ????
    550c:	ff ff       	.word	0xffff	; ????
    550e:	ff ff       	.word	0xffff	; ????
    5510:	ff ff       	.word	0xffff	; ????
    5512:	ff ff       	.word	0xffff	; ????
    5514:	ff ff       	.word	0xffff	; ????
    5516:	ff ff       	.word	0xffff	; ????
    5518:	ff ff       	.word	0xffff	; ????
    551a:	ff ff       	.word	0xffff	; ????
    551c:	ff ff       	.word	0xffff	; ????
    551e:	ff ff       	.word	0xffff	; ????
    5520:	ff ff       	.word	0xffff	; ????
    5522:	ff ff       	.word	0xffff	; ????
    5524:	ff ff       	.word	0xffff	; ????
    5526:	ff ff       	.word	0xffff	; ????
    5528:	ff ff       	.word	0xffff	; ????
    552a:	ff ff       	.word	0xffff	; ????
    552c:	ff ff       	.word	0xffff	; ????
    552e:	ff ff       	.word	0xffff	; ????
    5530:	ff ff       	.word	0xffff	; ????
    5532:	ff ff       	.word	0xffff	; ????
    5534:	ff ff       	.word	0xffff	; ????
    5536:	ff ff       	.word	0xffff	; ????
    5538:	ff ff       	.word	0xffff	; ????
    553a:	ff ff       	.word	0xffff	; ????
    553c:	ff ff       	.word	0xffff	; ????
    553e:	ff ff       	.word	0xffff	; ????
    5540:	ff ff       	.word	0xffff	; ????
    5542:	ff ff       	.word	0xffff	; ????
    5544:	ff ff       	.word	0xffff	; ????
    5546:	ff ff       	.word	0xffff	; ????
    5548:	ff ff       	.word	0xffff	; ????
    554a:	ff ff       	.word	0xffff	; ????
    554c:	ff ff       	.word	0xffff	; ????
    554e:	ff ff       	.word	0xffff	; ????
    5550:	ff ff       	.word	0xffff	; ????
    5552:	ff ff       	.word	0xffff	; ????
    5554:	ff ff       	.word	0xffff	; ????
    5556:	ff ff       	.word	0xffff	; ????
    5558:	ff ff       	.word	0xffff	; ????
    555a:	ff ff       	.word	0xffff	; ????
    555c:	ff ff       	.word	0xffff	; ????
    555e:	ff ff       	.word	0xffff	; ????
    5560:	ff ff       	.word	0xffff	; ????
    5562:	ff ff       	.word	0xffff	; ????
    5564:	ff ff       	.word	0xffff	; ????
    5566:	ff ff       	.word	0xffff	; ????
    5568:	ff ff       	.word	0xffff	; ????
    556a:	ff ff       	.word	0xffff	; ????
    556c:	ff ff       	.word	0xffff	; ????
    556e:	ff ff       	.word	0xffff	; ????
    5570:	ff ff       	.word	0xffff	; ????
    5572:	ff ff       	.word	0xffff	; ????
    5574:	ff ff       	.word	0xffff	; ????
    5576:	ff ff       	.word	0xffff	; ????
    5578:	ff ff       	.word	0xffff	; ????
    557a:	ff ff       	.word	0xffff	; ????
    557c:	ff ff       	.word	0xffff	; ????
    557e:	ff ff       	.word	0xffff	; ????
    5580:	ff ff       	.word	0xffff	; ????
    5582:	ff ff       	.word	0xffff	; ????
    5584:	ff ff       	.word	0xffff	; ????
    5586:	ff ff       	.word	0xffff	; ????
    5588:	ff ff       	.word	0xffff	; ????
    558a:	ff ff       	.word	0xffff	; ????
    558c:	ff ff       	.word	0xffff	; ????
    558e:	ff ff       	.word	0xffff	; ????
    5590:	ff ff       	.word	0xffff	; ????
    5592:	ff ff       	.word	0xffff	; ????
    5594:	ff ff       	.word	0xffff	; ????
    5596:	ff ff       	.word	0xffff	; ????
    5598:	ff ff       	.word	0xffff	; ????
    559a:	ff ff       	.word	0xffff	; ????
    559c:	ff ff       	.word	0xffff	; ????
    559e:	ff ff       	.word	0xffff	; ????
    55a0:	ff ff       	.word	0xffff	; ????
    55a2:	ff ff       	.word	0xffff	; ????
    55a4:	ff ff       	.word	0xffff	; ????
    55a6:	ff ff       	.word	0xffff	; ????
    55a8:	ff ff       	.word	0xffff	; ????
    55aa:	ff ff       	.word	0xffff	; ????
    55ac:	ff ff       	.word	0xffff	; ????
    55ae:	ff ff       	.word	0xffff	; ????
    55b0:	ff ff       	.word	0xffff	; ????
    55b2:	ff ff       	.word	0xffff	; ????
    55b4:	ff ff       	.word	0xffff	; ????
    55b6:	ff ff       	.word	0xffff	; ????
    55b8:	ff ff       	.word	0xffff	; ????
    55ba:	ff ff       	.word	0xffff	; ????
    55bc:	ff ff       	.word	0xffff	; ????
    55be:	ff ff       	.word	0xffff	; ????
    55c0:	ff ff       	.word	0xffff	; ????
    55c2:	ff ff       	.word	0xffff	; ????
    55c4:	ff ff       	.word	0xffff	; ????
    55c6:	ff ff       	.word	0xffff	; ????
    55c8:	ff ff       	.word	0xffff	; ????
    55ca:	ff ff       	.word	0xffff	; ????
    55cc:	ff ff       	.word	0xffff	; ????
    55ce:	ff ff       	.word	0xffff	; ????
    55d0:	ff ff       	.word	0xffff	; ????
    55d2:	ff ff       	.word	0xffff	; ????
    55d4:	ff ff       	.word	0xffff	; ????
    55d6:	ff ff       	.word	0xffff	; ????
    55d8:	ff ff       	.word	0xffff	; ????
    55da:	ff ff       	.word	0xffff	; ????
    55dc:	ff ff       	.word	0xffff	; ????
    55de:	ff ff       	.word	0xffff	; ????
    55e0:	ff ff       	.word	0xffff	; ????
    55e2:	ff ff       	.word	0xffff	; ????
    55e4:	ff ff       	.word	0xffff	; ????
    55e6:	ff ff       	.word	0xffff	; ????
    55e8:	ff ff       	.word	0xffff	; ????
    55ea:	ff ff       	.word	0xffff	; ????
    55ec:	ff ff       	.word	0xffff	; ????
    55ee:	ff ff       	.word	0xffff	; ????
    55f0:	ff ff       	.word	0xffff	; ????
    55f2:	ff ff       	.word	0xffff	; ????
    55f4:	ff ff       	.word	0xffff	; ????
    55f6:	ff ff       	.word	0xffff	; ????
    55f8:	ff ff       	.word	0xffff	; ????
    55fa:	ff ff       	.word	0xffff	; ????
    55fc:	ff ff       	.word	0xffff	; ????
    55fe:	ff ff       	.word	0xffff	; ????
    5600:	ff ff       	.word	0xffff	; ????
    5602:	ff ff       	.word	0xffff	; ????
    5604:	ff ff       	.word	0xffff	; ????
    5606:	ff ff       	.word	0xffff	; ????
    5608:	ff ff       	.word	0xffff	; ????
    560a:	ff ff       	.word	0xffff	; ????
    560c:	ff ff       	.word	0xffff	; ????
    560e:	ff ff       	.word	0xffff	; ????
    5610:	ff ff       	.word	0xffff	; ????
    5612:	ff ff       	.word	0xffff	; ????
    5614:	ff ff       	.word	0xffff	; ????
    5616:	ff ff       	.word	0xffff	; ????
    5618:	ff ff       	.word	0xffff	; ????
    561a:	ff ff       	.word	0xffff	; ????
    561c:	ff ff       	.word	0xffff	; ????
    561e:	ff ff       	.word	0xffff	; ????
    5620:	ff ff       	.word	0xffff	; ????
    5622:	ff ff       	.word	0xffff	; ????
    5624:	ff ff       	.word	0xffff	; ????
    5626:	ff ff       	.word	0xffff	; ????
    5628:	ff ff       	.word	0xffff	; ????
    562a:	ff ff       	.word	0xffff	; ????
    562c:	ff ff       	.word	0xffff	; ????
    562e:	ff ff       	.word	0xffff	; ????
    5630:	ff ff       	.word	0xffff	; ????
    5632:	ff ff       	.word	0xffff	; ????
    5634:	ff ff       	.word	0xffff	; ????
    5636:	ff ff       	.word	0xffff	; ????
    5638:	ff ff       	.word	0xffff	; ????
    563a:	ff ff       	.word	0xffff	; ????
    563c:	ff ff       	.word	0xffff	; ????
    563e:	ff ff       	.word	0xffff	; ????
    5640:	ff ff       	.word	0xffff	; ????
    5642:	ff ff       	.word	0xffff	; ????
    5644:	ff ff       	.word	0xffff	; ????
    5646:	ff ff       	.word	0xffff	; ????
    5648:	ff ff       	.word	0xffff	; ????
    564a:	ff ff       	.word	0xffff	; ????
    564c:	ff ff       	.word	0xffff	; ????
    564e:	ff ff       	.word	0xffff	; ????
    5650:	ff ff       	.word	0xffff	; ????
    5652:	ff ff       	.word	0xffff	; ????
    5654:	ff ff       	.word	0xffff	; ????
    5656:	ff ff       	.word	0xffff	; ????
    5658:	ff ff       	.word	0xffff	; ????
    565a:	ff ff       	.word	0xffff	; ????
    565c:	ff ff       	.word	0xffff	; ????
    565e:	ff ff       	.word	0xffff	; ????
    5660:	ff ff       	.word	0xffff	; ????
    5662:	ff ff       	.word	0xffff	; ????
    5664:	ff ff       	.word	0xffff	; ????
    5666:	ff ff       	.word	0xffff	; ????
    5668:	ff ff       	.word	0xffff	; ????
    566a:	ff ff       	.word	0xffff	; ????
    566c:	ff ff       	.word	0xffff	; ????
    566e:	ff ff       	.word	0xffff	; ????
    5670:	ff ff       	.word	0xffff	; ????
    5672:	ff ff       	.word	0xffff	; ????
    5674:	ff ff       	.word	0xffff	; ????
    5676:	ff ff       	.word	0xffff	; ????
    5678:	ff ff       	.word	0xffff	; ????
    567a:	ff ff       	.word	0xffff	; ????
    567c:	ff ff       	.word	0xffff	; ????
    567e:	ff ff       	.word	0xffff	; ????
    5680:	ff ff       	.word	0xffff	; ????
    5682:	ff ff       	.word	0xffff	; ????
    5684:	ff ff       	.word	0xffff	; ????
    5686:	ff ff       	.word	0xffff	; ????
    5688:	ff ff       	.word	0xffff	; ????
    568a:	ff ff       	.word	0xffff	; ????
    568c:	ff ff       	.word	0xffff	; ????
    568e:	ff ff       	.word	0xffff	; ????
    5690:	ff ff       	.word	0xffff	; ????
    5692:	ff ff       	.word	0xffff	; ????
    5694:	ff ff       	.word	0xffff	; ????
    5696:	ff ff       	.word	0xffff	; ????
    5698:	ff ff       	.word	0xffff	; ????
    569a:	ff ff       	.word	0xffff	; ????
    569c:	ff ff       	.word	0xffff	; ????
    569e:	ff ff       	.word	0xffff	; ????
    56a0:	ff ff       	.word	0xffff	; ????
    56a2:	ff ff       	.word	0xffff	; ????
    56a4:	ff ff       	.word	0xffff	; ????
    56a6:	ff ff       	.word	0xffff	; ????
    56a8:	ff ff       	.word	0xffff	; ????
    56aa:	ff ff       	.word	0xffff	; ????
    56ac:	ff ff       	.word	0xffff	; ????
    56ae:	ff ff       	.word	0xffff	; ????
    56b0:	ff ff       	.word	0xffff	; ????
    56b2:	ff ff       	.word	0xffff	; ????
    56b4:	ff ff       	.word	0xffff	; ????
    56b6:	ff ff       	.word	0xffff	; ????
    56b8:	ff ff       	.word	0xffff	; ????
    56ba:	ff ff       	.word	0xffff	; ????
    56bc:	ff ff       	.word	0xffff	; ????
    56be:	ff ff       	.word	0xffff	; ????
    56c0:	ff ff       	.word	0xffff	; ????
    56c2:	ff ff       	.word	0xffff	; ????
    56c4:	ff ff       	.word	0xffff	; ????
    56c6:	ff ff       	.word	0xffff	; ????
    56c8:	ff ff       	.word	0xffff	; ????
    56ca:	ff ff       	.word	0xffff	; ????
    56cc:	ff ff       	.word	0xffff	; ????
    56ce:	ff ff       	.word	0xffff	; ????
    56d0:	ff ff       	.word	0xffff	; ????
    56d2:	ff ff       	.word	0xffff	; ????
    56d4:	ff ff       	.word	0xffff	; ????
    56d6:	ff ff       	.word	0xffff	; ????
    56d8:	ff ff       	.word	0xffff	; ????
    56da:	ff ff       	.word	0xffff	; ????
    56dc:	ff ff       	.word	0xffff	; ????
    56de:	ff ff       	.word	0xffff	; ????
    56e0:	ff ff       	.word	0xffff	; ????
    56e2:	ff ff       	.word	0xffff	; ????
    56e4:	ff ff       	.word	0xffff	; ????
    56e6:	ff ff       	.word	0xffff	; ????
    56e8:	ff ff       	.word	0xffff	; ????
    56ea:	ff ff       	.word	0xffff	; ????
    56ec:	ff ff       	.word	0xffff	; ????
    56ee:	ff ff       	.word	0xffff	; ????
    56f0:	ff ff       	.word	0xffff	; ????
    56f2:	ff ff       	.word	0xffff	; ????
    56f4:	ff ff       	.word	0xffff	; ????
    56f6:	ff ff       	.word	0xffff	; ????
    56f8:	ff ff       	.word	0xffff	; ????
    56fa:	ff ff       	.word	0xffff	; ????
    56fc:	ff ff       	.word	0xffff	; ????
    56fe:	ff ff       	.word	0xffff	; ????
    5700:	ff ff       	.word	0xffff	; ????
    5702:	ff ff       	.word	0xffff	; ????
    5704:	ff ff       	.word	0xffff	; ????
    5706:	ff ff       	.word	0xffff	; ????
    5708:	ff ff       	.word	0xffff	; ????
    570a:	ff ff       	.word	0xffff	; ????
    570c:	ff ff       	.word	0xffff	; ????
    570e:	ff ff       	.word	0xffff	; ????
    5710:	ff ff       	.word	0xffff	; ????
    5712:	ff ff       	.word	0xffff	; ????
    5714:	ff ff       	.word	0xffff	; ????
    5716:	ff ff       	.word	0xffff	; ????
    5718:	ff ff       	.word	0xffff	; ????
    571a:	ff ff       	.word	0xffff	; ????
    571c:	ff ff       	.word	0xffff	; ????
    571e:	ff ff       	.word	0xffff	; ????
    5720:	ff ff       	.word	0xffff	; ????
    5722:	ff ff       	.word	0xffff	; ????
    5724:	ff ff       	.word	0xffff	; ????
    5726:	ff ff       	.word	0xffff	; ????
    5728:	ff ff       	.word	0xffff	; ????
    572a:	ff ff       	.word	0xffff	; ????
    572c:	ff ff       	.word	0xffff	; ????
    572e:	ff ff       	.word	0xffff	; ????
    5730:	ff ff       	.word	0xffff	; ????
    5732:	ff ff       	.word	0xffff	; ????
    5734:	ff ff       	.word	0xffff	; ????
    5736:	ff ff       	.word	0xffff	; ????
    5738:	ff ff       	.word	0xffff	; ????
    573a:	ff ff       	.word	0xffff	; ????
    573c:	ff ff       	.word	0xffff	; ????
    573e:	ff ff       	.word	0xffff	; ????
    5740:	ff ff       	.word	0xffff	; ????
    5742:	ff ff       	.word	0xffff	; ????
    5744:	ff ff       	.word	0xffff	; ????
    5746:	ff ff       	.word	0xffff	; ????
    5748:	ff ff       	.word	0xffff	; ????
    574a:	ff ff       	.word	0xffff	; ????
    574c:	ff ff       	.word	0xffff	; ????
    574e:	ff ff       	.word	0xffff	; ????
    5750:	ff ff       	.word	0xffff	; ????
    5752:	ff ff       	.word	0xffff	; ????
    5754:	ff ff       	.word	0xffff	; ????
    5756:	ff ff       	.word	0xffff	; ????
    5758:	ff ff       	.word	0xffff	; ????
    575a:	ff ff       	.word	0xffff	; ????
    575c:	ff ff       	.word	0xffff	; ????
    575e:	ff ff       	.word	0xffff	; ????
    5760:	ff ff       	.word	0xffff	; ????
    5762:	ff ff       	.word	0xffff	; ????
    5764:	ff ff       	.word	0xffff	; ????
    5766:	ff ff       	.word	0xffff	; ????
    5768:	ff ff       	.word	0xffff	; ????
    576a:	ff ff       	.word	0xffff	; ????
    576c:	ff ff       	.word	0xffff	; ????
    576e:	ff ff       	.word	0xffff	; ????
    5770:	ff ff       	.word	0xffff	; ????
    5772:	ff ff       	.word	0xffff	; ????
    5774:	ff ff       	.word	0xffff	; ????
    5776:	ff ff       	.word	0xffff	; ????
    5778:	ff ff       	.word	0xffff	; ????
    577a:	ff ff       	.word	0xffff	; ????
    577c:	ff ff       	.word	0xffff	; ????
    577e:	ff ff       	.word	0xffff	; ????
    5780:	ff ff       	.word	0xffff	; ????
    5782:	ff ff       	.word	0xffff	; ????
    5784:	ff ff       	.word	0xffff	; ????
    5786:	ff ff       	.word	0xffff	; ????
    5788:	ff ff       	.word	0xffff	; ????
    578a:	ff ff       	.word	0xffff	; ????
    578c:	ff ff       	.word	0xffff	; ????
    578e:	ff ff       	.word	0xffff	; ????
    5790:	ff ff       	.word	0xffff	; ????
    5792:	ff ff       	.word	0xffff	; ????
    5794:	ff ff       	.word	0xffff	; ????
    5796:	ff ff       	.word	0xffff	; ????
    5798:	ff ff       	.word	0xffff	; ????
    579a:	ff ff       	.word	0xffff	; ????
    579c:	ff ff       	.word	0xffff	; ????
    579e:	ff ff       	.word	0xffff	; ????
    57a0:	ff ff       	.word	0xffff	; ????
    57a2:	ff ff       	.word	0xffff	; ????
    57a4:	ff ff       	.word	0xffff	; ????
    57a6:	ff ff       	.word	0xffff	; ????
    57a8:	ff ff       	.word	0xffff	; ????
    57aa:	ff ff       	.word	0xffff	; ????
    57ac:	ff ff       	.word	0xffff	; ????
    57ae:	ff ff       	.word	0xffff	; ????
    57b0:	ff ff       	.word	0xffff	; ????
    57b2:	ff ff       	.word	0xffff	; ????
    57b4:	ff ff       	.word	0xffff	; ????
    57b6:	ff ff       	.word	0xffff	; ????
    57b8:	ff ff       	.word	0xffff	; ????
    57ba:	ff ff       	.word	0xffff	; ????
    57bc:	ff ff       	.word	0xffff	; ????
    57be:	ff ff       	.word	0xffff	; ????
    57c0:	ff ff       	.word	0xffff	; ????
    57c2:	ff ff       	.word	0xffff	; ????
    57c4:	ff ff       	.word	0xffff	; ????
    57c6:	ff ff       	.word	0xffff	; ????
    57c8:	ff ff       	.word	0xffff	; ????
    57ca:	ff ff       	.word	0xffff	; ????
    57cc:	ff ff       	.word	0xffff	; ????
    57ce:	ff ff       	.word	0xffff	; ????
    57d0:	ff ff       	.word	0xffff	; ????
    57d2:	ff ff       	.word	0xffff	; ????
    57d4:	ff ff       	.word	0xffff	; ????
    57d6:	ff ff       	.word	0xffff	; ????
    57d8:	ff ff       	.word	0xffff	; ????
    57da:	ff ff       	.word	0xffff	; ????
    57dc:	ff ff       	.word	0xffff	; ????
    57de:	ff ff       	.word	0xffff	; ????
    57e0:	ff ff       	.word	0xffff	; ????
    57e2:	ff ff       	.word	0xffff	; ????
    57e4:	ff ff       	.word	0xffff	; ????
    57e6:	ff ff       	.word	0xffff	; ????
    57e8:	ff ff       	.word	0xffff	; ????
    57ea:	ff ff       	.word	0xffff	; ????
    57ec:	ff ff       	.word	0xffff	; ????
    57ee:	ff ff       	.word	0xffff	; ????
    57f0:	ff ff       	.word	0xffff	; ????
    57f2:	ff ff       	.word	0xffff	; ????
    57f4:	ff ff       	.word	0xffff	; ????
    57f6:	ff ff       	.word	0xffff	; ????
    57f8:	ff ff       	.word	0xffff	; ????
    57fa:	ff ff       	.word	0xffff	; ????
    57fc:	ff ff       	.word	0xffff	; ????
    57fe:	ff ff       	.word	0xffff	; ????
    5800:	ff ff       	.word	0xffff	; ????
    5802:	ff ff       	.word	0xffff	; ????
    5804:	ff ff       	.word	0xffff	; ????
    5806:	ff ff       	.word	0xffff	; ????
    5808:	ff ff       	.word	0xffff	; ????
    580a:	ff ff       	.word	0xffff	; ????
    580c:	ff ff       	.word	0xffff	; ????
    580e:	ff ff       	.word	0xffff	; ????
    5810:	ff ff       	.word	0xffff	; ????
    5812:	ff ff       	.word	0xffff	; ????
    5814:	ff ff       	.word	0xffff	; ????
    5816:	ff ff       	.word	0xffff	; ????
    5818:	ff ff       	.word	0xffff	; ????
    581a:	ff ff       	.word	0xffff	; ????
    581c:	ff ff       	.word	0xffff	; ????
    581e:	ff ff       	.word	0xffff	; ????
    5820:	ff ff       	.word	0xffff	; ????
    5822:	ff ff       	.word	0xffff	; ????
    5824:	ff ff       	.word	0xffff	; ????
    5826:	ff ff       	.word	0xffff	; ????
    5828:	ff ff       	.word	0xffff	; ????
    582a:	ff ff       	.word	0xffff	; ????
    582c:	ff ff       	.word	0xffff	; ????
    582e:	ff ff       	.word	0xffff	; ????
    5830:	ff ff       	.word	0xffff	; ????
    5832:	ff ff       	.word	0xffff	; ????
    5834:	ff ff       	.word	0xffff	; ????
    5836:	ff ff       	.word	0xffff	; ????
    5838:	ff ff       	.word	0xffff	; ????
    583a:	ff ff       	.word	0xffff	; ????
    583c:	ff ff       	.word	0xffff	; ????
    583e:	ff ff       	.word	0xffff	; ????
    5840:	ff ff       	.word	0xffff	; ????
    5842:	ff ff       	.word	0xffff	; ????
    5844:	ff ff       	.word	0xffff	; ????
    5846:	ff ff       	.word	0xffff	; ????
    5848:	ff ff       	.word	0xffff	; ????
    584a:	ff ff       	.word	0xffff	; ????
    584c:	ff ff       	.word	0xffff	; ????
    584e:	ff ff       	.word	0xffff	; ????
    5850:	ff ff       	.word	0xffff	; ????
    5852:	ff ff       	.word	0xffff	; ????
    5854:	ff ff       	.word	0xffff	; ????
    5856:	ff ff       	.word	0xffff	; ????
    5858:	ff ff       	.word	0xffff	; ????
    585a:	ff ff       	.word	0xffff	; ????
    585c:	ff ff       	.word	0xffff	; ????
    585e:	ff ff       	.word	0xffff	; ????
    5860:	ff ff       	.word	0xffff	; ????
    5862:	ff ff       	.word	0xffff	; ????
    5864:	ff ff       	.word	0xffff	; ????
    5866:	ff ff       	.word	0xffff	; ????
    5868:	ff ff       	.word	0xffff	; ????
    586a:	ff ff       	.word	0xffff	; ????
    586c:	ff ff       	.word	0xffff	; ????
    586e:	ff ff       	.word	0xffff	; ????
    5870:	ff ff       	.word	0xffff	; ????
    5872:	ff ff       	.word	0xffff	; ????
    5874:	ff ff       	.word	0xffff	; ????
    5876:	ff ff       	.word	0xffff	; ????
    5878:	ff ff       	.word	0xffff	; ????
    587a:	ff ff       	.word	0xffff	; ????
    587c:	ff ff       	.word	0xffff	; ????
    587e:	ff ff       	.word	0xffff	; ????
    5880:	ff ff       	.word	0xffff	; ????
    5882:	ff ff       	.word	0xffff	; ????
    5884:	ff ff       	.word	0xffff	; ????
    5886:	ff ff       	.word	0xffff	; ????
    5888:	ff ff       	.word	0xffff	; ????
    588a:	ff ff       	.word	0xffff	; ????
    588c:	ff ff       	.word	0xffff	; ????
    588e:	ff ff       	.word	0xffff	; ????
    5890:	ff ff       	.word	0xffff	; ????
    5892:	ff ff       	.word	0xffff	; ????
    5894:	ff ff       	.word	0xffff	; ????
    5896:	ff ff       	.word	0xffff	; ????
    5898:	ff ff       	.word	0xffff	; ????
    589a:	ff ff       	.word	0xffff	; ????
    589c:	ff ff       	.word	0xffff	; ????
    589e:	ff ff       	.word	0xffff	; ????
    58a0:	ff ff       	.word	0xffff	; ????
    58a2:	ff ff       	.word	0xffff	; ????
    58a4:	ff ff       	.word	0xffff	; ????
    58a6:	ff ff       	.word	0xffff	; ????
    58a8:	ff ff       	.word	0xffff	; ????
    58aa:	ff ff       	.word	0xffff	; ????
    58ac:	ff ff       	.word	0xffff	; ????
    58ae:	ff ff       	.word	0xffff	; ????
    58b0:	ff ff       	.word	0xffff	; ????
    58b2:	ff ff       	.word	0xffff	; ????
    58b4:	ff ff       	.word	0xffff	; ????
    58b6:	ff ff       	.word	0xffff	; ????
    58b8:	ff ff       	.word	0xffff	; ????
    58ba:	ff ff       	.word	0xffff	; ????
    58bc:	ff ff       	.word	0xffff	; ????
    58be:	ff ff       	.word	0xffff	; ????
    58c0:	ff ff       	.word	0xffff	; ????
    58c2:	ff ff       	.word	0xffff	; ????
    58c4:	ff ff       	.word	0xffff	; ????
    58c6:	ff ff       	.word	0xffff	; ????
    58c8:	ff ff       	.word	0xffff	; ????
    58ca:	ff ff       	.word	0xffff	; ????
    58cc:	ff ff       	.word	0xffff	; ????
    58ce:	ff ff       	.word	0xffff	; ????
    58d0:	ff ff       	.word	0xffff	; ????
    58d2:	ff ff       	.word	0xffff	; ????
    58d4:	ff ff       	.word	0xffff	; ????
    58d6:	ff ff       	.word	0xffff	; ????
    58d8:	ff ff       	.word	0xffff	; ????
    58da:	ff ff       	.word	0xffff	; ????
    58dc:	ff ff       	.word	0xffff	; ????
    58de:	ff ff       	.word	0xffff	; ????
    58e0:	ff ff       	.word	0xffff	; ????
    58e2:	ff ff       	.word	0xffff	; ????
    58e4:	ff ff       	.word	0xffff	; ????
    58e6:	ff ff       	.word	0xffff	; ????
    58e8:	ff ff       	.word	0xffff	; ????
    58ea:	ff ff       	.word	0xffff	; ????
    58ec:	ff ff       	.word	0xffff	; ????
    58ee:	ff ff       	.word	0xffff	; ????
    58f0:	ff ff       	.word	0xffff	; ????
    58f2:	ff ff       	.word	0xffff	; ????
    58f4:	ff ff       	.word	0xffff	; ????
    58f6:	ff ff       	.word	0xffff	; ????
    58f8:	ff ff       	.word	0xffff	; ????
    58fa:	ff ff       	.word	0xffff	; ????
    58fc:	ff ff       	.word	0xffff	; ????
    58fe:	ff ff       	.word	0xffff	; ????
    5900:	ff ff       	.word	0xffff	; ????
    5902:	ff ff       	.word	0xffff	; ????
    5904:	ff ff       	.word	0xffff	; ????
    5906:	ff ff       	.word	0xffff	; ????
    5908:	ff ff       	.word	0xffff	; ????
    590a:	ff ff       	.word	0xffff	; ????
    590c:	ff ff       	.word	0xffff	; ????
    590e:	ff ff       	.word	0xffff	; ????
    5910:	ff ff       	.word	0xffff	; ????
    5912:	ff ff       	.word	0xffff	; ????
    5914:	ff ff       	.word	0xffff	; ????
    5916:	ff ff       	.word	0xffff	; ????
    5918:	ff ff       	.word	0xffff	; ????
    591a:	ff ff       	.word	0xffff	; ????
    591c:	ff ff       	.word	0xffff	; ????
    591e:	ff ff       	.word	0xffff	; ????
    5920:	ff ff       	.word	0xffff	; ????
    5922:	ff ff       	.word	0xffff	; ????
    5924:	ff ff       	.word	0xffff	; ????
    5926:	ff ff       	.word	0xffff	; ????
    5928:	ff ff       	.word	0xffff	; ????
    592a:	ff ff       	.word	0xffff	; ????
    592c:	ff ff       	.word	0xffff	; ????
    592e:	ff ff       	.word	0xffff	; ????
    5930:	ff ff       	.word	0xffff	; ????
    5932:	ff ff       	.word	0xffff	; ????
    5934:	ff ff       	.word	0xffff	; ????
    5936:	ff ff       	.word	0xffff	; ????
    5938:	ff ff       	.word	0xffff	; ????
    593a:	ff ff       	.word	0xffff	; ????
    593c:	ff ff       	.word	0xffff	; ????
    593e:	ff ff       	.word	0xffff	; ????
    5940:	ff ff       	.word	0xffff	; ????
    5942:	ff ff       	.word	0xffff	; ????
    5944:	ff ff       	.word	0xffff	; ????
    5946:	ff ff       	.word	0xffff	; ????
    5948:	ff ff       	.word	0xffff	; ????
    594a:	ff ff       	.word	0xffff	; ????
    594c:	ff ff       	.word	0xffff	; ????
    594e:	ff ff       	.word	0xffff	; ????
    5950:	ff ff       	.word	0xffff	; ????
    5952:	ff ff       	.word	0xffff	; ????
    5954:	ff ff       	.word	0xffff	; ????
    5956:	ff ff       	.word	0xffff	; ????
    5958:	ff ff       	.word	0xffff	; ????
    595a:	ff ff       	.word	0xffff	; ????
    595c:	ff ff       	.word	0xffff	; ????
    595e:	ff ff       	.word	0xffff	; ????
    5960:	ff ff       	.word	0xffff	; ????
    5962:	ff ff       	.word	0xffff	; ????
    5964:	ff ff       	.word	0xffff	; ????
    5966:	ff ff       	.word	0xffff	; ????
    5968:	ff ff       	.word	0xffff	; ????
    596a:	ff ff       	.word	0xffff	; ????
    596c:	ff ff       	.word	0xffff	; ????
    596e:	ff ff       	.word	0xffff	; ????
    5970:	ff ff       	.word	0xffff	; ????
    5972:	ff ff       	.word	0xffff	; ????
    5974:	ff ff       	.word	0xffff	; ????
    5976:	ff ff       	.word	0xffff	; ????
    5978:	ff ff       	.word	0xffff	; ????
    597a:	ff ff       	.word	0xffff	; ????
    597c:	ff ff       	.word	0xffff	; ????
    597e:	ff ff       	.word	0xffff	; ????
    5980:	ff ff       	.word	0xffff	; ????
    5982:	ff ff       	.word	0xffff	; ????
    5984:	ff ff       	.word	0xffff	; ????
    5986:	ff ff       	.word	0xffff	; ????
    5988:	ff ff       	.word	0xffff	; ????
    598a:	ff ff       	.word	0xffff	; ????
    598c:	ff ff       	.word	0xffff	; ????
    598e:	ff ff       	.word	0xffff	; ????
    5990:	ff ff       	.word	0xffff	; ????
    5992:	ff ff       	.word	0xffff	; ????
    5994:	ff ff       	.word	0xffff	; ????
    5996:	ff ff       	.word	0xffff	; ????
    5998:	ff ff       	.word	0xffff	; ????
    599a:	ff ff       	.word	0xffff	; ????
    599c:	ff ff       	.word	0xffff	; ????
    599e:	ff ff       	.word	0xffff	; ????
    59a0:	ff ff       	.word	0xffff	; ????
    59a2:	ff ff       	.word	0xffff	; ????
    59a4:	ff ff       	.word	0xffff	; ????
    59a6:	ff ff       	.word	0xffff	; ????
    59a8:	ff ff       	.word	0xffff	; ????
    59aa:	ff ff       	.word	0xffff	; ????
    59ac:	ff ff       	.word	0xffff	; ????
    59ae:	ff ff       	.word	0xffff	; ????
    59b0:	ff ff       	.word	0xffff	; ????
    59b2:	ff ff       	.word	0xffff	; ????
    59b4:	ff ff       	.word	0xffff	; ????
    59b6:	ff ff       	.word	0xffff	; ????
    59b8:	ff ff       	.word	0xffff	; ????
    59ba:	ff ff       	.word	0xffff	; ????
    59bc:	ff ff       	.word	0xffff	; ????
    59be:	ff ff       	.word	0xffff	; ????
    59c0:	ff ff       	.word	0xffff	; ????
    59c2:	ff ff       	.word	0xffff	; ????
    59c4:	ff ff       	.word	0xffff	; ????
    59c6:	ff ff       	.word	0xffff	; ????
    59c8:	ff ff       	.word	0xffff	; ????
    59ca:	ff ff       	.word	0xffff	; ????
    59cc:	ff ff       	.word	0xffff	; ????
    59ce:	ff ff       	.word	0xffff	; ????
    59d0:	ff ff       	.word	0xffff	; ????
    59d2:	ff ff       	.word	0xffff	; ????
    59d4:	ff ff       	.word	0xffff	; ????
    59d6:	ff ff       	.word	0xffff	; ????
    59d8:	ff ff       	.word	0xffff	; ????
    59da:	ff ff       	.word	0xffff	; ????
    59dc:	ff ff       	.word	0xffff	; ????
    59de:	ff ff       	.word	0xffff	; ????
    59e0:	ff ff       	.word	0xffff	; ????
    59e2:	ff ff       	.word	0xffff	; ????
    59e4:	ff ff       	.word	0xffff	; ????
    59e6:	ff ff       	.word	0xffff	; ????
    59e8:	ff ff       	.word	0xffff	; ????
    59ea:	ff ff       	.word	0xffff	; ????
    59ec:	ff ff       	.word	0xffff	; ????
    59ee:	ff ff       	.word	0xffff	; ????
    59f0:	ff ff       	.word	0xffff	; ????
    59f2:	ff ff       	.word	0xffff	; ????
    59f4:	ff ff       	.word	0xffff	; ????
    59f6:	ff ff       	.word	0xffff	; ????
    59f8:	ff ff       	.word	0xffff	; ????
    59fa:	ff ff       	.word	0xffff	; ????
    59fc:	ff ff       	.word	0xffff	; ????
    59fe:	ff ff       	.word	0xffff	; ????
    5a00:	ff ff       	.word	0xffff	; ????
    5a02:	ff ff       	.word	0xffff	; ????
    5a04:	ff ff       	.word	0xffff	; ????
    5a06:	ff ff       	.word	0xffff	; ????
    5a08:	ff ff       	.word	0xffff	; ????
    5a0a:	ff ff       	.word	0xffff	; ????
    5a0c:	ff ff       	.word	0xffff	; ????
    5a0e:	ff ff       	.word	0xffff	; ????
    5a10:	ff ff       	.word	0xffff	; ????
    5a12:	ff ff       	.word	0xffff	; ????
    5a14:	ff ff       	.word	0xffff	; ????
    5a16:	ff ff       	.word	0xffff	; ????
    5a18:	ff ff       	.word	0xffff	; ????
    5a1a:	ff ff       	.word	0xffff	; ????
    5a1c:	ff ff       	.word	0xffff	; ????
    5a1e:	ff ff       	.word	0xffff	; ????
    5a20:	ff ff       	.word	0xffff	; ????
    5a22:	ff ff       	.word	0xffff	; ????
    5a24:	ff ff       	.word	0xffff	; ????
    5a26:	ff ff       	.word	0xffff	; ????
    5a28:	ff ff       	.word	0xffff	; ????
    5a2a:	ff ff       	.word	0xffff	; ????
    5a2c:	ff ff       	.word	0xffff	; ????
    5a2e:	ff ff       	.word	0xffff	; ????
    5a30:	ff ff       	.word	0xffff	; ????
    5a32:	ff ff       	.word	0xffff	; ????
    5a34:	ff ff       	.word	0xffff	; ????
    5a36:	ff ff       	.word	0xffff	; ????
    5a38:	ff ff       	.word	0xffff	; ????
    5a3a:	ff ff       	.word	0xffff	; ????
    5a3c:	ff ff       	.word	0xffff	; ????
    5a3e:	ff ff       	.word	0xffff	; ????
    5a40:	ff ff       	.word	0xffff	; ????
    5a42:	ff ff       	.word	0xffff	; ????
    5a44:	ff ff       	.word	0xffff	; ????
    5a46:	ff ff       	.word	0xffff	; ????
    5a48:	ff ff       	.word	0xffff	; ????
    5a4a:	ff ff       	.word	0xffff	; ????
    5a4c:	ff ff       	.word	0xffff	; ????
    5a4e:	ff ff       	.word	0xffff	; ????
    5a50:	ff ff       	.word	0xffff	; ????
    5a52:	ff ff       	.word	0xffff	; ????
    5a54:	ff ff       	.word	0xffff	; ????
    5a56:	ff ff       	.word	0xffff	; ????
    5a58:	ff ff       	.word	0xffff	; ????
    5a5a:	ff ff       	.word	0xffff	; ????
    5a5c:	ff ff       	.word	0xffff	; ????
    5a5e:	ff ff       	.word	0xffff	; ????
    5a60:	ff ff       	.word	0xffff	; ????
    5a62:	ff ff       	.word	0xffff	; ????
    5a64:	ff ff       	.word	0xffff	; ????
    5a66:	ff ff       	.word	0xffff	; ????
    5a68:	ff ff       	.word	0xffff	; ????
    5a6a:	ff ff       	.word	0xffff	; ????
    5a6c:	ff ff       	.word	0xffff	; ????
    5a6e:	ff ff       	.word	0xffff	; ????
    5a70:	ff ff       	.word	0xffff	; ????
    5a72:	ff ff       	.word	0xffff	; ????
    5a74:	ff ff       	.word	0xffff	; ????
    5a76:	ff ff       	.word	0xffff	; ????
    5a78:	ff ff       	.word	0xffff	; ????
    5a7a:	ff ff       	.word	0xffff	; ????
    5a7c:	ff ff       	.word	0xffff	; ????
    5a7e:	ff ff       	.word	0xffff	; ????
    5a80:	ff ff       	.word	0xffff	; ????
    5a82:	ff ff       	.word	0xffff	; ????
    5a84:	ff ff       	.word	0xffff	; ????
    5a86:	ff ff       	.word	0xffff	; ????
    5a88:	ff ff       	.word	0xffff	; ????
    5a8a:	ff ff       	.word	0xffff	; ????
    5a8c:	ff ff       	.word	0xffff	; ????
    5a8e:	ff ff       	.word	0xffff	; ????
    5a90:	ff ff       	.word	0xffff	; ????
    5a92:	ff ff       	.word	0xffff	; ????
    5a94:	ff ff       	.word	0xffff	; ????
    5a96:	ff ff       	.word	0xffff	; ????
    5a98:	ff ff       	.word	0xffff	; ????
    5a9a:	ff ff       	.word	0xffff	; ????
    5a9c:	ff ff       	.word	0xffff	; ????
    5a9e:	ff ff       	.word	0xffff	; ????
    5aa0:	ff ff       	.word	0xffff	; ????
    5aa2:	ff ff       	.word	0xffff	; ????
    5aa4:	ff ff       	.word	0xffff	; ????
    5aa6:	ff ff       	.word	0xffff	; ????
    5aa8:	ff ff       	.word	0xffff	; ????
    5aaa:	ff ff       	.word	0xffff	; ????
    5aac:	ff ff       	.word	0xffff	; ????
    5aae:	ff ff       	.word	0xffff	; ????
    5ab0:	ff ff       	.word	0xffff	; ????
    5ab2:	ff ff       	.word	0xffff	; ????
    5ab4:	ff ff       	.word	0xffff	; ????
    5ab6:	ff ff       	.word	0xffff	; ????
    5ab8:	ff ff       	.word	0xffff	; ????
    5aba:	ff ff       	.word	0xffff	; ????
    5abc:	ff ff       	.word	0xffff	; ????
    5abe:	ff ff       	.word	0xffff	; ????
    5ac0:	ff ff       	.word	0xffff	; ????
    5ac2:	ff ff       	.word	0xffff	; ????
    5ac4:	ff ff       	.word	0xffff	; ????
    5ac6:	ff ff       	.word	0xffff	; ????
    5ac8:	ff ff       	.word	0xffff	; ????
    5aca:	ff ff       	.word	0xffff	; ????
    5acc:	ff ff       	.word	0xffff	; ????
    5ace:	ff ff       	.word	0xffff	; ????
    5ad0:	ff ff       	.word	0xffff	; ????
    5ad2:	ff ff       	.word	0xffff	; ????
    5ad4:	ff ff       	.word	0xffff	; ????
    5ad6:	ff ff       	.word	0xffff	; ????
    5ad8:	ff ff       	.word	0xffff	; ????
    5ada:	ff ff       	.word	0xffff	; ????
    5adc:	ff ff       	.word	0xffff	; ????
    5ade:	ff ff       	.word	0xffff	; ????
    5ae0:	ff ff       	.word	0xffff	; ????
    5ae2:	ff ff       	.word	0xffff	; ????
    5ae4:	ff ff       	.word	0xffff	; ????
    5ae6:	ff ff       	.word	0xffff	; ????
    5ae8:	ff ff       	.word	0xffff	; ????
    5aea:	ff ff       	.word	0xffff	; ????
    5aec:	ff ff       	.word	0xffff	; ????
    5aee:	ff ff       	.word	0xffff	; ????
    5af0:	ff ff       	.word	0xffff	; ????
    5af2:	ff ff       	.word	0xffff	; ????
    5af4:	ff ff       	.word	0xffff	; ????
    5af6:	ff ff       	.word	0xffff	; ????
    5af8:	ff ff       	.word	0xffff	; ????
    5afa:	ff ff       	.word	0xffff	; ????
    5afc:	ff ff       	.word	0xffff	; ????
    5afe:	ff ff       	.word	0xffff	; ????
    5b00:	ff ff       	.word	0xffff	; ????
    5b02:	ff ff       	.word	0xffff	; ????
    5b04:	ff ff       	.word	0xffff	; ????
    5b06:	ff ff       	.word	0xffff	; ????
    5b08:	ff ff       	.word	0xffff	; ????
    5b0a:	ff ff       	.word	0xffff	; ????
    5b0c:	ff ff       	.word	0xffff	; ????
    5b0e:	ff ff       	.word	0xffff	; ????
    5b10:	ff ff       	.word	0xffff	; ????
    5b12:	ff ff       	.word	0xffff	; ????
    5b14:	ff ff       	.word	0xffff	; ????
    5b16:	ff ff       	.word	0xffff	; ????
    5b18:	ff ff       	.word	0xffff	; ????
    5b1a:	ff ff       	.word	0xffff	; ????
    5b1c:	ff ff       	.word	0xffff	; ????
    5b1e:	ff ff       	.word	0xffff	; ????
    5b20:	ff ff       	.word	0xffff	; ????
    5b22:	ff ff       	.word	0xffff	; ????
    5b24:	ff ff       	.word	0xffff	; ????
    5b26:	ff ff       	.word	0xffff	; ????
    5b28:	ff ff       	.word	0xffff	; ????
    5b2a:	ff ff       	.word	0xffff	; ????
    5b2c:	ff ff       	.word	0xffff	; ????
    5b2e:	ff ff       	.word	0xffff	; ????
    5b30:	ff ff       	.word	0xffff	; ????
    5b32:	ff ff       	.word	0xffff	; ????
    5b34:	ff ff       	.word	0xffff	; ????
    5b36:	ff ff       	.word	0xffff	; ????
    5b38:	ff ff       	.word	0xffff	; ????
    5b3a:	ff ff       	.word	0xffff	; ????
    5b3c:	ff ff       	.word	0xffff	; ????
    5b3e:	ff ff       	.word	0xffff	; ????
    5b40:	ff ff       	.word	0xffff	; ????
    5b42:	ff ff       	.word	0xffff	; ????
    5b44:	ff ff       	.word	0xffff	; ????
    5b46:	ff ff       	.word	0xffff	; ????
    5b48:	ff ff       	.word	0xffff	; ????
    5b4a:	ff ff       	.word	0xffff	; ????
    5b4c:	ff ff       	.word	0xffff	; ????
    5b4e:	ff ff       	.word	0xffff	; ????
    5b50:	ff ff       	.word	0xffff	; ????
    5b52:	ff ff       	.word	0xffff	; ????
    5b54:	ff ff       	.word	0xffff	; ????
    5b56:	ff ff       	.word	0xffff	; ????
    5b58:	ff ff       	.word	0xffff	; ????
    5b5a:	ff ff       	.word	0xffff	; ????
    5b5c:	ff ff       	.word	0xffff	; ????
    5b5e:	ff ff       	.word	0xffff	; ????
    5b60:	ff ff       	.word	0xffff	; ????
    5b62:	ff ff       	.word	0xffff	; ????
    5b64:	ff ff       	.word	0xffff	; ????
    5b66:	ff ff       	.word	0xffff	; ????
    5b68:	ff ff       	.word	0xffff	; ????
    5b6a:	ff ff       	.word	0xffff	; ????
    5b6c:	ff ff       	.word	0xffff	; ????
    5b6e:	ff ff       	.word	0xffff	; ????
    5b70:	ff ff       	.word	0xffff	; ????
    5b72:	ff ff       	.word	0xffff	; ????
    5b74:	ff ff       	.word	0xffff	; ????
    5b76:	ff ff       	.word	0xffff	; ????
    5b78:	ff ff       	.word	0xffff	; ????
    5b7a:	ff ff       	.word	0xffff	; ????
    5b7c:	ff ff       	.word	0xffff	; ????
    5b7e:	ff ff       	.word	0xffff	; ????
    5b80:	ff ff       	.word	0xffff	; ????
    5b82:	ff ff       	.word	0xffff	; ????
    5b84:	ff ff       	.word	0xffff	; ????
    5b86:	ff ff       	.word	0xffff	; ????
    5b88:	ff ff       	.word	0xffff	; ????
    5b8a:	ff ff       	.word	0xffff	; ????
    5b8c:	ff ff       	.word	0xffff	; ????
    5b8e:	ff ff       	.word	0xffff	; ????
    5b90:	ff ff       	.word	0xffff	; ????
    5b92:	ff ff       	.word	0xffff	; ????
    5b94:	ff ff       	.word	0xffff	; ????
    5b96:	ff ff       	.word	0xffff	; ????
    5b98:	ff ff       	.word	0xffff	; ????
    5b9a:	ff ff       	.word	0xffff	; ????
    5b9c:	ff ff       	.word	0xffff	; ????
    5b9e:	ff ff       	.word	0xffff	; ????
    5ba0:	ff ff       	.word	0xffff	; ????
    5ba2:	ff ff       	.word	0xffff	; ????
    5ba4:	ff ff       	.word	0xffff	; ????
    5ba6:	ff ff       	.word	0xffff	; ????
    5ba8:	ff ff       	.word	0xffff	; ????
    5baa:	ff ff       	.word	0xffff	; ????
    5bac:	ff ff       	.word	0xffff	; ????
    5bae:	ff ff       	.word	0xffff	; ????
    5bb0:	ff ff       	.word	0xffff	; ????
    5bb2:	ff ff       	.word	0xffff	; ????
    5bb4:	ff ff       	.word	0xffff	; ????
    5bb6:	ff ff       	.word	0xffff	; ????
    5bb8:	ff ff       	.word	0xffff	; ????
    5bba:	ff ff       	.word	0xffff	; ????
    5bbc:	ff ff       	.word	0xffff	; ????
    5bbe:	ff ff       	.word	0xffff	; ????
    5bc0:	ff ff       	.word	0xffff	; ????
    5bc2:	ff ff       	.word	0xffff	; ????
    5bc4:	ff ff       	.word	0xffff	; ????
    5bc6:	ff ff       	.word	0xffff	; ????
    5bc8:	ff ff       	.word	0xffff	; ????
    5bca:	ff ff       	.word	0xffff	; ????
    5bcc:	ff ff       	.word	0xffff	; ????
    5bce:	ff ff       	.word	0xffff	; ????
    5bd0:	ff ff       	.word	0xffff	; ????
    5bd2:	ff ff       	.word	0xffff	; ????
    5bd4:	ff ff       	.word	0xffff	; ????
    5bd6:	ff ff       	.word	0xffff	; ????
    5bd8:	ff ff       	.word	0xffff	; ????
    5bda:	ff ff       	.word	0xffff	; ????
    5bdc:	ff ff       	.word	0xffff	; ????
    5bde:	ff ff       	.word	0xffff	; ????
    5be0:	ff ff       	.word	0xffff	; ????
    5be2:	ff ff       	.word	0xffff	; ????
    5be4:	ff ff       	.word	0xffff	; ????
    5be6:	ff ff       	.word	0xffff	; ????
    5be8:	ff ff       	.word	0xffff	; ????
    5bea:	ff ff       	.word	0xffff	; ????
    5bec:	ff ff       	.word	0xffff	; ????
    5bee:	ff ff       	.word	0xffff	; ????
    5bf0:	ff ff       	.word	0xffff	; ????
    5bf2:	ff ff       	.word	0xffff	; ????
    5bf4:	ff ff       	.word	0xffff	; ????
    5bf6:	ff ff       	.word	0xffff	; ????
    5bf8:	ff ff       	.word	0xffff	; ????
    5bfa:	ff ff       	.word	0xffff	; ????
    5bfc:	ff ff       	.word	0xffff	; ????
    5bfe:	ff ff       	.word	0xffff	; ????
    5c00:	ff ff       	.word	0xffff	; ????
    5c02:	ff ff       	.word	0xffff	; ????
    5c04:	ff ff       	.word	0xffff	; ????
    5c06:	ff ff       	.word	0xffff	; ????
    5c08:	ff ff       	.word	0xffff	; ????
    5c0a:	ff ff       	.word	0xffff	; ????
    5c0c:	ff ff       	.word	0xffff	; ????
    5c0e:	ff ff       	.word	0xffff	; ????
    5c10:	ff ff       	.word	0xffff	; ????
    5c12:	ff ff       	.word	0xffff	; ????
    5c14:	ff ff       	.word	0xffff	; ????
    5c16:	ff ff       	.word	0xffff	; ????
    5c18:	ff ff       	.word	0xffff	; ????
    5c1a:	ff ff       	.word	0xffff	; ????
    5c1c:	ff ff       	.word	0xffff	; ????
    5c1e:	ff ff       	.word	0xffff	; ????
    5c20:	ff ff       	.word	0xffff	; ????
    5c22:	ff ff       	.word	0xffff	; ????
    5c24:	ff ff       	.word	0xffff	; ????
    5c26:	ff ff       	.word	0xffff	; ????
    5c28:	ff ff       	.word	0xffff	; ????
    5c2a:	ff ff       	.word	0xffff	; ????
    5c2c:	ff ff       	.word	0xffff	; ????
    5c2e:	ff ff       	.word	0xffff	; ????
    5c30:	ff ff       	.word	0xffff	; ????
    5c32:	ff ff       	.word	0xffff	; ????
    5c34:	ff ff       	.word	0xffff	; ????
    5c36:	ff ff       	.word	0xffff	; ????
    5c38:	ff ff       	.word	0xffff	; ????
    5c3a:	ff ff       	.word	0xffff	; ????
    5c3c:	ff ff       	.word	0xffff	; ????
    5c3e:	ff ff       	.word	0xffff	; ????
    5c40:	ff ff       	.word	0xffff	; ????
    5c42:	ff ff       	.word	0xffff	; ????
    5c44:	ff ff       	.word	0xffff	; ????
    5c46:	ff ff       	.word	0xffff	; ????
    5c48:	ff ff       	.word	0xffff	; ????
    5c4a:	ff ff       	.word	0xffff	; ????
    5c4c:	ff ff       	.word	0xffff	; ????
    5c4e:	ff ff       	.word	0xffff	; ????
    5c50:	ff ff       	.word	0xffff	; ????
    5c52:	ff ff       	.word	0xffff	; ????
    5c54:	ff ff       	.word	0xffff	; ????
    5c56:	ff ff       	.word	0xffff	; ????
    5c58:	ff ff       	.word	0xffff	; ????
    5c5a:	ff ff       	.word	0xffff	; ????
    5c5c:	ff ff       	.word	0xffff	; ????
    5c5e:	ff ff       	.word	0xffff	; ????
    5c60:	ff ff       	.word	0xffff	; ????
    5c62:	ff ff       	.word	0xffff	; ????
    5c64:	ff ff       	.word	0xffff	; ????
    5c66:	ff ff       	.word	0xffff	; ????
    5c68:	ff ff       	.word	0xffff	; ????
    5c6a:	ff ff       	.word	0xffff	; ????
    5c6c:	ff ff       	.word	0xffff	; ????
    5c6e:	ff ff       	.word	0xffff	; ????
    5c70:	ff ff       	.word	0xffff	; ????
    5c72:	ff ff       	.word	0xffff	; ????
    5c74:	ff ff       	.word	0xffff	; ????
    5c76:	ff ff       	.word	0xffff	; ????
    5c78:	ff ff       	.word	0xffff	; ????
    5c7a:	ff ff       	.word	0xffff	; ????
    5c7c:	ff ff       	.word	0xffff	; ????
    5c7e:	ff ff       	.word	0xffff	; ????
    5c80:	ff ff       	.word	0xffff	; ????
    5c82:	ff ff       	.word	0xffff	; ????
    5c84:	ff ff       	.word	0xffff	; ????
    5c86:	ff ff       	.word	0xffff	; ????
    5c88:	ff ff       	.word	0xffff	; ????
    5c8a:	ff ff       	.word	0xffff	; ????
    5c8c:	ff ff       	.word	0xffff	; ????
    5c8e:	ff ff       	.word	0xffff	; ????
    5c90:	ff ff       	.word	0xffff	; ????
    5c92:	ff ff       	.word	0xffff	; ????
    5c94:	ff ff       	.word	0xffff	; ????
    5c96:	ff ff       	.word	0xffff	; ????
    5c98:	ff ff       	.word	0xffff	; ????
    5c9a:	ff ff       	.word	0xffff	; ????
    5c9c:	ff ff       	.word	0xffff	; ????
    5c9e:	ff ff       	.word	0xffff	; ????
    5ca0:	ff ff       	.word	0xffff	; ????
    5ca2:	ff ff       	.word	0xffff	; ????
    5ca4:	ff ff       	.word	0xffff	; ????
    5ca6:	ff ff       	.word	0xffff	; ????
    5ca8:	ff ff       	.word	0xffff	; ????
    5caa:	ff ff       	.word	0xffff	; ????
    5cac:	ff ff       	.word	0xffff	; ????
    5cae:	ff ff       	.word	0xffff	; ????
    5cb0:	ff ff       	.word	0xffff	; ????
    5cb2:	ff ff       	.word	0xffff	; ????
    5cb4:	ff ff       	.word	0xffff	; ????
    5cb6:	ff ff       	.word	0xffff	; ????
    5cb8:	ff ff       	.word	0xffff	; ????
    5cba:	ff ff       	.word	0xffff	; ????
    5cbc:	ff ff       	.word	0xffff	; ????
    5cbe:	ff ff       	.word	0xffff	; ????
    5cc0:	ff ff       	.word	0xffff	; ????
    5cc2:	ff ff       	.word	0xffff	; ????
    5cc4:	ff ff       	.word	0xffff	; ????
    5cc6:	ff ff       	.word	0xffff	; ????
    5cc8:	ff ff       	.word	0xffff	; ????
    5cca:	ff ff       	.word	0xffff	; ????
    5ccc:	ff ff       	.word	0xffff	; ????
    5cce:	ff ff       	.word	0xffff	; ????
    5cd0:	ff ff       	.word	0xffff	; ????
    5cd2:	ff ff       	.word	0xffff	; ????
    5cd4:	ff ff       	.word	0xffff	; ????
    5cd6:	ff ff       	.word	0xffff	; ????
    5cd8:	ff ff       	.word	0xffff	; ????
    5cda:	ff ff       	.word	0xffff	; ????
    5cdc:	ff ff       	.word	0xffff	; ????
    5cde:	ff ff       	.word	0xffff	; ????
    5ce0:	ff ff       	.word	0xffff	; ????
    5ce2:	ff ff       	.word	0xffff	; ????
    5ce4:	ff ff       	.word	0xffff	; ????
    5ce6:	ff ff       	.word	0xffff	; ????
    5ce8:	ff ff       	.word	0xffff	; ????
    5cea:	ff ff       	.word	0xffff	; ????
    5cec:	ff ff       	.word	0xffff	; ????
    5cee:	ff ff       	.word	0xffff	; ????
    5cf0:	ff ff       	.word	0xffff	; ????
    5cf2:	ff ff       	.word	0xffff	; ????
    5cf4:	ff ff       	.word	0xffff	; ????
    5cf6:	ff ff       	.word	0xffff	; ????
    5cf8:	ff ff       	.word	0xffff	; ????
    5cfa:	ff ff       	.word	0xffff	; ????
    5cfc:	ff ff       	.word	0xffff	; ????
    5cfe:	ff ff       	.word	0xffff	; ????
    5d00:	ff ff       	.word	0xffff	; ????
    5d02:	ff ff       	.word	0xffff	; ????
    5d04:	ff ff       	.word	0xffff	; ????
    5d06:	ff ff       	.word	0xffff	; ????
    5d08:	ff ff       	.word	0xffff	; ????
    5d0a:	ff ff       	.word	0xffff	; ????
    5d0c:	ff ff       	.word	0xffff	; ????
    5d0e:	ff ff       	.word	0xffff	; ????
    5d10:	ff ff       	.word	0xffff	; ????
    5d12:	ff ff       	.word	0xffff	; ????
    5d14:	ff ff       	.word	0xffff	; ????
    5d16:	ff ff       	.word	0xffff	; ????
    5d18:	ff ff       	.word	0xffff	; ????
    5d1a:	ff ff       	.word	0xffff	; ????
    5d1c:	ff ff       	.word	0xffff	; ????
    5d1e:	ff ff       	.word	0xffff	; ????
    5d20:	ff ff       	.word	0xffff	; ????
    5d22:	ff ff       	.word	0xffff	; ????
    5d24:	ff ff       	.word	0xffff	; ????
    5d26:	ff ff       	.word	0xffff	; ????
    5d28:	ff ff       	.word	0xffff	; ????
    5d2a:	ff ff       	.word	0xffff	; ????
    5d2c:	ff ff       	.word	0xffff	; ????
    5d2e:	ff ff       	.word	0xffff	; ????
    5d30:	ff ff       	.word	0xffff	; ????
    5d32:	ff ff       	.word	0xffff	; ????
    5d34:	ff ff       	.word	0xffff	; ????
    5d36:	ff ff       	.word	0xffff	; ????
    5d38:	ff ff       	.word	0xffff	; ????
    5d3a:	ff ff       	.word	0xffff	; ????
    5d3c:	ff ff       	.word	0xffff	; ????
    5d3e:	ff ff       	.word	0xffff	; ????
    5d40:	ff ff       	.word	0xffff	; ????
    5d42:	ff ff       	.word	0xffff	; ????
    5d44:	ff ff       	.word	0xffff	; ????
    5d46:	ff ff       	.word	0xffff	; ????
    5d48:	ff ff       	.word	0xffff	; ????
    5d4a:	ff ff       	.word	0xffff	; ????
    5d4c:	ff ff       	.word	0xffff	; ????
    5d4e:	ff ff       	.word	0xffff	; ????
    5d50:	ff ff       	.word	0xffff	; ????
    5d52:	ff ff       	.word	0xffff	; ????
    5d54:	ff ff       	.word	0xffff	; ????
    5d56:	ff ff       	.word	0xffff	; ????
    5d58:	ff ff       	.word	0xffff	; ????
    5d5a:	ff ff       	.word	0xffff	; ????
    5d5c:	ff ff       	.word	0xffff	; ????
    5d5e:	ff ff       	.word	0xffff	; ????
    5d60:	ff ff       	.word	0xffff	; ????
    5d62:	ff ff       	.word	0xffff	; ????
    5d64:	ff ff       	.word	0xffff	; ????
    5d66:	ff ff       	.word	0xffff	; ????
    5d68:	ff ff       	.word	0xffff	; ????
    5d6a:	ff ff       	.word	0xffff	; ????
    5d6c:	ff ff       	.word	0xffff	; ????
    5d6e:	ff ff       	.word	0xffff	; ????
    5d70:	ff ff       	.word	0xffff	; ????
    5d72:	ff ff       	.word	0xffff	; ????
    5d74:	ff ff       	.word	0xffff	; ????
    5d76:	ff ff       	.word	0xffff	; ????
    5d78:	ff ff       	.word	0xffff	; ????
    5d7a:	ff ff       	.word	0xffff	; ????
    5d7c:	ff ff       	.word	0xffff	; ????
    5d7e:	ff ff       	.word	0xffff	; ????
    5d80:	ff ff       	.word	0xffff	; ????
    5d82:	ff ff       	.word	0xffff	; ????
    5d84:	ff ff       	.word	0xffff	; ????
    5d86:	ff ff       	.word	0xffff	; ????
    5d88:	ff ff       	.word	0xffff	; ????
    5d8a:	ff ff       	.word	0xffff	; ????
    5d8c:	ff ff       	.word	0xffff	; ????
    5d8e:	ff ff       	.word	0xffff	; ????
    5d90:	ff ff       	.word	0xffff	; ????
    5d92:	ff ff       	.word	0xffff	; ????
    5d94:	ff ff       	.word	0xffff	; ????
    5d96:	ff ff       	.word	0xffff	; ????
    5d98:	ff ff       	.word	0xffff	; ????
    5d9a:	ff ff       	.word	0xffff	; ????
    5d9c:	ff ff       	.word	0xffff	; ????
    5d9e:	ff ff       	.word	0xffff	; ????
    5da0:	ff ff       	.word	0xffff	; ????
    5da2:	ff ff       	.word	0xffff	; ????
    5da4:	ff ff       	.word	0xffff	; ????
    5da6:	ff ff       	.word	0xffff	; ????
    5da8:	ff ff       	.word	0xffff	; ????
    5daa:	ff ff       	.word	0xffff	; ????
    5dac:	ff ff       	.word	0xffff	; ????
    5dae:	ff ff       	.word	0xffff	; ????
    5db0:	ff ff       	.word	0xffff	; ????
    5db2:	ff ff       	.word	0xffff	; ????
    5db4:	ff ff       	.word	0xffff	; ????
    5db6:	ff ff       	.word	0xffff	; ????
    5db8:	ff ff       	.word	0xffff	; ????
    5dba:	ff ff       	.word	0xffff	; ????
    5dbc:	ff ff       	.word	0xffff	; ????
    5dbe:	ff ff       	.word	0xffff	; ????
    5dc0:	ff ff       	.word	0xffff	; ????
    5dc2:	ff ff       	.word	0xffff	; ????
    5dc4:	ff ff       	.word	0xffff	; ????
    5dc6:	ff ff       	.word	0xffff	; ????
    5dc8:	ff ff       	.word	0xffff	; ????
    5dca:	ff ff       	.word	0xffff	; ????
    5dcc:	ff ff       	.word	0xffff	; ????
    5dce:	ff ff       	.word	0xffff	; ????
    5dd0:	ff ff       	.word	0xffff	; ????
    5dd2:	ff ff       	.word	0xffff	; ????
    5dd4:	ff ff       	.word	0xffff	; ????
    5dd6:	ff ff       	.word	0xffff	; ????
    5dd8:	ff ff       	.word	0xffff	; ????
    5dda:	ff ff       	.word	0xffff	; ????
    5ddc:	ff ff       	.word	0xffff	; ????
    5dde:	ff ff       	.word	0xffff	; ????
    5de0:	ff ff       	.word	0xffff	; ????
    5de2:	ff ff       	.word	0xffff	; ????
    5de4:	ff ff       	.word	0xffff	; ????
    5de6:	ff ff       	.word	0xffff	; ????
    5de8:	ff ff       	.word	0xffff	; ????
    5dea:	ff ff       	.word	0xffff	; ????
    5dec:	ff ff       	.word	0xffff	; ????
    5dee:	ff ff       	.word	0xffff	; ????
    5df0:	ff ff       	.word	0xffff	; ????
    5df2:	ff ff       	.word	0xffff	; ????
    5df4:	ff ff       	.word	0xffff	; ????
    5df6:	ff ff       	.word	0xffff	; ????
    5df8:	ff ff       	.word	0xffff	; ????
    5dfa:	ff ff       	.word	0xffff	; ????
    5dfc:	ff ff       	.word	0xffff	; ????
    5dfe:	ff ff       	.word	0xffff	; ????
    5e00:	ff ff       	.word	0xffff	; ????
    5e02:	ff ff       	.word	0xffff	; ????
    5e04:	ff ff       	.word	0xffff	; ????
    5e06:	ff ff       	.word	0xffff	; ????
    5e08:	ff ff       	.word	0xffff	; ????
    5e0a:	ff ff       	.word	0xffff	; ????
    5e0c:	ff ff       	.word	0xffff	; ????
    5e0e:	ff ff       	.word	0xffff	; ????
    5e10:	ff ff       	.word	0xffff	; ????
    5e12:	ff ff       	.word	0xffff	; ????
    5e14:	ff ff       	.word	0xffff	; ????
    5e16:	ff ff       	.word	0xffff	; ????
    5e18:	ff ff       	.word	0xffff	; ????
    5e1a:	ff ff       	.word	0xffff	; ????
    5e1c:	ff ff       	.word	0xffff	; ????
    5e1e:	ff ff       	.word	0xffff	; ????
    5e20:	ff ff       	.word	0xffff	; ????
    5e22:	ff ff       	.word	0xffff	; ????
    5e24:	ff ff       	.word	0xffff	; ????
    5e26:	ff ff       	.word	0xffff	; ????
    5e28:	ff ff       	.word	0xffff	; ????
    5e2a:	ff ff       	.word	0xffff	; ????
    5e2c:	ff ff       	.word	0xffff	; ????
    5e2e:	ff ff       	.word	0xffff	; ????
    5e30:	ff ff       	.word	0xffff	; ????
    5e32:	ff ff       	.word	0xffff	; ????
    5e34:	ff ff       	.word	0xffff	; ????
    5e36:	ff ff       	.word	0xffff	; ????
    5e38:	ff ff       	.word	0xffff	; ????
    5e3a:	ff ff       	.word	0xffff	; ????
    5e3c:	ff ff       	.word	0xffff	; ????
    5e3e:	ff ff       	.word	0xffff	; ????
    5e40:	ff ff       	.word	0xffff	; ????
    5e42:	ff ff       	.word	0xffff	; ????
    5e44:	ff ff       	.word	0xffff	; ????
    5e46:	ff ff       	.word	0xffff	; ????
    5e48:	ff ff       	.word	0xffff	; ????
    5e4a:	ff ff       	.word	0xffff	; ????
    5e4c:	ff ff       	.word	0xffff	; ????
    5e4e:	ff ff       	.word	0xffff	; ????
    5e50:	ff ff       	.word	0xffff	; ????
    5e52:	ff ff       	.word	0xffff	; ????
    5e54:	ff ff       	.word	0xffff	; ????
    5e56:	ff ff       	.word	0xffff	; ????
    5e58:	ff ff       	.word	0xffff	; ????
    5e5a:	ff ff       	.word	0xffff	; ????
    5e5c:	ff ff       	.word	0xffff	; ????
    5e5e:	ff ff       	.word	0xffff	; ????
    5e60:	ff ff       	.word	0xffff	; ????
    5e62:	ff ff       	.word	0xffff	; ????
    5e64:	ff ff       	.word	0xffff	; ????
    5e66:	ff ff       	.word	0xffff	; ????
    5e68:	ff ff       	.word	0xffff	; ????
    5e6a:	ff ff       	.word	0xffff	; ????
    5e6c:	ff ff       	.word	0xffff	; ????
    5e6e:	ff ff       	.word	0xffff	; ????
    5e70:	ff ff       	.word	0xffff	; ????
    5e72:	ff ff       	.word	0xffff	; ????
    5e74:	ff ff       	.word	0xffff	; ????
    5e76:	ff ff       	.word	0xffff	; ????
    5e78:	ff ff       	.word	0xffff	; ????
    5e7a:	ff ff       	.word	0xffff	; ????
    5e7c:	ff ff       	.word	0xffff	; ????
    5e7e:	ff ff       	.word	0xffff	; ????
    5e80:	ff ff       	.word	0xffff	; ????
    5e82:	ff ff       	.word	0xffff	; ????
    5e84:	ff ff       	.word	0xffff	; ????
    5e86:	ff ff       	.word	0xffff	; ????
    5e88:	ff ff       	.word	0xffff	; ????
    5e8a:	ff ff       	.word	0xffff	; ????
    5e8c:	ff ff       	.word	0xffff	; ????
    5e8e:	ff ff       	.word	0xffff	; ????
    5e90:	ff ff       	.word	0xffff	; ????
    5e92:	ff ff       	.word	0xffff	; ????
    5e94:	ff ff       	.word	0xffff	; ????
    5e96:	ff ff       	.word	0xffff	; ????
    5e98:	ff ff       	.word	0xffff	; ????
    5e9a:	ff ff       	.word	0xffff	; ????
    5e9c:	ff ff       	.word	0xffff	; ????
    5e9e:	ff ff       	.word	0xffff	; ????
    5ea0:	ff ff       	.word	0xffff	; ????
    5ea2:	ff ff       	.word	0xffff	; ????
    5ea4:	ff ff       	.word	0xffff	; ????
    5ea6:	ff ff       	.word	0xffff	; ????
    5ea8:	ff ff       	.word	0xffff	; ????
    5eaa:	ff ff       	.word	0xffff	; ????
    5eac:	ff ff       	.word	0xffff	; ????
    5eae:	ff ff       	.word	0xffff	; ????
    5eb0:	ff ff       	.word	0xffff	; ????
    5eb2:	ff ff       	.word	0xffff	; ????
    5eb4:	ff ff       	.word	0xffff	; ????
    5eb6:	ff ff       	.word	0xffff	; ????
    5eb8:	ff ff       	.word	0xffff	; ????
    5eba:	ff ff       	.word	0xffff	; ????
    5ebc:	ff ff       	.word	0xffff	; ????
    5ebe:	ff ff       	.word	0xffff	; ????
    5ec0:	ff ff       	.word	0xffff	; ????
    5ec2:	ff ff       	.word	0xffff	; ????
    5ec4:	ff ff       	.word	0xffff	; ????
    5ec6:	ff ff       	.word	0xffff	; ????
    5ec8:	ff ff       	.word	0xffff	; ????
    5eca:	ff ff       	.word	0xffff	; ????
    5ecc:	ff ff       	.word	0xffff	; ????
    5ece:	ff ff       	.word	0xffff	; ????
    5ed0:	ff ff       	.word	0xffff	; ????
    5ed2:	ff ff       	.word	0xffff	; ????
    5ed4:	ff ff       	.word	0xffff	; ????
    5ed6:	ff ff       	.word	0xffff	; ????
    5ed8:	ff ff       	.word	0xffff	; ????
    5eda:	ff ff       	.word	0xffff	; ????
    5edc:	ff ff       	.word	0xffff	; ????
    5ede:	ff ff       	.word	0xffff	; ????
    5ee0:	ff ff       	.word	0xffff	; ????
    5ee2:	ff ff       	.word	0xffff	; ????
    5ee4:	ff ff       	.word	0xffff	; ????
    5ee6:	ff ff       	.word	0xffff	; ????
    5ee8:	ff ff       	.word	0xffff	; ????
    5eea:	ff ff       	.word	0xffff	; ????
    5eec:	ff ff       	.word	0xffff	; ????
    5eee:	ff ff       	.word	0xffff	; ????
    5ef0:	ff ff       	.word	0xffff	; ????
    5ef2:	ff ff       	.word	0xffff	; ????
    5ef4:	ff ff       	.word	0xffff	; ????
    5ef6:	ff ff       	.word	0xffff	; ????
    5ef8:	ff ff       	.word	0xffff	; ????
    5efa:	ff ff       	.word	0xffff	; ????
    5efc:	ff ff       	.word	0xffff	; ????
    5efe:	ff ff       	.word	0xffff	; ????
    5f00:	ff ff       	.word	0xffff	; ????
    5f02:	ff ff       	.word	0xffff	; ????
    5f04:	ff ff       	.word	0xffff	; ????
    5f06:	ff ff       	.word	0xffff	; ????
    5f08:	ff ff       	.word	0xffff	; ????
    5f0a:	ff ff       	.word	0xffff	; ????
    5f0c:	ff ff       	.word	0xffff	; ????
    5f0e:	ff ff       	.word	0xffff	; ????
    5f10:	ff ff       	.word	0xffff	; ????
    5f12:	ff ff       	.word	0xffff	; ????
    5f14:	ff ff       	.word	0xffff	; ????
    5f16:	ff ff       	.word	0xffff	; ????
    5f18:	ff ff       	.word	0xffff	; ????
    5f1a:	ff ff       	.word	0xffff	; ????
    5f1c:	ff ff       	.word	0xffff	; ????
    5f1e:	ff ff       	.word	0xffff	; ????
    5f20:	ff ff       	.word	0xffff	; ????
    5f22:	ff ff       	.word	0xffff	; ????
    5f24:	ff ff       	.word	0xffff	; ????
    5f26:	ff ff       	.word	0xffff	; ????
    5f28:	ff ff       	.word	0xffff	; ????
    5f2a:	ff ff       	.word	0xffff	; ????
    5f2c:	ff ff       	.word	0xffff	; ????
    5f2e:	ff ff       	.word	0xffff	; ????
    5f30:	ff ff       	.word	0xffff	; ????
    5f32:	ff ff       	.word	0xffff	; ????
    5f34:	ff ff       	.word	0xffff	; ????
    5f36:	ff ff       	.word	0xffff	; ????
    5f38:	ff ff       	.word	0xffff	; ????
    5f3a:	ff ff       	.word	0xffff	; ????
    5f3c:	ff ff       	.word	0xffff	; ????
    5f3e:	ff ff       	.word	0xffff	; ????
    5f40:	ff ff       	.word	0xffff	; ????
    5f42:	ff ff       	.word	0xffff	; ????
    5f44:	ff ff       	.word	0xffff	; ????
    5f46:	ff ff       	.word	0xffff	; ????
    5f48:	ff ff       	.word	0xffff	; ????
    5f4a:	ff ff       	.word	0xffff	; ????
    5f4c:	ff ff       	.word	0xffff	; ????
    5f4e:	ff ff       	.word	0xffff	; ????
    5f50:	ff ff       	.word	0xffff	; ????
    5f52:	ff ff       	.word	0xffff	; ????
    5f54:	ff ff       	.word	0xffff	; ????
    5f56:	ff ff       	.word	0xffff	; ????
    5f58:	ff ff       	.word	0xffff	; ????
    5f5a:	ff ff       	.word	0xffff	; ????
    5f5c:	ff ff       	.word	0xffff	; ????
    5f5e:	ff ff       	.word	0xffff	; ????
    5f60:	ff ff       	.word	0xffff	; ????
    5f62:	ff ff       	.word	0xffff	; ????
    5f64:	ff ff       	.word	0xffff	; ????
    5f66:	ff ff       	.word	0xffff	; ????
    5f68:	ff ff       	.word	0xffff	; ????
    5f6a:	ff ff       	.word	0xffff	; ????
    5f6c:	ff ff       	.word	0xffff	; ????
    5f6e:	ff ff       	.word	0xffff	; ????
    5f70:	ff ff       	.word	0xffff	; ????
    5f72:	ff ff       	.word	0xffff	; ????
    5f74:	ff ff       	.word	0xffff	; ????
    5f76:	ff ff       	.word	0xffff	; ????
    5f78:	ff ff       	.word	0xffff	; ????
    5f7a:	ff ff       	.word	0xffff	; ????
    5f7c:	ff ff       	.word	0xffff	; ????
    5f7e:	ff ff       	.word	0xffff	; ????
    5f80:	ff ff       	.word	0xffff	; ????
    5f82:	ff ff       	.word	0xffff	; ????
    5f84:	ff ff       	.word	0xffff	; ????
    5f86:	ff ff       	.word	0xffff	; ????
    5f88:	ff ff       	.word	0xffff	; ????
    5f8a:	ff ff       	.word	0xffff	; ????
    5f8c:	ff ff       	.word	0xffff	; ????
    5f8e:	ff ff       	.word	0xffff	; ????
    5f90:	ff ff       	.word	0xffff	; ????
    5f92:	ff ff       	.word	0xffff	; ????
    5f94:	ff ff       	.word	0xffff	; ????
    5f96:	ff ff       	.word	0xffff	; ????
    5f98:	ff ff       	.word	0xffff	; ????
    5f9a:	ff ff       	.word	0xffff	; ????
    5f9c:	ff ff       	.word	0xffff	; ????
    5f9e:	ff ff       	.word	0xffff	; ????
    5fa0:	ff ff       	.word	0xffff	; ????
    5fa2:	ff ff       	.word	0xffff	; ????
    5fa4:	ff ff       	.word	0xffff	; ????
    5fa6:	ff ff       	.word	0xffff	; ????
    5fa8:	ff ff       	.word	0xffff	; ????
    5faa:	ff ff       	.word	0xffff	; ????
    5fac:	ff ff       	.word	0xffff	; ????
    5fae:	ff ff       	.word	0xffff	; ????
    5fb0:	ff ff       	.word	0xffff	; ????
    5fb2:	ff ff       	.word	0xffff	; ????
    5fb4:	ff ff       	.word	0xffff	; ????
    5fb6:	ff ff       	.word	0xffff	; ????
    5fb8:	ff ff       	.word	0xffff	; ????
    5fba:	ff ff       	.word	0xffff	; ????
    5fbc:	ff ff       	.word	0xffff	; ????
    5fbe:	ff ff       	.word	0xffff	; ????
    5fc0:	ff ff       	.word	0xffff	; ????
    5fc2:	ff ff       	.word	0xffff	; ????
    5fc4:	ff ff       	.word	0xffff	; ????
    5fc6:	ff ff       	.word	0xffff	; ????
    5fc8:	ff ff       	.word	0xffff	; ????
    5fca:	ff ff       	.word	0xffff	; ????
    5fcc:	ff ff       	.word	0xffff	; ????
    5fce:	ff ff       	.word	0xffff	; ????
    5fd0:	ff ff       	.word	0xffff	; ????
    5fd2:	ff ff       	.word	0xffff	; ????
    5fd4:	ff ff       	.word	0xffff	; ????
    5fd6:	ff ff       	.word	0xffff	; ????
    5fd8:	ff ff       	.word	0xffff	; ????
    5fda:	ff ff       	.word	0xffff	; ????
    5fdc:	ff ff       	.word	0xffff	; ????
    5fde:	ff ff       	.word	0xffff	; ????
    5fe0:	ff ff       	.word	0xffff	; ????
    5fe2:	ff ff       	.word	0xffff	; ????
    5fe4:	ff ff       	.word	0xffff	; ????
    5fe6:	ff ff       	.word	0xffff	; ????
    5fe8:	ff ff       	.word	0xffff	; ????
    5fea:	ff ff       	.word	0xffff	; ????
    5fec:	ff ff       	.word	0xffff	; ????
    5fee:	ff ff       	.word	0xffff	; ????
    5ff0:	ff ff       	.word	0xffff	; ????
    5ff2:	ff ff       	.word	0xffff	; ????
    5ff4:	ff ff       	.word	0xffff	; ????
    5ff6:	ff ff       	.word	0xffff	; ????
    5ff8:	ff ff       	.word	0xffff	; ????
    5ffa:	ff ff       	.word	0xffff	; ????
    5ffc:	ff ff       	.word	0xffff	; ????
    5ffe:	ff ff       	.word	0xffff	; ????
    6000:	ff ff       	.word	0xffff	; ????
    6002:	ff ff       	.word	0xffff	; ????
    6004:	ff ff       	.word	0xffff	; ????
    6006:	ff ff       	.word	0xffff	; ????
    6008:	ff ff       	.word	0xffff	; ????
    600a:	ff ff       	.word	0xffff	; ????
    600c:	ff ff       	.word	0xffff	; ????
    600e:	ff ff       	.word	0xffff	; ????
    6010:	ff ff       	.word	0xffff	; ????
    6012:	ff ff       	.word	0xffff	; ????
    6014:	ff ff       	.word	0xffff	; ????
    6016:	ff ff       	.word	0xffff	; ????
    6018:	ff ff       	.word	0xffff	; ????
    601a:	ff ff       	.word	0xffff	; ????
    601c:	ff ff       	.word	0xffff	; ????
    601e:	ff ff       	.word	0xffff	; ????
    6020:	ff ff       	.word	0xffff	; ????
    6022:	ff ff       	.word	0xffff	; ????
    6024:	ff ff       	.word	0xffff	; ????
    6026:	ff ff       	.word	0xffff	; ????
    6028:	ff ff       	.word	0xffff	; ????
    602a:	ff ff       	.word	0xffff	; ????
    602c:	ff ff       	.word	0xffff	; ????
    602e:	ff ff       	.word	0xffff	; ????
    6030:	ff ff       	.word	0xffff	; ????
    6032:	ff ff       	.word	0xffff	; ????
    6034:	ff ff       	.word	0xffff	; ????
    6036:	ff ff       	.word	0xffff	; ????
    6038:	ff ff       	.word	0xffff	; ????
    603a:	ff ff       	.word	0xffff	; ????
    603c:	ff ff       	.word	0xffff	; ????
    603e:	ff ff       	.word	0xffff	; ????
    6040:	ff ff       	.word	0xffff	; ????
    6042:	ff ff       	.word	0xffff	; ????
    6044:	ff ff       	.word	0xffff	; ????
    6046:	ff ff       	.word	0xffff	; ????
    6048:	ff ff       	.word	0xffff	; ????
    604a:	ff ff       	.word	0xffff	; ????
    604c:	ff ff       	.word	0xffff	; ????
    604e:	ff ff       	.word	0xffff	; ????
    6050:	ff ff       	.word	0xffff	; ????
    6052:	ff ff       	.word	0xffff	; ????
    6054:	ff ff       	.word	0xffff	; ????
    6056:	ff ff       	.word	0xffff	; ????
    6058:	ff ff       	.word	0xffff	; ????
    605a:	ff ff       	.word	0xffff	; ????
    605c:	ff ff       	.word	0xffff	; ????
    605e:	ff ff       	.word	0xffff	; ????
    6060:	ff ff       	.word	0xffff	; ????
    6062:	ff ff       	.word	0xffff	; ????
    6064:	ff ff       	.word	0xffff	; ????
    6066:	ff ff       	.word	0xffff	; ????
    6068:	ff ff       	.word	0xffff	; ????
    606a:	ff ff       	.word	0xffff	; ????
    606c:	ff ff       	.word	0xffff	; ????
    606e:	ff ff       	.word	0xffff	; ????
    6070:	ff ff       	.word	0xffff	; ????
    6072:	ff ff       	.word	0xffff	; ????
    6074:	ff ff       	.word	0xffff	; ????
    6076:	ff ff       	.word	0xffff	; ????
    6078:	ff ff       	.word	0xffff	; ????
    607a:	ff ff       	.word	0xffff	; ????
    607c:	ff ff       	.word	0xffff	; ????
    607e:	ff ff       	.word	0xffff	; ????
    6080:	ff ff       	.word	0xffff	; ????
    6082:	ff ff       	.word	0xffff	; ????
    6084:	ff ff       	.word	0xffff	; ????
    6086:	ff ff       	.word	0xffff	; ????
    6088:	ff ff       	.word	0xffff	; ????
    608a:	ff ff       	.word	0xffff	; ????
    608c:	ff ff       	.word	0xffff	; ????
    608e:	ff ff       	.word	0xffff	; ????
    6090:	ff ff       	.word	0xffff	; ????
    6092:	ff ff       	.word	0xffff	; ????
    6094:	ff ff       	.word	0xffff	; ????
    6096:	ff ff       	.word	0xffff	; ????
    6098:	ff ff       	.word	0xffff	; ????
    609a:	ff ff       	.word	0xffff	; ????
    609c:	ff ff       	.word	0xffff	; ????
    609e:	ff ff       	.word	0xffff	; ????
    60a0:	ff ff       	.word	0xffff	; ????
    60a2:	ff ff       	.word	0xffff	; ????
    60a4:	ff ff       	.word	0xffff	; ????
    60a6:	ff ff       	.word	0xffff	; ????
    60a8:	ff ff       	.word	0xffff	; ????
    60aa:	ff ff       	.word	0xffff	; ????
    60ac:	ff ff       	.word	0xffff	; ????
    60ae:	ff ff       	.word	0xffff	; ????
    60b0:	ff ff       	.word	0xffff	; ????
    60b2:	ff ff       	.word	0xffff	; ????
    60b4:	ff ff       	.word	0xffff	; ????
    60b6:	ff ff       	.word	0xffff	; ????
    60b8:	ff ff       	.word	0xffff	; ????
    60ba:	ff ff       	.word	0xffff	; ????
    60bc:	ff ff       	.word	0xffff	; ????
    60be:	ff ff       	.word	0xffff	; ????
    60c0:	ff ff       	.word	0xffff	; ????
    60c2:	ff ff       	.word	0xffff	; ????
    60c4:	ff ff       	.word	0xffff	; ????
    60c6:	ff ff       	.word	0xffff	; ????
    60c8:	ff ff       	.word	0xffff	; ????
    60ca:	ff ff       	.word	0xffff	; ????
    60cc:	ff ff       	.word	0xffff	; ????
    60ce:	ff ff       	.word	0xffff	; ????
    60d0:	ff ff       	.word	0xffff	; ????
    60d2:	ff ff       	.word	0xffff	; ????
    60d4:	ff ff       	.word	0xffff	; ????
    60d6:	ff ff       	.word	0xffff	; ????
    60d8:	ff ff       	.word	0xffff	; ????
    60da:	ff ff       	.word	0xffff	; ????
    60dc:	ff ff       	.word	0xffff	; ????
    60de:	ff ff       	.word	0xffff	; ????
    60e0:	ff ff       	.word	0xffff	; ????
    60e2:	ff ff       	.word	0xffff	; ????
    60e4:	ff ff       	.word	0xffff	; ????
    60e6:	ff ff       	.word	0xffff	; ????
    60e8:	ff ff       	.word	0xffff	; ????
    60ea:	ff ff       	.word	0xffff	; ????
    60ec:	ff ff       	.word	0xffff	; ????
    60ee:	ff ff       	.word	0xffff	; ????
    60f0:	ff ff       	.word	0xffff	; ????
    60f2:	ff ff       	.word	0xffff	; ????
    60f4:	ff ff       	.word	0xffff	; ????
    60f6:	ff ff       	.word	0xffff	; ????
    60f8:	ff ff       	.word	0xffff	; ????
    60fa:	ff ff       	.word	0xffff	; ????
    60fc:	ff ff       	.word	0xffff	; ????
    60fe:	ff ff       	.word	0xffff	; ????
    6100:	ff ff       	.word	0xffff	; ????
    6102:	ff ff       	.word	0xffff	; ????
    6104:	ff ff       	.word	0xffff	; ????
    6106:	ff ff       	.word	0xffff	; ????
    6108:	ff ff       	.word	0xffff	; ????
    610a:	ff ff       	.word	0xffff	; ????
    610c:	ff ff       	.word	0xffff	; ????
    610e:	ff ff       	.word	0xffff	; ????
    6110:	ff ff       	.word	0xffff	; ????
    6112:	ff ff       	.word	0xffff	; ????
    6114:	ff ff       	.word	0xffff	; ????
    6116:	ff ff       	.word	0xffff	; ????
    6118:	ff ff       	.word	0xffff	; ????
    611a:	ff ff       	.word	0xffff	; ????
    611c:	ff ff       	.word	0xffff	; ????
    611e:	ff ff       	.word	0xffff	; ????
    6120:	ff ff       	.word	0xffff	; ????
    6122:	ff ff       	.word	0xffff	; ????
    6124:	ff ff       	.word	0xffff	; ????
    6126:	ff ff       	.word	0xffff	; ????
    6128:	ff ff       	.word	0xffff	; ????
    612a:	ff ff       	.word	0xffff	; ????
    612c:	ff ff       	.word	0xffff	; ????
    612e:	ff ff       	.word	0xffff	; ????
    6130:	ff ff       	.word	0xffff	; ????
    6132:	ff ff       	.word	0xffff	; ????
    6134:	ff ff       	.word	0xffff	; ????
    6136:	ff ff       	.word	0xffff	; ????
    6138:	ff ff       	.word	0xffff	; ????
    613a:	ff ff       	.word	0xffff	; ????
    613c:	ff ff       	.word	0xffff	; ????
    613e:	ff ff       	.word	0xffff	; ????
    6140:	ff ff       	.word	0xffff	; ????
    6142:	ff ff       	.word	0xffff	; ????
    6144:	ff ff       	.word	0xffff	; ????
    6146:	ff ff       	.word	0xffff	; ????
    6148:	ff ff       	.word	0xffff	; ????
    614a:	ff ff       	.word	0xffff	; ????
    614c:	ff ff       	.word	0xffff	; ????
    614e:	ff ff       	.word	0xffff	; ????
    6150:	ff ff       	.word	0xffff	; ????
    6152:	ff ff       	.word	0xffff	; ????
    6154:	ff ff       	.word	0xffff	; ????
    6156:	ff ff       	.word	0xffff	; ????
    6158:	ff ff       	.word	0xffff	; ????
    615a:	ff ff       	.word	0xffff	; ????
    615c:	ff ff       	.word	0xffff	; ????
    615e:	ff ff       	.word	0xffff	; ????
    6160:	ff ff       	.word	0xffff	; ????
    6162:	ff ff       	.word	0xffff	; ????
    6164:	ff ff       	.word	0xffff	; ????
    6166:	ff ff       	.word	0xffff	; ????
    6168:	ff ff       	.word	0xffff	; ????
    616a:	ff ff       	.word	0xffff	; ????
    616c:	ff ff       	.word	0xffff	; ????
    616e:	ff ff       	.word	0xffff	; ????
    6170:	ff ff       	.word	0xffff	; ????
    6172:	ff ff       	.word	0xffff	; ????
    6174:	ff ff       	.word	0xffff	; ????
    6176:	ff ff       	.word	0xffff	; ????
    6178:	ff ff       	.word	0xffff	; ????
    617a:	ff ff       	.word	0xffff	; ????
    617c:	ff ff       	.word	0xffff	; ????
    617e:	ff ff       	.word	0xffff	; ????
    6180:	ff ff       	.word	0xffff	; ????
    6182:	ff ff       	.word	0xffff	; ????
    6184:	ff ff       	.word	0xffff	; ????
    6186:	ff ff       	.word	0xffff	; ????
    6188:	ff ff       	.word	0xffff	; ????
    618a:	ff ff       	.word	0xffff	; ????
    618c:	ff ff       	.word	0xffff	; ????
    618e:	ff ff       	.word	0xffff	; ????
    6190:	ff ff       	.word	0xffff	; ????
    6192:	ff ff       	.word	0xffff	; ????
    6194:	ff ff       	.word	0xffff	; ????
    6196:	ff ff       	.word	0xffff	; ????
    6198:	ff ff       	.word	0xffff	; ????
    619a:	ff ff       	.word	0xffff	; ????
    619c:	ff ff       	.word	0xffff	; ????
    619e:	ff ff       	.word	0xffff	; ????
    61a0:	ff ff       	.word	0xffff	; ????
    61a2:	ff ff       	.word	0xffff	; ????
    61a4:	ff ff       	.word	0xffff	; ????
    61a6:	ff ff       	.word	0xffff	; ????
    61a8:	ff ff       	.word	0xffff	; ????
    61aa:	ff ff       	.word	0xffff	; ????
    61ac:	ff ff       	.word	0xffff	; ????
    61ae:	ff ff       	.word	0xffff	; ????
    61b0:	ff ff       	.word	0xffff	; ????
    61b2:	ff ff       	.word	0xffff	; ????
    61b4:	ff ff       	.word	0xffff	; ????
    61b6:	ff ff       	.word	0xffff	; ????
    61b8:	ff ff       	.word	0xffff	; ????
    61ba:	ff ff       	.word	0xffff	; ????
    61bc:	ff ff       	.word	0xffff	; ????
    61be:	ff ff       	.word	0xffff	; ????
    61c0:	ff ff       	.word	0xffff	; ????
    61c2:	ff ff       	.word	0xffff	; ????
    61c4:	ff ff       	.word	0xffff	; ????
    61c6:	ff ff       	.word	0xffff	; ????
    61c8:	ff ff       	.word	0xffff	; ????
    61ca:	ff ff       	.word	0xffff	; ????
    61cc:	ff ff       	.word	0xffff	; ????
    61ce:	ff ff       	.word	0xffff	; ????
    61d0:	ff ff       	.word	0xffff	; ????
    61d2:	ff ff       	.word	0xffff	; ????
    61d4:	ff ff       	.word	0xffff	; ????
    61d6:	ff ff       	.word	0xffff	; ????
    61d8:	ff ff       	.word	0xffff	; ????
    61da:	ff ff       	.word	0xffff	; ????
    61dc:	ff ff       	.word	0xffff	; ????
    61de:	ff ff       	.word	0xffff	; ????
    61e0:	ff ff       	.word	0xffff	; ????
    61e2:	ff ff       	.word	0xffff	; ????
    61e4:	ff ff       	.word	0xffff	; ????
    61e6:	ff ff       	.word	0xffff	; ????
    61e8:	ff ff       	.word	0xffff	; ????
    61ea:	ff ff       	.word	0xffff	; ????
    61ec:	ff ff       	.word	0xffff	; ????
    61ee:	ff ff       	.word	0xffff	; ????
    61f0:	ff ff       	.word	0xffff	; ????
    61f2:	ff ff       	.word	0xffff	; ????
    61f4:	ff ff       	.word	0xffff	; ????
    61f6:	ff ff       	.word	0xffff	; ????
    61f8:	ff ff       	.word	0xffff	; ????
    61fa:	ff ff       	.word	0xffff	; ????
    61fc:	ff ff       	.word	0xffff	; ????
    61fe:	ff ff       	.word	0xffff	; ????
    6200:	ff ff       	.word	0xffff	; ????
    6202:	ff ff       	.word	0xffff	; ????
    6204:	ff ff       	.word	0xffff	; ????
    6206:	ff ff       	.word	0xffff	; ????
    6208:	ff ff       	.word	0xffff	; ????
    620a:	ff ff       	.word	0xffff	; ????
    620c:	ff ff       	.word	0xffff	; ????
    620e:	ff ff       	.word	0xffff	; ????
    6210:	ff ff       	.word	0xffff	; ????
    6212:	ff ff       	.word	0xffff	; ????
    6214:	ff ff       	.word	0xffff	; ????
    6216:	ff ff       	.word	0xffff	; ????
    6218:	ff ff       	.word	0xffff	; ????
    621a:	ff ff       	.word	0xffff	; ????
    621c:	ff ff       	.word	0xffff	; ????
    621e:	ff ff       	.word	0xffff	; ????
    6220:	ff ff       	.word	0xffff	; ????
    6222:	ff ff       	.word	0xffff	; ????
    6224:	ff ff       	.word	0xffff	; ????
    6226:	ff ff       	.word	0xffff	; ????
    6228:	ff ff       	.word	0xffff	; ????
    622a:	ff ff       	.word	0xffff	; ????
    622c:	ff ff       	.word	0xffff	; ????
    622e:	ff ff       	.word	0xffff	; ????
    6230:	ff ff       	.word	0xffff	; ????
    6232:	ff ff       	.word	0xffff	; ????
    6234:	ff ff       	.word	0xffff	; ????
    6236:	ff ff       	.word	0xffff	; ????
    6238:	ff ff       	.word	0xffff	; ????
    623a:	ff ff       	.word	0xffff	; ????
    623c:	ff ff       	.word	0xffff	; ????
    623e:	ff ff       	.word	0xffff	; ????
    6240:	ff ff       	.word	0xffff	; ????
    6242:	ff ff       	.word	0xffff	; ????
    6244:	ff ff       	.word	0xffff	; ????
    6246:	ff ff       	.word	0xffff	; ????
    6248:	ff ff       	.word	0xffff	; ????
    624a:	ff ff       	.word	0xffff	; ????
    624c:	ff ff       	.word	0xffff	; ????
    624e:	ff ff       	.word	0xffff	; ????
    6250:	ff ff       	.word	0xffff	; ????
    6252:	ff ff       	.word	0xffff	; ????
    6254:	ff ff       	.word	0xffff	; ????
    6256:	ff ff       	.word	0xffff	; ????
    6258:	ff ff       	.word	0xffff	; ????
    625a:	ff ff       	.word	0xffff	; ????
    625c:	ff ff       	.word	0xffff	; ????
    625e:	ff ff       	.word	0xffff	; ????
    6260:	ff ff       	.word	0xffff	; ????
    6262:	ff ff       	.word	0xffff	; ????
    6264:	ff ff       	.word	0xffff	; ????
    6266:	ff ff       	.word	0xffff	; ????
    6268:	ff ff       	.word	0xffff	; ????
    626a:	ff ff       	.word	0xffff	; ????
    626c:	ff ff       	.word	0xffff	; ????
    626e:	ff ff       	.word	0xffff	; ????
    6270:	ff ff       	.word	0xffff	; ????
    6272:	ff ff       	.word	0xffff	; ????
    6274:	ff ff       	.word	0xffff	; ????
    6276:	ff ff       	.word	0xffff	; ????
    6278:	ff ff       	.word	0xffff	; ????
    627a:	ff ff       	.word	0xffff	; ????
    627c:	ff ff       	.word	0xffff	; ????
    627e:	ff ff       	.word	0xffff	; ????
    6280:	ff ff       	.word	0xffff	; ????
    6282:	ff ff       	.word	0xffff	; ????
    6284:	ff ff       	.word	0xffff	; ????
    6286:	ff ff       	.word	0xffff	; ????
    6288:	ff ff       	.word	0xffff	; ????
    628a:	ff ff       	.word	0xffff	; ????
    628c:	ff ff       	.word	0xffff	; ????
    628e:	ff ff       	.word	0xffff	; ????
    6290:	ff ff       	.word	0xffff	; ????
    6292:	ff ff       	.word	0xffff	; ????
    6294:	ff ff       	.word	0xffff	; ????
    6296:	ff ff       	.word	0xffff	; ????
    6298:	ff ff       	.word	0xffff	; ????
    629a:	ff ff       	.word	0xffff	; ????
    629c:	ff ff       	.word	0xffff	; ????
    629e:	ff ff       	.word	0xffff	; ????
    62a0:	ff ff       	.word	0xffff	; ????
    62a2:	ff ff       	.word	0xffff	; ????
    62a4:	ff ff       	.word	0xffff	; ????
    62a6:	ff ff       	.word	0xffff	; ????
    62a8:	ff ff       	.word	0xffff	; ????
    62aa:	ff ff       	.word	0xffff	; ????
    62ac:	ff ff       	.word	0xffff	; ????
    62ae:	ff ff       	.word	0xffff	; ????
    62b0:	ff ff       	.word	0xffff	; ????
    62b2:	ff ff       	.word	0xffff	; ????
    62b4:	ff ff       	.word	0xffff	; ????
    62b6:	ff ff       	.word	0xffff	; ????
    62b8:	ff ff       	.word	0xffff	; ????
    62ba:	ff ff       	.word	0xffff	; ????
    62bc:	ff ff       	.word	0xffff	; ????
    62be:	ff ff       	.word	0xffff	; ????
    62c0:	ff ff       	.word	0xffff	; ????
    62c2:	ff ff       	.word	0xffff	; ????
    62c4:	ff ff       	.word	0xffff	; ????
    62c6:	ff ff       	.word	0xffff	; ????
    62c8:	ff ff       	.word	0xffff	; ????
    62ca:	ff ff       	.word	0xffff	; ????
    62cc:	ff ff       	.word	0xffff	; ????
    62ce:	ff ff       	.word	0xffff	; ????
    62d0:	ff ff       	.word	0xffff	; ????
    62d2:	ff ff       	.word	0xffff	; ????
    62d4:	ff ff       	.word	0xffff	; ????
    62d6:	ff ff       	.word	0xffff	; ????
    62d8:	ff ff       	.word	0xffff	; ????
    62da:	ff ff       	.word	0xffff	; ????
    62dc:	ff ff       	.word	0xffff	; ????
    62de:	ff ff       	.word	0xffff	; ????
    62e0:	ff ff       	.word	0xffff	; ????
    62e2:	ff ff       	.word	0xffff	; ????
    62e4:	ff ff       	.word	0xffff	; ????
    62e6:	ff ff       	.word	0xffff	; ????
    62e8:	ff ff       	.word	0xffff	; ????
    62ea:	ff ff       	.word	0xffff	; ????
    62ec:	ff ff       	.word	0xffff	; ????
    62ee:	ff ff       	.word	0xffff	; ????
    62f0:	ff ff       	.word	0xffff	; ????
    62f2:	ff ff       	.word	0xffff	; ????
    62f4:	ff ff       	.word	0xffff	; ????
    62f6:	ff ff       	.word	0xffff	; ????
    62f8:	ff ff       	.word	0xffff	; ????
    62fa:	ff ff       	.word	0xffff	; ????
    62fc:	ff ff       	.word	0xffff	; ????
    62fe:	ff ff       	.word	0xffff	; ????
    6300:	ff ff       	.word	0xffff	; ????
    6302:	ff ff       	.word	0xffff	; ????
    6304:	ff ff       	.word	0xffff	; ????
    6306:	ff ff       	.word	0xffff	; ????
    6308:	ff ff       	.word	0xffff	; ????
    630a:	ff ff       	.word	0xffff	; ????
    630c:	ff ff       	.word	0xffff	; ????
    630e:	ff ff       	.word	0xffff	; ????
    6310:	ff ff       	.word	0xffff	; ????
    6312:	ff ff       	.word	0xffff	; ????
    6314:	ff ff       	.word	0xffff	; ????
    6316:	ff ff       	.word	0xffff	; ????
    6318:	ff ff       	.word	0xffff	; ????
    631a:	ff ff       	.word	0xffff	; ????
    631c:	ff ff       	.word	0xffff	; ????
    631e:	ff ff       	.word	0xffff	; ????
    6320:	ff ff       	.word	0xffff	; ????
    6322:	ff ff       	.word	0xffff	; ????
    6324:	ff ff       	.word	0xffff	; ????
    6326:	ff ff       	.word	0xffff	; ????
    6328:	ff ff       	.word	0xffff	; ????
    632a:	ff ff       	.word	0xffff	; ????
    632c:	ff ff       	.word	0xffff	; ????
    632e:	ff ff       	.word	0xffff	; ????
    6330:	ff ff       	.word	0xffff	; ????
    6332:	ff ff       	.word	0xffff	; ????
    6334:	ff ff       	.word	0xffff	; ????
    6336:	ff ff       	.word	0xffff	; ????
    6338:	ff ff       	.word	0xffff	; ????
    633a:	ff ff       	.word	0xffff	; ????
    633c:	ff ff       	.word	0xffff	; ????
    633e:	ff ff       	.word	0xffff	; ????
    6340:	ff ff       	.word	0xffff	; ????
    6342:	ff ff       	.word	0xffff	; ????
    6344:	ff ff       	.word	0xffff	; ????
    6346:	ff ff       	.word	0xffff	; ????
    6348:	ff ff       	.word	0xffff	; ????
    634a:	ff ff       	.word	0xffff	; ????
    634c:	ff ff       	.word	0xffff	; ????
    634e:	ff ff       	.word	0xffff	; ????
    6350:	ff ff       	.word	0xffff	; ????
    6352:	ff ff       	.word	0xffff	; ????
    6354:	ff ff       	.word	0xffff	; ????
    6356:	ff ff       	.word	0xffff	; ????
    6358:	ff ff       	.word	0xffff	; ????
    635a:	ff ff       	.word	0xffff	; ????
    635c:	ff ff       	.word	0xffff	; ????
    635e:	ff ff       	.word	0xffff	; ????
    6360:	ff ff       	.word	0xffff	; ????
    6362:	ff ff       	.word	0xffff	; ????
    6364:	ff ff       	.word	0xffff	; ????
    6366:	ff ff       	.word	0xffff	; ????
    6368:	ff ff       	.word	0xffff	; ????
    636a:	ff ff       	.word	0xffff	; ????
    636c:	ff ff       	.word	0xffff	; ????
    636e:	ff ff       	.word	0xffff	; ????
    6370:	ff ff       	.word	0xffff	; ????
    6372:	ff ff       	.word	0xffff	; ????
    6374:	ff ff       	.word	0xffff	; ????
    6376:	ff ff       	.word	0xffff	; ????
    6378:	ff ff       	.word	0xffff	; ????
    637a:	ff ff       	.word	0xffff	; ????
    637c:	ff ff       	.word	0xffff	; ????
    637e:	ff ff       	.word	0xffff	; ????
    6380:	ff ff       	.word	0xffff	; ????
    6382:	ff ff       	.word	0xffff	; ????
    6384:	ff ff       	.word	0xffff	; ????
    6386:	ff ff       	.word	0xffff	; ????
    6388:	ff ff       	.word	0xffff	; ????
    638a:	ff ff       	.word	0xffff	; ????
    638c:	ff ff       	.word	0xffff	; ????
    638e:	ff ff       	.word	0xffff	; ????
    6390:	ff ff       	.word	0xffff	; ????
    6392:	ff ff       	.word	0xffff	; ????
    6394:	ff ff       	.word	0xffff	; ????
    6396:	ff ff       	.word	0xffff	; ????
    6398:	ff ff       	.word	0xffff	; ????
    639a:	ff ff       	.word	0xffff	; ????
    639c:	ff ff       	.word	0xffff	; ????
    639e:	ff ff       	.word	0xffff	; ????
    63a0:	ff ff       	.word	0xffff	; ????
    63a2:	ff ff       	.word	0xffff	; ????
    63a4:	ff ff       	.word	0xffff	; ????
    63a6:	ff ff       	.word	0xffff	; ????
    63a8:	ff ff       	.word	0xffff	; ????
    63aa:	ff ff       	.word	0xffff	; ????
    63ac:	ff ff       	.word	0xffff	; ????
    63ae:	ff ff       	.word	0xffff	; ????
    63b0:	ff ff       	.word	0xffff	; ????
    63b2:	ff ff       	.word	0xffff	; ????
    63b4:	ff ff       	.word	0xffff	; ????
    63b6:	ff ff       	.word	0xffff	; ????
    63b8:	ff ff       	.word	0xffff	; ????
    63ba:	ff ff       	.word	0xffff	; ????
    63bc:	ff ff       	.word	0xffff	; ????
    63be:	ff ff       	.word	0xffff	; ????
    63c0:	ff ff       	.word	0xffff	; ????
    63c2:	ff ff       	.word	0xffff	; ????
    63c4:	ff ff       	.word	0xffff	; ????
    63c6:	ff ff       	.word	0xffff	; ????
    63c8:	ff ff       	.word	0xffff	; ????
    63ca:	ff ff       	.word	0xffff	; ????
    63cc:	ff ff       	.word	0xffff	; ????
    63ce:	ff ff       	.word	0xffff	; ????
    63d0:	ff ff       	.word	0xffff	; ????
    63d2:	ff ff       	.word	0xffff	; ????
    63d4:	ff ff       	.word	0xffff	; ????
    63d6:	ff ff       	.word	0xffff	; ????
    63d8:	ff ff       	.word	0xffff	; ????
    63da:	ff ff       	.word	0xffff	; ????
    63dc:	ff ff       	.word	0xffff	; ????
    63de:	ff ff       	.word	0xffff	; ????
    63e0:	ff ff       	.word	0xffff	; ????
    63e2:	ff ff       	.word	0xffff	; ????
    63e4:	ff ff       	.word	0xffff	; ????
    63e6:	ff ff       	.word	0xffff	; ????
    63e8:	ff ff       	.word	0xffff	; ????
    63ea:	ff ff       	.word	0xffff	; ????
    63ec:	ff ff       	.word	0xffff	; ????
    63ee:	ff ff       	.word	0xffff	; ????
    63f0:	ff ff       	.word	0xffff	; ????
    63f2:	ff ff       	.word	0xffff	; ????
    63f4:	ff ff       	.word	0xffff	; ????
    63f6:	ff ff       	.word	0xffff	; ????
    63f8:	ff ff       	.word	0xffff	; ????
    63fa:	ff ff       	.word	0xffff	; ????
    63fc:	ff ff       	.word	0xffff	; ????
    63fe:	ff ff       	.word	0xffff	; ????
    6400:	ff ff       	.word	0xffff	; ????
    6402:	ff ff       	.word	0xffff	; ????
    6404:	ff ff       	.word	0xffff	; ????
    6406:	ff ff       	.word	0xffff	; ????
    6408:	ff ff       	.word	0xffff	; ????
    640a:	ff ff       	.word	0xffff	; ????
    640c:	ff ff       	.word	0xffff	; ????
    640e:	ff ff       	.word	0xffff	; ????
    6410:	ff ff       	.word	0xffff	; ????
    6412:	ff ff       	.word	0xffff	; ????
    6414:	ff ff       	.word	0xffff	; ????
    6416:	ff ff       	.word	0xffff	; ????
    6418:	ff ff       	.word	0xffff	; ????
    641a:	ff ff       	.word	0xffff	; ????
    641c:	ff ff       	.word	0xffff	; ????
    641e:	ff ff       	.word	0xffff	; ????
    6420:	ff ff       	.word	0xffff	; ????
    6422:	ff ff       	.word	0xffff	; ????
    6424:	ff ff       	.word	0xffff	; ????
    6426:	ff ff       	.word	0xffff	; ????
    6428:	ff ff       	.word	0xffff	; ????
    642a:	ff ff       	.word	0xffff	; ????
    642c:	ff ff       	.word	0xffff	; ????
    642e:	ff ff       	.word	0xffff	; ????
    6430:	ff ff       	.word	0xffff	; ????
    6432:	ff ff       	.word	0xffff	; ????
    6434:	ff ff       	.word	0xffff	; ????
    6436:	ff ff       	.word	0xffff	; ????
    6438:	ff ff       	.word	0xffff	; ????
    643a:	ff ff       	.word	0xffff	; ????
    643c:	ff ff       	.word	0xffff	; ????
    643e:	ff ff       	.word	0xffff	; ????
    6440:	ff ff       	.word	0xffff	; ????
    6442:	ff ff       	.word	0xffff	; ????
    6444:	ff ff       	.word	0xffff	; ????
    6446:	ff ff       	.word	0xffff	; ????
    6448:	ff ff       	.word	0xffff	; ????
    644a:	ff ff       	.word	0xffff	; ????
    644c:	ff ff       	.word	0xffff	; ????
    644e:	ff ff       	.word	0xffff	; ????
    6450:	ff ff       	.word	0xffff	; ????
    6452:	ff ff       	.word	0xffff	; ????
    6454:	ff ff       	.word	0xffff	; ????
    6456:	ff ff       	.word	0xffff	; ????
    6458:	ff ff       	.word	0xffff	; ????
    645a:	ff ff       	.word	0xffff	; ????
    645c:	ff ff       	.word	0xffff	; ????
    645e:	ff ff       	.word	0xffff	; ????
    6460:	ff ff       	.word	0xffff	; ????
    6462:	ff ff       	.word	0xffff	; ????
    6464:	ff ff       	.word	0xffff	; ????
    6466:	ff ff       	.word	0xffff	; ????
    6468:	ff ff       	.word	0xffff	; ????
    646a:	ff ff       	.word	0xffff	; ????
    646c:	ff ff       	.word	0xffff	; ????
    646e:	ff ff       	.word	0xffff	; ????
    6470:	ff ff       	.word	0xffff	; ????
    6472:	ff ff       	.word	0xffff	; ????
    6474:	ff ff       	.word	0xffff	; ????
    6476:	ff ff       	.word	0xffff	; ????
    6478:	ff ff       	.word	0xffff	; ????
    647a:	ff ff       	.word	0xffff	; ????
    647c:	ff ff       	.word	0xffff	; ????
    647e:	ff ff       	.word	0xffff	; ????
    6480:	ff ff       	.word	0xffff	; ????
    6482:	ff ff       	.word	0xffff	; ????
    6484:	ff ff       	.word	0xffff	; ????
    6486:	ff ff       	.word	0xffff	; ????
    6488:	ff ff       	.word	0xffff	; ????
    648a:	ff ff       	.word	0xffff	; ????
    648c:	ff ff       	.word	0xffff	; ????
    648e:	ff ff       	.word	0xffff	; ????
    6490:	ff ff       	.word	0xffff	; ????
    6492:	ff ff       	.word	0xffff	; ????
    6494:	ff ff       	.word	0xffff	; ????
    6496:	ff ff       	.word	0xffff	; ????
    6498:	ff ff       	.word	0xffff	; ????
    649a:	ff ff       	.word	0xffff	; ????
    649c:	ff ff       	.word	0xffff	; ????
    649e:	ff ff       	.word	0xffff	; ????
    64a0:	ff ff       	.word	0xffff	; ????
    64a2:	ff ff       	.word	0xffff	; ????
    64a4:	ff ff       	.word	0xffff	; ????
    64a6:	ff ff       	.word	0xffff	; ????
    64a8:	ff ff       	.word	0xffff	; ????
    64aa:	ff ff       	.word	0xffff	; ????
    64ac:	ff ff       	.word	0xffff	; ????
    64ae:	ff ff       	.word	0xffff	; ????
    64b0:	ff ff       	.word	0xffff	; ????
    64b2:	ff ff       	.word	0xffff	; ????
    64b4:	ff ff       	.word	0xffff	; ????
    64b6:	ff ff       	.word	0xffff	; ????
    64b8:	ff ff       	.word	0xffff	; ????
    64ba:	ff ff       	.word	0xffff	; ????
    64bc:	ff ff       	.word	0xffff	; ????
    64be:	ff ff       	.word	0xffff	; ????
    64c0:	ff ff       	.word	0xffff	; ????
    64c2:	ff ff       	.word	0xffff	; ????
    64c4:	ff ff       	.word	0xffff	; ????
    64c6:	ff ff       	.word	0xffff	; ????
    64c8:	ff ff       	.word	0xffff	; ????
    64ca:	ff ff       	.word	0xffff	; ????
    64cc:	ff ff       	.word	0xffff	; ????
    64ce:	ff ff       	.word	0xffff	; ????
    64d0:	ff ff       	.word	0xffff	; ????
    64d2:	ff ff       	.word	0xffff	; ????
    64d4:	ff ff       	.word	0xffff	; ????
    64d6:	ff ff       	.word	0xffff	; ????
    64d8:	ff ff       	.word	0xffff	; ????
    64da:	ff ff       	.word	0xffff	; ????
    64dc:	ff ff       	.word	0xffff	; ????
    64de:	ff ff       	.word	0xffff	; ????
    64e0:	ff ff       	.word	0xffff	; ????
    64e2:	ff ff       	.word	0xffff	; ????
    64e4:	ff ff       	.word	0xffff	; ????
    64e6:	ff ff       	.word	0xffff	; ????
    64e8:	ff ff       	.word	0xffff	; ????
    64ea:	ff ff       	.word	0xffff	; ????
    64ec:	ff ff       	.word	0xffff	; ????
    64ee:	ff ff       	.word	0xffff	; ????
    64f0:	ff ff       	.word	0xffff	; ????
    64f2:	ff ff       	.word	0xffff	; ????
    64f4:	ff ff       	.word	0xffff	; ????
    64f6:	ff ff       	.word	0xffff	; ????
    64f8:	ff ff       	.word	0xffff	; ????
    64fa:	ff ff       	.word	0xffff	; ????
    64fc:	ff ff       	.word	0xffff	; ????
    64fe:	ff ff       	.word	0xffff	; ????
    6500:	ff ff       	.word	0xffff	; ????
    6502:	ff ff       	.word	0xffff	; ????
    6504:	ff ff       	.word	0xffff	; ????
    6506:	ff ff       	.word	0xffff	; ????
    6508:	ff ff       	.word	0xffff	; ????
    650a:	ff ff       	.word	0xffff	; ????
    650c:	ff ff       	.word	0xffff	; ????
    650e:	ff ff       	.word	0xffff	; ????
    6510:	ff ff       	.word	0xffff	; ????
    6512:	ff ff       	.word	0xffff	; ????
    6514:	ff ff       	.word	0xffff	; ????
    6516:	ff ff       	.word	0xffff	; ????
    6518:	ff ff       	.word	0xffff	; ????
    651a:	ff ff       	.word	0xffff	; ????
    651c:	ff ff       	.word	0xffff	; ????
    651e:	ff ff       	.word	0xffff	; ????
    6520:	ff ff       	.word	0xffff	; ????
    6522:	ff ff       	.word	0xffff	; ????
    6524:	ff ff       	.word	0xffff	; ????
    6526:	ff ff       	.word	0xffff	; ????
    6528:	ff ff       	.word	0xffff	; ????
    652a:	ff ff       	.word	0xffff	; ????
    652c:	ff ff       	.word	0xffff	; ????
    652e:	ff ff       	.word	0xffff	; ????
    6530:	ff ff       	.word	0xffff	; ????
    6532:	ff ff       	.word	0xffff	; ????
    6534:	ff ff       	.word	0xffff	; ????
    6536:	ff ff       	.word	0xffff	; ????
    6538:	ff ff       	.word	0xffff	; ????
    653a:	ff ff       	.word	0xffff	; ????
    653c:	ff ff       	.word	0xffff	; ????
    653e:	ff ff       	.word	0xffff	; ????
    6540:	ff ff       	.word	0xffff	; ????
    6542:	ff ff       	.word	0xffff	; ????
    6544:	ff ff       	.word	0xffff	; ????
    6546:	ff ff       	.word	0xffff	; ????
    6548:	ff ff       	.word	0xffff	; ????
    654a:	ff ff       	.word	0xffff	; ????
    654c:	ff ff       	.word	0xffff	; ????
    654e:	ff ff       	.word	0xffff	; ????
    6550:	ff ff       	.word	0xffff	; ????
    6552:	ff ff       	.word	0xffff	; ????
    6554:	ff ff       	.word	0xffff	; ????
    6556:	ff ff       	.word	0xffff	; ????
    6558:	ff ff       	.word	0xffff	; ????
    655a:	ff ff       	.word	0xffff	; ????
    655c:	ff ff       	.word	0xffff	; ????
    655e:	ff ff       	.word	0xffff	; ????
    6560:	ff ff       	.word	0xffff	; ????
    6562:	ff ff       	.word	0xffff	; ????
    6564:	ff ff       	.word	0xffff	; ????
    6566:	ff ff       	.word	0xffff	; ????
    6568:	ff ff       	.word	0xffff	; ????
    656a:	ff ff       	.word	0xffff	; ????
    656c:	ff ff       	.word	0xffff	; ????
    656e:	ff ff       	.word	0xffff	; ????
    6570:	ff ff       	.word	0xffff	; ????
    6572:	ff ff       	.word	0xffff	; ????
    6574:	ff ff       	.word	0xffff	; ????
    6576:	ff ff       	.word	0xffff	; ????
    6578:	ff ff       	.word	0xffff	; ????
    657a:	ff ff       	.word	0xffff	; ????
    657c:	ff ff       	.word	0xffff	; ????
    657e:	ff ff       	.word	0xffff	; ????
    6580:	ff ff       	.word	0xffff	; ????
    6582:	ff ff       	.word	0xffff	; ????
    6584:	ff ff       	.word	0xffff	; ????
    6586:	ff ff       	.word	0xffff	; ????
    6588:	ff ff       	.word	0xffff	; ????
    658a:	ff ff       	.word	0xffff	; ????
    658c:	ff ff       	.word	0xffff	; ????
    658e:	ff ff       	.word	0xffff	; ????
    6590:	ff ff       	.word	0xffff	; ????
    6592:	ff ff       	.word	0xffff	; ????
    6594:	ff ff       	.word	0xffff	; ????
    6596:	ff ff       	.word	0xffff	; ????
    6598:	ff ff       	.word	0xffff	; ????
    659a:	ff ff       	.word	0xffff	; ????
    659c:	ff ff       	.word	0xffff	; ????
    659e:	ff ff       	.word	0xffff	; ????
    65a0:	ff ff       	.word	0xffff	; ????
    65a2:	ff ff       	.word	0xffff	; ????
    65a4:	ff ff       	.word	0xffff	; ????
    65a6:	ff ff       	.word	0xffff	; ????
    65a8:	ff ff       	.word	0xffff	; ????
    65aa:	ff ff       	.word	0xffff	; ????
    65ac:	ff ff       	.word	0xffff	; ????
    65ae:	ff ff       	.word	0xffff	; ????
    65b0:	ff ff       	.word	0xffff	; ????
    65b2:	ff ff       	.word	0xffff	; ????
    65b4:	ff ff       	.word	0xffff	; ????
    65b6:	ff ff       	.word	0xffff	; ????
    65b8:	ff ff       	.word	0xffff	; ????
    65ba:	ff ff       	.word	0xffff	; ????
    65bc:	ff ff       	.word	0xffff	; ????
    65be:	ff ff       	.word	0xffff	; ????
    65c0:	ff ff       	.word	0xffff	; ????
    65c2:	ff ff       	.word	0xffff	; ????
    65c4:	ff ff       	.word	0xffff	; ????
    65c6:	ff ff       	.word	0xffff	; ????
    65c8:	ff ff       	.word	0xffff	; ????
    65ca:	ff ff       	.word	0xffff	; ????
    65cc:	ff ff       	.word	0xffff	; ????
    65ce:	ff ff       	.word	0xffff	; ????
    65d0:	ff ff       	.word	0xffff	; ????
    65d2:	ff ff       	.word	0xffff	; ????
    65d4:	ff ff       	.word	0xffff	; ????
    65d6:	ff ff       	.word	0xffff	; ????
    65d8:	ff ff       	.word	0xffff	; ????
    65da:	ff ff       	.word	0xffff	; ????
    65dc:	ff ff       	.word	0xffff	; ????
    65de:	ff ff       	.word	0xffff	; ????
    65e0:	ff ff       	.word	0xffff	; ????
    65e2:	ff ff       	.word	0xffff	; ????
    65e4:	ff ff       	.word	0xffff	; ????
    65e6:	ff ff       	.word	0xffff	; ????
    65e8:	ff ff       	.word	0xffff	; ????
    65ea:	ff ff       	.word	0xffff	; ????
    65ec:	ff ff       	.word	0xffff	; ????
    65ee:	ff ff       	.word	0xffff	; ????
    65f0:	ff ff       	.word	0xffff	; ????
    65f2:	ff ff       	.word	0xffff	; ????
    65f4:	ff ff       	.word	0xffff	; ????
    65f6:	ff ff       	.word	0xffff	; ????
    65f8:	ff ff       	.word	0xffff	; ????
    65fa:	ff ff       	.word	0xffff	; ????
    65fc:	ff ff       	.word	0xffff	; ????
    65fe:	ff ff       	.word	0xffff	; ????
    6600:	ff ff       	.word	0xffff	; ????
    6602:	ff ff       	.word	0xffff	; ????
    6604:	ff ff       	.word	0xffff	; ????
    6606:	ff ff       	.word	0xffff	; ????
    6608:	ff ff       	.word	0xffff	; ????
    660a:	ff ff       	.word	0xffff	; ????
    660c:	ff ff       	.word	0xffff	; ????
    660e:	ff ff       	.word	0xffff	; ????
    6610:	ff ff       	.word	0xffff	; ????
    6612:	ff ff       	.word	0xffff	; ????
    6614:	ff ff       	.word	0xffff	; ????
    6616:	ff ff       	.word	0xffff	; ????
    6618:	ff ff       	.word	0xffff	; ????
    661a:	ff ff       	.word	0xffff	; ????
    661c:	ff ff       	.word	0xffff	; ????
    661e:	ff ff       	.word	0xffff	; ????
    6620:	ff ff       	.word	0xffff	; ????
    6622:	ff ff       	.word	0xffff	; ????
    6624:	ff ff       	.word	0xffff	; ????
    6626:	ff ff       	.word	0xffff	; ????
    6628:	ff ff       	.word	0xffff	; ????
    662a:	ff ff       	.word	0xffff	; ????
    662c:	ff ff       	.word	0xffff	; ????
    662e:	ff ff       	.word	0xffff	; ????
    6630:	ff ff       	.word	0xffff	; ????
    6632:	ff ff       	.word	0xffff	; ????
    6634:	ff ff       	.word	0xffff	; ????
    6636:	ff ff       	.word	0xffff	; ????
    6638:	ff ff       	.word	0xffff	; ????
    663a:	ff ff       	.word	0xffff	; ????
    663c:	ff ff       	.word	0xffff	; ????
    663e:	ff ff       	.word	0xffff	; ????
    6640:	ff ff       	.word	0xffff	; ????
    6642:	ff ff       	.word	0xffff	; ????
    6644:	ff ff       	.word	0xffff	; ????
    6646:	ff ff       	.word	0xffff	; ????
    6648:	ff ff       	.word	0xffff	; ????
    664a:	ff ff       	.word	0xffff	; ????
    664c:	ff ff       	.word	0xffff	; ????
    664e:	ff ff       	.word	0xffff	; ????
    6650:	ff ff       	.word	0xffff	; ????
    6652:	ff ff       	.word	0xffff	; ????
    6654:	ff ff       	.word	0xffff	; ????
    6656:	ff ff       	.word	0xffff	; ????
    6658:	ff ff       	.word	0xffff	; ????
    665a:	ff ff       	.word	0xffff	; ????
    665c:	ff ff       	.word	0xffff	; ????
    665e:	ff ff       	.word	0xffff	; ????
    6660:	ff ff       	.word	0xffff	; ????
    6662:	ff ff       	.word	0xffff	; ????
    6664:	ff ff       	.word	0xffff	; ????
    6666:	ff ff       	.word	0xffff	; ????
    6668:	ff ff       	.word	0xffff	; ????
    666a:	ff ff       	.word	0xffff	; ????
    666c:	ff ff       	.word	0xffff	; ????
    666e:	ff ff       	.word	0xffff	; ????
    6670:	ff ff       	.word	0xffff	; ????
    6672:	ff ff       	.word	0xffff	; ????
    6674:	ff ff       	.word	0xffff	; ????
    6676:	ff ff       	.word	0xffff	; ????
    6678:	ff ff       	.word	0xffff	; ????
    667a:	ff ff       	.word	0xffff	; ????
    667c:	ff ff       	.word	0xffff	; ????
    667e:	ff ff       	.word	0xffff	; ????
    6680:	ff ff       	.word	0xffff	; ????
    6682:	ff ff       	.word	0xffff	; ????
    6684:	ff ff       	.word	0xffff	; ????
    6686:	ff ff       	.word	0xffff	; ????
    6688:	ff ff       	.word	0xffff	; ????
    668a:	ff ff       	.word	0xffff	; ????
    668c:	ff ff       	.word	0xffff	; ????
    668e:	ff ff       	.word	0xffff	; ????
    6690:	ff ff       	.word	0xffff	; ????
    6692:	ff ff       	.word	0xffff	; ????
    6694:	ff ff       	.word	0xffff	; ????
    6696:	ff ff       	.word	0xffff	; ????
    6698:	ff ff       	.word	0xffff	; ????
    669a:	ff ff       	.word	0xffff	; ????
    669c:	ff ff       	.word	0xffff	; ????
    669e:	ff ff       	.word	0xffff	; ????
    66a0:	ff ff       	.word	0xffff	; ????
    66a2:	ff ff       	.word	0xffff	; ????
    66a4:	ff ff       	.word	0xffff	; ????
    66a6:	ff ff       	.word	0xffff	; ????
    66a8:	ff ff       	.word	0xffff	; ????
    66aa:	ff ff       	.word	0xffff	; ????
    66ac:	ff ff       	.word	0xffff	; ????
    66ae:	ff ff       	.word	0xffff	; ????
    66b0:	ff ff       	.word	0xffff	; ????
    66b2:	ff ff       	.word	0xffff	; ????
    66b4:	ff ff       	.word	0xffff	; ????
    66b6:	ff ff       	.word	0xffff	; ????
    66b8:	ff ff       	.word	0xffff	; ????
    66ba:	ff ff       	.word	0xffff	; ????
    66bc:	ff ff       	.word	0xffff	; ????
    66be:	ff ff       	.word	0xffff	; ????
    66c0:	ff ff       	.word	0xffff	; ????
    66c2:	ff ff       	.word	0xffff	; ????
    66c4:	ff ff       	.word	0xffff	; ????
    66c6:	ff ff       	.word	0xffff	; ????
    66c8:	ff ff       	.word	0xffff	; ????
    66ca:	ff ff       	.word	0xffff	; ????
    66cc:	ff ff       	.word	0xffff	; ????
    66ce:	ff ff       	.word	0xffff	; ????
    66d0:	ff ff       	.word	0xffff	; ????
    66d2:	ff ff       	.word	0xffff	; ????
    66d4:	ff ff       	.word	0xffff	; ????
    66d6:	ff ff       	.word	0xffff	; ????
    66d8:	ff ff       	.word	0xffff	; ????
    66da:	ff ff       	.word	0xffff	; ????
    66dc:	ff ff       	.word	0xffff	; ????
    66de:	ff ff       	.word	0xffff	; ????
    66e0:	ff ff       	.word	0xffff	; ????
    66e2:	ff ff       	.word	0xffff	; ????
    66e4:	ff ff       	.word	0xffff	; ????
    66e6:	ff ff       	.word	0xffff	; ????
    66e8:	ff ff       	.word	0xffff	; ????
    66ea:	ff ff       	.word	0xffff	; ????
    66ec:	ff ff       	.word	0xffff	; ????
    66ee:	ff ff       	.word	0xffff	; ????
    66f0:	ff ff       	.word	0xffff	; ????
    66f2:	ff ff       	.word	0xffff	; ????
    66f4:	ff ff       	.word	0xffff	; ????
    66f6:	ff ff       	.word	0xffff	; ????
    66f8:	ff ff       	.word	0xffff	; ????
    66fa:	ff ff       	.word	0xffff	; ????
    66fc:	ff ff       	.word	0xffff	; ????
    66fe:	ff ff       	.word	0xffff	; ????
    6700:	ff ff       	.word	0xffff	; ????
    6702:	ff ff       	.word	0xffff	; ????
    6704:	ff ff       	.word	0xffff	; ????
    6706:	ff ff       	.word	0xffff	; ????
    6708:	ff ff       	.word	0xffff	; ????
    670a:	ff ff       	.word	0xffff	; ????
    670c:	ff ff       	.word	0xffff	; ????
    670e:	ff ff       	.word	0xffff	; ????
    6710:	ff ff       	.word	0xffff	; ????
    6712:	ff ff       	.word	0xffff	; ????
    6714:	ff ff       	.word	0xffff	; ????
    6716:	ff ff       	.word	0xffff	; ????
    6718:	ff ff       	.word	0xffff	; ????
    671a:	ff ff       	.word	0xffff	; ????
    671c:	ff ff       	.word	0xffff	; ????
    671e:	ff ff       	.word	0xffff	; ????
    6720:	ff ff       	.word	0xffff	; ????
    6722:	ff ff       	.word	0xffff	; ????
    6724:	ff ff       	.word	0xffff	; ????
    6726:	ff ff       	.word	0xffff	; ????
    6728:	ff ff       	.word	0xffff	; ????
    672a:	ff ff       	.word	0xffff	; ????
    672c:	ff ff       	.word	0xffff	; ????
    672e:	ff ff       	.word	0xffff	; ????
    6730:	ff ff       	.word	0xffff	; ????
    6732:	ff ff       	.word	0xffff	; ????
    6734:	ff ff       	.word	0xffff	; ????
    6736:	ff ff       	.word	0xffff	; ????
    6738:	ff ff       	.word	0xffff	; ????
    673a:	ff ff       	.word	0xffff	; ????
    673c:	ff ff       	.word	0xffff	; ????
    673e:	ff ff       	.word	0xffff	; ????
    6740:	ff ff       	.word	0xffff	; ????
    6742:	ff ff       	.word	0xffff	; ????
    6744:	ff ff       	.word	0xffff	; ????
    6746:	ff ff       	.word	0xffff	; ????
    6748:	ff ff       	.word	0xffff	; ????
    674a:	ff ff       	.word	0xffff	; ????
    674c:	ff ff       	.word	0xffff	; ????
    674e:	ff ff       	.word	0xffff	; ????
    6750:	ff ff       	.word	0xffff	; ????
    6752:	ff ff       	.word	0xffff	; ????
    6754:	ff ff       	.word	0xffff	; ????
    6756:	ff ff       	.word	0xffff	; ????
    6758:	ff ff       	.word	0xffff	; ????
    675a:	ff ff       	.word	0xffff	; ????
    675c:	ff ff       	.word	0xffff	; ????
    675e:	ff ff       	.word	0xffff	; ????
    6760:	ff ff       	.word	0xffff	; ????
    6762:	ff ff       	.word	0xffff	; ????
    6764:	ff ff       	.word	0xffff	; ????
    6766:	ff ff       	.word	0xffff	; ????
    6768:	ff ff       	.word	0xffff	; ????
    676a:	ff ff       	.word	0xffff	; ????
    676c:	ff ff       	.word	0xffff	; ????
    676e:	ff ff       	.word	0xffff	; ????
    6770:	ff ff       	.word	0xffff	; ????
    6772:	ff ff       	.word	0xffff	; ????
    6774:	ff ff       	.word	0xffff	; ????
    6776:	ff ff       	.word	0xffff	; ????
    6778:	ff ff       	.word	0xffff	; ????
    677a:	ff ff       	.word	0xffff	; ????
    677c:	ff ff       	.word	0xffff	; ????
    677e:	ff ff       	.word	0xffff	; ????
    6780:	ff ff       	.word	0xffff	; ????
    6782:	ff ff       	.word	0xffff	; ????
    6784:	ff ff       	.word	0xffff	; ????
    6786:	ff ff       	.word	0xffff	; ????
    6788:	ff ff       	.word	0xffff	; ????
    678a:	ff ff       	.word	0xffff	; ????
    678c:	ff ff       	.word	0xffff	; ????
    678e:	ff ff       	.word	0xffff	; ????
    6790:	ff ff       	.word	0xffff	; ????
    6792:	ff ff       	.word	0xffff	; ????
    6794:	ff ff       	.word	0xffff	; ????
    6796:	ff ff       	.word	0xffff	; ????
    6798:	ff ff       	.word	0xffff	; ????
    679a:	ff ff       	.word	0xffff	; ????
    679c:	ff ff       	.word	0xffff	; ????
    679e:	ff ff       	.word	0xffff	; ????
    67a0:	ff ff       	.word	0xffff	; ????
    67a2:	ff ff       	.word	0xffff	; ????
    67a4:	ff ff       	.word	0xffff	; ????
    67a6:	ff ff       	.word	0xffff	; ????
    67a8:	ff ff       	.word	0xffff	; ????
    67aa:	ff ff       	.word	0xffff	; ????
    67ac:	ff ff       	.word	0xffff	; ????
    67ae:	ff ff       	.word	0xffff	; ????
    67b0:	ff ff       	.word	0xffff	; ????
    67b2:	ff ff       	.word	0xffff	; ????
    67b4:	ff ff       	.word	0xffff	; ????
    67b6:	ff ff       	.word	0xffff	; ????
    67b8:	ff ff       	.word	0xffff	; ????
    67ba:	ff ff       	.word	0xffff	; ????
    67bc:	ff ff       	.word	0xffff	; ????
    67be:	ff ff       	.word	0xffff	; ????
    67c0:	ff ff       	.word	0xffff	; ????
    67c2:	ff ff       	.word	0xffff	; ????
    67c4:	ff ff       	.word	0xffff	; ????
    67c6:	ff ff       	.word	0xffff	; ????
    67c8:	ff ff       	.word	0xffff	; ????
    67ca:	ff ff       	.word	0xffff	; ????
    67cc:	ff ff       	.word	0xffff	; ????
    67ce:	ff ff       	.word	0xffff	; ????
    67d0:	ff ff       	.word	0xffff	; ????
    67d2:	ff ff       	.word	0xffff	; ????
    67d4:	ff ff       	.word	0xffff	; ????
    67d6:	ff ff       	.word	0xffff	; ????
    67d8:	ff ff       	.word	0xffff	; ????
    67da:	ff ff       	.word	0xffff	; ????
    67dc:	ff ff       	.word	0xffff	; ????
    67de:	ff ff       	.word	0xffff	; ????
    67e0:	ff ff       	.word	0xffff	; ????
    67e2:	ff ff       	.word	0xffff	; ????
    67e4:	ff ff       	.word	0xffff	; ????
    67e6:	ff ff       	.word	0xffff	; ????
    67e8:	ff ff       	.word	0xffff	; ????
    67ea:	ff ff       	.word	0xffff	; ????
    67ec:	ff ff       	.word	0xffff	; ????
    67ee:	ff ff       	.word	0xffff	; ????
    67f0:	ff ff       	.word	0xffff	; ????
    67f2:	ff ff       	.word	0xffff	; ????
    67f4:	ff ff       	.word	0xffff	; ????
    67f6:	ff ff       	.word	0xffff	; ????
    67f8:	ff ff       	.word	0xffff	; ????
    67fa:	ff ff       	.word	0xffff	; ????
    67fc:	ff ff       	.word	0xffff	; ????
    67fe:	ff ff       	.word	0xffff	; ????
    6800:	ff ff       	.word	0xffff	; ????
    6802:	ff ff       	.word	0xffff	; ????
    6804:	ff ff       	.word	0xffff	; ????
    6806:	ff ff       	.word	0xffff	; ????
    6808:	ff ff       	.word	0xffff	; ????
    680a:	ff ff       	.word	0xffff	; ????
    680c:	ff ff       	.word	0xffff	; ????
    680e:	ff ff       	.word	0xffff	; ????
    6810:	ff ff       	.word	0xffff	; ????
    6812:	ff ff       	.word	0xffff	; ????
    6814:	ff ff       	.word	0xffff	; ????
    6816:	ff ff       	.word	0xffff	; ????
    6818:	ff ff       	.word	0xffff	; ????
    681a:	ff ff       	.word	0xffff	; ????
    681c:	ff ff       	.word	0xffff	; ????
    681e:	ff ff       	.word	0xffff	; ????
    6820:	ff ff       	.word	0xffff	; ????
    6822:	ff ff       	.word	0xffff	; ????
    6824:	ff ff       	.word	0xffff	; ????
    6826:	ff ff       	.word	0xffff	; ????
    6828:	ff ff       	.word	0xffff	; ????
    682a:	ff ff       	.word	0xffff	; ????
    682c:	ff ff       	.word	0xffff	; ????
    682e:	ff ff       	.word	0xffff	; ????
    6830:	ff ff       	.word	0xffff	; ????
    6832:	ff ff       	.word	0xffff	; ????
    6834:	ff ff       	.word	0xffff	; ????
    6836:	ff ff       	.word	0xffff	; ????
    6838:	ff ff       	.word	0xffff	; ????
    683a:	ff ff       	.word	0xffff	; ????
    683c:	ff ff       	.word	0xffff	; ????
    683e:	ff ff       	.word	0xffff	; ????
    6840:	ff ff       	.word	0xffff	; ????
    6842:	ff ff       	.word	0xffff	; ????
    6844:	ff ff       	.word	0xffff	; ????
    6846:	ff ff       	.word	0xffff	; ????
    6848:	ff ff       	.word	0xffff	; ????
    684a:	ff ff       	.word	0xffff	; ????
    684c:	ff ff       	.word	0xffff	; ????
    684e:	ff ff       	.word	0xffff	; ????
    6850:	ff ff       	.word	0xffff	; ????
    6852:	ff ff       	.word	0xffff	; ????
    6854:	ff ff       	.word	0xffff	; ????
    6856:	ff ff       	.word	0xffff	; ????
    6858:	ff ff       	.word	0xffff	; ????
    685a:	ff ff       	.word	0xffff	; ????
    685c:	ff ff       	.word	0xffff	; ????
    685e:	ff ff       	.word	0xffff	; ????
    6860:	ff ff       	.word	0xffff	; ????
    6862:	ff ff       	.word	0xffff	; ????
    6864:	ff ff       	.word	0xffff	; ????
    6866:	ff ff       	.word	0xffff	; ????
    6868:	ff ff       	.word	0xffff	; ????
    686a:	ff ff       	.word	0xffff	; ????
    686c:	ff ff       	.word	0xffff	; ????
    686e:	ff ff       	.word	0xffff	; ????
    6870:	ff ff       	.word	0xffff	; ????
    6872:	ff ff       	.word	0xffff	; ????
    6874:	ff ff       	.word	0xffff	; ????
    6876:	ff ff       	.word	0xffff	; ????
    6878:	ff ff       	.word	0xffff	; ????
    687a:	ff ff       	.word	0xffff	; ????
    687c:	ff ff       	.word	0xffff	; ????
    687e:	ff ff       	.word	0xffff	; ????
    6880:	ff ff       	.word	0xffff	; ????
    6882:	ff ff       	.word	0xffff	; ????
    6884:	ff ff       	.word	0xffff	; ????
    6886:	ff ff       	.word	0xffff	; ????
    6888:	ff ff       	.word	0xffff	; ????
    688a:	ff ff       	.word	0xffff	; ????
    688c:	ff ff       	.word	0xffff	; ????
    688e:	ff ff       	.word	0xffff	; ????
    6890:	ff ff       	.word	0xffff	; ????
    6892:	ff ff       	.word	0xffff	; ????
    6894:	ff ff       	.word	0xffff	; ????
    6896:	ff ff       	.word	0xffff	; ????
    6898:	ff ff       	.word	0xffff	; ????
    689a:	ff ff       	.word	0xffff	; ????
    689c:	ff ff       	.word	0xffff	; ????
    689e:	ff ff       	.word	0xffff	; ????
    68a0:	ff ff       	.word	0xffff	; ????
    68a2:	ff ff       	.word	0xffff	; ????
    68a4:	ff ff       	.word	0xffff	; ????
    68a6:	ff ff       	.word	0xffff	; ????
    68a8:	ff ff       	.word	0xffff	; ????
    68aa:	ff ff       	.word	0xffff	; ????
    68ac:	ff ff       	.word	0xffff	; ????
    68ae:	ff ff       	.word	0xffff	; ????
    68b0:	ff ff       	.word	0xffff	; ????
    68b2:	ff ff       	.word	0xffff	; ????
    68b4:	ff ff       	.word	0xffff	; ????
    68b6:	ff ff       	.word	0xffff	; ????
    68b8:	ff ff       	.word	0xffff	; ????
    68ba:	ff ff       	.word	0xffff	; ????
    68bc:	ff ff       	.word	0xffff	; ????
    68be:	ff ff       	.word	0xffff	; ????
    68c0:	ff ff       	.word	0xffff	; ????
    68c2:	ff ff       	.word	0xffff	; ????
    68c4:	ff ff       	.word	0xffff	; ????
    68c6:	ff ff       	.word	0xffff	; ????
    68c8:	ff ff       	.word	0xffff	; ????
    68ca:	ff ff       	.word	0xffff	; ????
    68cc:	ff ff       	.word	0xffff	; ????
    68ce:	ff ff       	.word	0xffff	; ????
    68d0:	ff ff       	.word	0xffff	; ????
    68d2:	ff ff       	.word	0xffff	; ????
    68d4:	ff ff       	.word	0xffff	; ????
    68d6:	ff ff       	.word	0xffff	; ????
    68d8:	ff ff       	.word	0xffff	; ????
    68da:	ff ff       	.word	0xffff	; ????
    68dc:	ff ff       	.word	0xffff	; ????
    68de:	ff ff       	.word	0xffff	; ????
    68e0:	ff ff       	.word	0xffff	; ????
    68e2:	ff ff       	.word	0xffff	; ????
    68e4:	ff ff       	.word	0xffff	; ????
    68e6:	ff ff       	.word	0xffff	; ????
    68e8:	ff ff       	.word	0xffff	; ????
    68ea:	ff ff       	.word	0xffff	; ????
    68ec:	ff ff       	.word	0xffff	; ????
    68ee:	ff ff       	.word	0xffff	; ????
    68f0:	ff ff       	.word	0xffff	; ????
    68f2:	ff ff       	.word	0xffff	; ????
    68f4:	ff ff       	.word	0xffff	; ????
    68f6:	ff ff       	.word	0xffff	; ????
    68f8:	ff ff       	.word	0xffff	; ????
    68fa:	ff ff       	.word	0xffff	; ????
    68fc:	ff ff       	.word	0xffff	; ????
    68fe:	ff ff       	.word	0xffff	; ????
    6900:	ff ff       	.word	0xffff	; ????
    6902:	ff ff       	.word	0xffff	; ????
    6904:	ff ff       	.word	0xffff	; ????
    6906:	ff ff       	.word	0xffff	; ????
    6908:	ff ff       	.word	0xffff	; ????
    690a:	ff ff       	.word	0xffff	; ????
    690c:	ff ff       	.word	0xffff	; ????
    690e:	ff ff       	.word	0xffff	; ????
    6910:	ff ff       	.word	0xffff	; ????
    6912:	ff ff       	.word	0xffff	; ????
    6914:	ff ff       	.word	0xffff	; ????
    6916:	ff ff       	.word	0xffff	; ????
    6918:	ff ff       	.word	0xffff	; ????
    691a:	ff ff       	.word	0xffff	; ????
    691c:	ff ff       	.word	0xffff	; ????
    691e:	ff ff       	.word	0xffff	; ????
    6920:	ff ff       	.word	0xffff	; ????
    6922:	ff ff       	.word	0xffff	; ????
    6924:	ff ff       	.word	0xffff	; ????
    6926:	ff ff       	.word	0xffff	; ????
    6928:	ff ff       	.word	0xffff	; ????
    692a:	ff ff       	.word	0xffff	; ????
    692c:	ff ff       	.word	0xffff	; ????
    692e:	ff ff       	.word	0xffff	; ????
    6930:	ff ff       	.word	0xffff	; ????
    6932:	ff ff       	.word	0xffff	; ????
    6934:	ff ff       	.word	0xffff	; ????
    6936:	ff ff       	.word	0xffff	; ????
    6938:	ff ff       	.word	0xffff	; ????
    693a:	ff ff       	.word	0xffff	; ????
    693c:	ff ff       	.word	0xffff	; ????
    693e:	ff ff       	.word	0xffff	; ????
    6940:	ff ff       	.word	0xffff	; ????
    6942:	ff ff       	.word	0xffff	; ????
    6944:	ff ff       	.word	0xffff	; ????
    6946:	ff ff       	.word	0xffff	; ????
    6948:	ff ff       	.word	0xffff	; ????
    694a:	ff ff       	.word	0xffff	; ????
    694c:	ff ff       	.word	0xffff	; ????
    694e:	ff ff       	.word	0xffff	; ????
    6950:	ff ff       	.word	0xffff	; ????
    6952:	ff ff       	.word	0xffff	; ????
    6954:	ff ff       	.word	0xffff	; ????
    6956:	ff ff       	.word	0xffff	; ????
    6958:	ff ff       	.word	0xffff	; ????
    695a:	ff ff       	.word	0xffff	; ????
    695c:	ff ff       	.word	0xffff	; ????
    695e:	ff ff       	.word	0xffff	; ????
    6960:	ff ff       	.word	0xffff	; ????
    6962:	ff ff       	.word	0xffff	; ????
    6964:	ff ff       	.word	0xffff	; ????
    6966:	ff ff       	.word	0xffff	; ????
    6968:	ff ff       	.word	0xffff	; ????
    696a:	ff ff       	.word	0xffff	; ????
    696c:	ff ff       	.word	0xffff	; ????
    696e:	ff ff       	.word	0xffff	; ????
    6970:	ff ff       	.word	0xffff	; ????
    6972:	ff ff       	.word	0xffff	; ????
    6974:	ff ff       	.word	0xffff	; ????
    6976:	ff ff       	.word	0xffff	; ????
    6978:	ff ff       	.word	0xffff	; ????
    697a:	ff ff       	.word	0xffff	; ????
    697c:	ff ff       	.word	0xffff	; ????
    697e:	ff ff       	.word	0xffff	; ????
    6980:	ff ff       	.word	0xffff	; ????
    6982:	ff ff       	.word	0xffff	; ????
    6984:	ff ff       	.word	0xffff	; ????
    6986:	ff ff       	.word	0xffff	; ????
    6988:	ff ff       	.word	0xffff	; ????
    698a:	ff ff       	.word	0xffff	; ????
    698c:	ff ff       	.word	0xffff	; ????
    698e:	ff ff       	.word	0xffff	; ????
    6990:	ff ff       	.word	0xffff	; ????
    6992:	ff ff       	.word	0xffff	; ????
    6994:	ff ff       	.word	0xffff	; ????
    6996:	ff ff       	.word	0xffff	; ????
    6998:	ff ff       	.word	0xffff	; ????
    699a:	ff ff       	.word	0xffff	; ????
    699c:	ff ff       	.word	0xffff	; ????
    699e:	ff ff       	.word	0xffff	; ????
    69a0:	ff ff       	.word	0xffff	; ????
    69a2:	ff ff       	.word	0xffff	; ????
    69a4:	ff ff       	.word	0xffff	; ????
    69a6:	ff ff       	.word	0xffff	; ????
    69a8:	ff ff       	.word	0xffff	; ????
    69aa:	ff ff       	.word	0xffff	; ????
    69ac:	ff ff       	.word	0xffff	; ????
    69ae:	ff ff       	.word	0xffff	; ????
    69b0:	ff ff       	.word	0xffff	; ????
    69b2:	ff ff       	.word	0xffff	; ????
    69b4:	ff ff       	.word	0xffff	; ????
    69b6:	ff ff       	.word	0xffff	; ????
    69b8:	ff ff       	.word	0xffff	; ????
    69ba:	ff ff       	.word	0xffff	; ????
    69bc:	ff ff       	.word	0xffff	; ????
    69be:	ff ff       	.word	0xffff	; ????
    69c0:	ff ff       	.word	0xffff	; ????
    69c2:	ff ff       	.word	0xffff	; ????
    69c4:	ff ff       	.word	0xffff	; ????
    69c6:	ff ff       	.word	0xffff	; ????
    69c8:	ff ff       	.word	0xffff	; ????
    69ca:	ff ff       	.word	0xffff	; ????
    69cc:	ff ff       	.word	0xffff	; ????
    69ce:	ff ff       	.word	0xffff	; ????
    69d0:	ff ff       	.word	0xffff	; ????
    69d2:	ff ff       	.word	0xffff	; ????
    69d4:	ff ff       	.word	0xffff	; ????
    69d6:	ff ff       	.word	0xffff	; ????
    69d8:	ff ff       	.word	0xffff	; ????
    69da:	ff ff       	.word	0xffff	; ????
    69dc:	ff ff       	.word	0xffff	; ????
    69de:	ff ff       	.word	0xffff	; ????
    69e0:	ff ff       	.word	0xffff	; ????
    69e2:	ff ff       	.word	0xffff	; ????
    69e4:	ff ff       	.word	0xffff	; ????
    69e6:	ff ff       	.word	0xffff	; ????
    69e8:	ff ff       	.word	0xffff	; ????
    69ea:	ff ff       	.word	0xffff	; ????
    69ec:	ff ff       	.word	0xffff	; ????
    69ee:	ff ff       	.word	0xffff	; ????
    69f0:	ff ff       	.word	0xffff	; ????
    69f2:	ff ff       	.word	0xffff	; ????
    69f4:	ff ff       	.word	0xffff	; ????
    69f6:	ff ff       	.word	0xffff	; ????
    69f8:	ff ff       	.word	0xffff	; ????
    69fa:	ff ff       	.word	0xffff	; ????
    69fc:	ff ff       	.word	0xffff	; ????
    69fe:	ff ff       	.word	0xffff	; ????
    6a00:	ff ff       	.word	0xffff	; ????
    6a02:	ff ff       	.word	0xffff	; ????
    6a04:	ff ff       	.word	0xffff	; ????
    6a06:	ff ff       	.word	0xffff	; ????
    6a08:	ff ff       	.word	0xffff	; ????
    6a0a:	ff ff       	.word	0xffff	; ????
    6a0c:	ff ff       	.word	0xffff	; ????
    6a0e:	ff ff       	.word	0xffff	; ????
    6a10:	ff ff       	.word	0xffff	; ????
    6a12:	ff ff       	.word	0xffff	; ????
    6a14:	ff ff       	.word	0xffff	; ????
    6a16:	ff ff       	.word	0xffff	; ????
    6a18:	ff ff       	.word	0xffff	; ????
    6a1a:	ff ff       	.word	0xffff	; ????
    6a1c:	ff ff       	.word	0xffff	; ????
    6a1e:	ff ff       	.word	0xffff	; ????
    6a20:	ff ff       	.word	0xffff	; ????
    6a22:	ff ff       	.word	0xffff	; ????
    6a24:	ff ff       	.word	0xffff	; ????
    6a26:	ff ff       	.word	0xffff	; ????
    6a28:	ff ff       	.word	0xffff	; ????
    6a2a:	ff ff       	.word	0xffff	; ????
    6a2c:	ff ff       	.word	0xffff	; ????
    6a2e:	ff ff       	.word	0xffff	; ????
    6a30:	ff ff       	.word	0xffff	; ????
    6a32:	ff ff       	.word	0xffff	; ????
    6a34:	ff ff       	.word	0xffff	; ????
    6a36:	ff ff       	.word	0xffff	; ????
    6a38:	ff ff       	.word	0xffff	; ????
    6a3a:	ff ff       	.word	0xffff	; ????
    6a3c:	ff ff       	.word	0xffff	; ????
    6a3e:	ff ff       	.word	0xffff	; ????
    6a40:	ff ff       	.word	0xffff	; ????
    6a42:	ff ff       	.word	0xffff	; ????
    6a44:	ff ff       	.word	0xffff	; ????
    6a46:	ff ff       	.word	0xffff	; ????
    6a48:	ff ff       	.word	0xffff	; ????
    6a4a:	ff ff       	.word	0xffff	; ????
    6a4c:	ff ff       	.word	0xffff	; ????
    6a4e:	ff ff       	.word	0xffff	; ????
    6a50:	ff ff       	.word	0xffff	; ????
    6a52:	ff ff       	.word	0xffff	; ????
    6a54:	ff ff       	.word	0xffff	; ????
    6a56:	ff ff       	.word	0xffff	; ????
    6a58:	ff ff       	.word	0xffff	; ????
    6a5a:	ff ff       	.word	0xffff	; ????
    6a5c:	ff ff       	.word	0xffff	; ????
    6a5e:	ff ff       	.word	0xffff	; ????
    6a60:	ff ff       	.word	0xffff	; ????
    6a62:	ff ff       	.word	0xffff	; ????
    6a64:	ff ff       	.word	0xffff	; ????
    6a66:	ff ff       	.word	0xffff	; ????
    6a68:	ff ff       	.word	0xffff	; ????
    6a6a:	ff ff       	.word	0xffff	; ????
    6a6c:	ff ff       	.word	0xffff	; ????
    6a6e:	ff ff       	.word	0xffff	; ????
    6a70:	ff ff       	.word	0xffff	; ????
    6a72:	ff ff       	.word	0xffff	; ????
    6a74:	ff ff       	.word	0xffff	; ????
    6a76:	ff ff       	.word	0xffff	; ????
    6a78:	ff ff       	.word	0xffff	; ????
    6a7a:	ff ff       	.word	0xffff	; ????
    6a7c:	ff ff       	.word	0xffff	; ????
    6a7e:	ff ff       	.word	0xffff	; ????
    6a80:	ff ff       	.word	0xffff	; ????
    6a82:	ff ff       	.word	0xffff	; ????
    6a84:	ff ff       	.word	0xffff	; ????
    6a86:	ff ff       	.word	0xffff	; ????
    6a88:	ff ff       	.word	0xffff	; ????
    6a8a:	ff ff       	.word	0xffff	; ????
    6a8c:	ff ff       	.word	0xffff	; ????
    6a8e:	ff ff       	.word	0xffff	; ????
    6a90:	ff ff       	.word	0xffff	; ????
    6a92:	ff ff       	.word	0xffff	; ????
    6a94:	ff ff       	.word	0xffff	; ????
    6a96:	ff ff       	.word	0xffff	; ????
    6a98:	ff ff       	.word	0xffff	; ????
    6a9a:	ff ff       	.word	0xffff	; ????
    6a9c:	ff ff       	.word	0xffff	; ????
    6a9e:	ff ff       	.word	0xffff	; ????
    6aa0:	ff ff       	.word	0xffff	; ????
    6aa2:	ff ff       	.word	0xffff	; ????
    6aa4:	ff ff       	.word	0xffff	; ????
    6aa6:	ff ff       	.word	0xffff	; ????
    6aa8:	ff ff       	.word	0xffff	; ????
    6aaa:	ff ff       	.word	0xffff	; ????
    6aac:	ff ff       	.word	0xffff	; ????
    6aae:	ff ff       	.word	0xffff	; ????
    6ab0:	ff ff       	.word	0xffff	; ????
    6ab2:	ff ff       	.word	0xffff	; ????
    6ab4:	ff ff       	.word	0xffff	; ????
    6ab6:	ff ff       	.word	0xffff	; ????
    6ab8:	ff ff       	.word	0xffff	; ????
    6aba:	ff ff       	.word	0xffff	; ????
    6abc:	ff ff       	.word	0xffff	; ????
    6abe:	ff ff       	.word	0xffff	; ????
    6ac0:	ff ff       	.word	0xffff	; ????
    6ac2:	ff ff       	.word	0xffff	; ????
    6ac4:	ff ff       	.word	0xffff	; ????
    6ac6:	ff ff       	.word	0xffff	; ????
    6ac8:	ff ff       	.word	0xffff	; ????
    6aca:	ff ff       	.word	0xffff	; ????
    6acc:	ff ff       	.word	0xffff	; ????
    6ace:	ff ff       	.word	0xffff	; ????
    6ad0:	ff ff       	.word	0xffff	; ????
    6ad2:	ff ff       	.word	0xffff	; ????
    6ad4:	ff ff       	.word	0xffff	; ????
    6ad6:	ff ff       	.word	0xffff	; ????
    6ad8:	ff ff       	.word	0xffff	; ????
    6ada:	ff ff       	.word	0xffff	; ????
    6adc:	ff ff       	.word	0xffff	; ????
    6ade:	ff ff       	.word	0xffff	; ????
    6ae0:	ff ff       	.word	0xffff	; ????
    6ae2:	ff ff       	.word	0xffff	; ????
    6ae4:	ff ff       	.word	0xffff	; ????
    6ae6:	ff ff       	.word	0xffff	; ????
    6ae8:	ff ff       	.word	0xffff	; ????
    6aea:	ff ff       	.word	0xffff	; ????
    6aec:	ff ff       	.word	0xffff	; ????
    6aee:	ff ff       	.word	0xffff	; ????
    6af0:	ff ff       	.word	0xffff	; ????
    6af2:	ff ff       	.word	0xffff	; ????
    6af4:	ff ff       	.word	0xffff	; ????
    6af6:	ff ff       	.word	0xffff	; ????
    6af8:	ff ff       	.word	0xffff	; ????
    6afa:	ff ff       	.word	0xffff	; ????
    6afc:	ff ff       	.word	0xffff	; ????
    6afe:	ff ff       	.word	0xffff	; ????
    6b00:	ff ff       	.word	0xffff	; ????
    6b02:	ff ff       	.word	0xffff	; ????
    6b04:	ff ff       	.word	0xffff	; ????
    6b06:	ff ff       	.word	0xffff	; ????
    6b08:	ff ff       	.word	0xffff	; ????
    6b0a:	ff ff       	.word	0xffff	; ????
    6b0c:	ff ff       	.word	0xffff	; ????
    6b0e:	ff ff       	.word	0xffff	; ????
    6b10:	ff ff       	.word	0xffff	; ????
    6b12:	ff ff       	.word	0xffff	; ????
    6b14:	ff ff       	.word	0xffff	; ????
    6b16:	ff ff       	.word	0xffff	; ????
    6b18:	ff ff       	.word	0xffff	; ????
    6b1a:	ff ff       	.word	0xffff	; ????
    6b1c:	ff ff       	.word	0xffff	; ????
    6b1e:	ff ff       	.word	0xffff	; ????
    6b20:	ff ff       	.word	0xffff	; ????
    6b22:	ff ff       	.word	0xffff	; ????
    6b24:	ff ff       	.word	0xffff	; ????
    6b26:	ff ff       	.word	0xffff	; ????
    6b28:	ff ff       	.word	0xffff	; ????
    6b2a:	ff ff       	.word	0xffff	; ????
    6b2c:	ff ff       	.word	0xffff	; ????
    6b2e:	ff ff       	.word	0xffff	; ????
    6b30:	ff ff       	.word	0xffff	; ????
    6b32:	ff ff       	.word	0xffff	; ????
    6b34:	ff ff       	.word	0xffff	; ????
    6b36:	ff ff       	.word	0xffff	; ????
    6b38:	ff ff       	.word	0xffff	; ????
    6b3a:	ff ff       	.word	0xffff	; ????
    6b3c:	ff ff       	.word	0xffff	; ????
    6b3e:	ff ff       	.word	0xffff	; ????
    6b40:	ff ff       	.word	0xffff	; ????
    6b42:	ff ff       	.word	0xffff	; ????
    6b44:	ff ff       	.word	0xffff	; ????
    6b46:	ff ff       	.word	0xffff	; ????
    6b48:	ff ff       	.word	0xffff	; ????
    6b4a:	ff ff       	.word	0xffff	; ????
    6b4c:	ff ff       	.word	0xffff	; ????
    6b4e:	ff ff       	.word	0xffff	; ????
    6b50:	ff ff       	.word	0xffff	; ????
    6b52:	ff ff       	.word	0xffff	; ????
    6b54:	ff ff       	.word	0xffff	; ????
    6b56:	ff ff       	.word	0xffff	; ????
    6b58:	ff ff       	.word	0xffff	; ????
    6b5a:	ff ff       	.word	0xffff	; ????
    6b5c:	ff ff       	.word	0xffff	; ????
    6b5e:	ff ff       	.word	0xffff	; ????
    6b60:	ff ff       	.word	0xffff	; ????
    6b62:	ff ff       	.word	0xffff	; ????
    6b64:	ff ff       	.word	0xffff	; ????
    6b66:	ff ff       	.word	0xffff	; ????
    6b68:	ff ff       	.word	0xffff	; ????
    6b6a:	ff ff       	.word	0xffff	; ????
    6b6c:	ff ff       	.word	0xffff	; ????
    6b6e:	ff ff       	.word	0xffff	; ????
    6b70:	ff ff       	.word	0xffff	; ????
    6b72:	ff ff       	.word	0xffff	; ????
    6b74:	ff ff       	.word	0xffff	; ????
    6b76:	ff ff       	.word	0xffff	; ????
    6b78:	ff ff       	.word	0xffff	; ????
    6b7a:	ff ff       	.word	0xffff	; ????
    6b7c:	ff ff       	.word	0xffff	; ????
    6b7e:	ff ff       	.word	0xffff	; ????
    6b80:	ff ff       	.word	0xffff	; ????
    6b82:	ff ff       	.word	0xffff	; ????
    6b84:	ff ff       	.word	0xffff	; ????
    6b86:	ff ff       	.word	0xffff	; ????
    6b88:	ff ff       	.word	0xffff	; ????
    6b8a:	ff ff       	.word	0xffff	; ????
    6b8c:	ff ff       	.word	0xffff	; ????
    6b8e:	ff ff       	.word	0xffff	; ????
    6b90:	ff ff       	.word	0xffff	; ????
    6b92:	ff ff       	.word	0xffff	; ????
    6b94:	ff ff       	.word	0xffff	; ????
    6b96:	ff ff       	.word	0xffff	; ????
    6b98:	ff ff       	.word	0xffff	; ????
    6b9a:	ff ff       	.word	0xffff	; ????
    6b9c:	ff ff       	.word	0xffff	; ????
    6b9e:	ff ff       	.word	0xffff	; ????
    6ba0:	ff ff       	.word	0xffff	; ????
    6ba2:	ff ff       	.word	0xffff	; ????
    6ba4:	ff ff       	.word	0xffff	; ????
    6ba6:	ff ff       	.word	0xffff	; ????
    6ba8:	ff ff       	.word	0xffff	; ????
    6baa:	ff ff       	.word	0xffff	; ????
    6bac:	ff ff       	.word	0xffff	; ????
    6bae:	ff ff       	.word	0xffff	; ????
    6bb0:	ff ff       	.word	0xffff	; ????
    6bb2:	ff ff       	.word	0xffff	; ????
    6bb4:	ff ff       	.word	0xffff	; ????
    6bb6:	ff ff       	.word	0xffff	; ????
    6bb8:	ff ff       	.word	0xffff	; ????
    6bba:	ff ff       	.word	0xffff	; ????
    6bbc:	ff ff       	.word	0xffff	; ????
    6bbe:	ff ff       	.word	0xffff	; ????
    6bc0:	ff ff       	.word	0xffff	; ????
    6bc2:	ff ff       	.word	0xffff	; ????
    6bc4:	ff ff       	.word	0xffff	; ????
    6bc6:	ff ff       	.word	0xffff	; ????
    6bc8:	ff ff       	.word	0xffff	; ????
    6bca:	ff ff       	.word	0xffff	; ????
    6bcc:	ff ff       	.word	0xffff	; ????
    6bce:	ff ff       	.word	0xffff	; ????
    6bd0:	ff ff       	.word	0xffff	; ????
    6bd2:	ff ff       	.word	0xffff	; ????
    6bd4:	ff ff       	.word	0xffff	; ????
    6bd6:	ff ff       	.word	0xffff	; ????
    6bd8:	ff ff       	.word	0xffff	; ????
    6bda:	ff ff       	.word	0xffff	; ????
    6bdc:	ff ff       	.word	0xffff	; ????
    6bde:	ff ff       	.word	0xffff	; ????
    6be0:	ff ff       	.word	0xffff	; ????
    6be2:	ff ff       	.word	0xffff	; ????
    6be4:	ff ff       	.word	0xffff	; ????
    6be6:	ff ff       	.word	0xffff	; ????
    6be8:	ff ff       	.word	0xffff	; ????
    6bea:	ff ff       	.word	0xffff	; ????
    6bec:	ff ff       	.word	0xffff	; ????
    6bee:	ff ff       	.word	0xffff	; ????
    6bf0:	ff ff       	.word	0xffff	; ????
    6bf2:	ff ff       	.word	0xffff	; ????
    6bf4:	ff ff       	.word	0xffff	; ????
    6bf6:	ff ff       	.word	0xffff	; ????
    6bf8:	ff ff       	.word	0xffff	; ????
    6bfa:	ff ff       	.word	0xffff	; ????
    6bfc:	ff ff       	.word	0xffff	; ????
    6bfe:	ff ff       	.word	0xffff	; ????
    6c00:	ff ff       	.word	0xffff	; ????
    6c02:	ff ff       	.word	0xffff	; ????
    6c04:	ff ff       	.word	0xffff	; ????
    6c06:	ff ff       	.word	0xffff	; ????
    6c08:	ff ff       	.word	0xffff	; ????
    6c0a:	ff ff       	.word	0xffff	; ????
    6c0c:	ff ff       	.word	0xffff	; ????
    6c0e:	ff ff       	.word	0xffff	; ????
    6c10:	ff ff       	.word	0xffff	; ????
    6c12:	ff ff       	.word	0xffff	; ????
    6c14:	ff ff       	.word	0xffff	; ????
    6c16:	ff ff       	.word	0xffff	; ????
    6c18:	ff ff       	.word	0xffff	; ????
    6c1a:	ff ff       	.word	0xffff	; ????
    6c1c:	ff ff       	.word	0xffff	; ????
    6c1e:	ff ff       	.word	0xffff	; ????
    6c20:	ff ff       	.word	0xffff	; ????
    6c22:	ff ff       	.word	0xffff	; ????
    6c24:	ff ff       	.word	0xffff	; ????
    6c26:	ff ff       	.word	0xffff	; ????
    6c28:	ff ff       	.word	0xffff	; ????
    6c2a:	ff ff       	.word	0xffff	; ????
    6c2c:	ff ff       	.word	0xffff	; ????
    6c2e:	ff ff       	.word	0xffff	; ????
    6c30:	ff ff       	.word	0xffff	; ????
    6c32:	ff ff       	.word	0xffff	; ????
    6c34:	ff ff       	.word	0xffff	; ????
    6c36:	ff ff       	.word	0xffff	; ????
    6c38:	ff ff       	.word	0xffff	; ????
    6c3a:	ff ff       	.word	0xffff	; ????
    6c3c:	ff ff       	.word	0xffff	; ????
    6c3e:	ff ff       	.word	0xffff	; ????
    6c40:	ff ff       	.word	0xffff	; ????
    6c42:	ff ff       	.word	0xffff	; ????
    6c44:	ff ff       	.word	0xffff	; ????
    6c46:	ff ff       	.word	0xffff	; ????
    6c48:	ff ff       	.word	0xffff	; ????
    6c4a:	ff ff       	.word	0xffff	; ????
    6c4c:	ff ff       	.word	0xffff	; ????
    6c4e:	ff ff       	.word	0xffff	; ????
    6c50:	ff ff       	.word	0xffff	; ????
    6c52:	ff ff       	.word	0xffff	; ????
    6c54:	ff ff       	.word	0xffff	; ????
    6c56:	ff ff       	.word	0xffff	; ????
    6c58:	ff ff       	.word	0xffff	; ????
    6c5a:	ff ff       	.word	0xffff	; ????
    6c5c:	ff ff       	.word	0xffff	; ????
    6c5e:	ff ff       	.word	0xffff	; ????
    6c60:	ff ff       	.word	0xffff	; ????
    6c62:	ff ff       	.word	0xffff	; ????
    6c64:	ff ff       	.word	0xffff	; ????
    6c66:	ff ff       	.word	0xffff	; ????
    6c68:	ff ff       	.word	0xffff	; ????
    6c6a:	ff ff       	.word	0xffff	; ????
    6c6c:	ff ff       	.word	0xffff	; ????
    6c6e:	ff ff       	.word	0xffff	; ????
    6c70:	ff ff       	.word	0xffff	; ????
    6c72:	ff ff       	.word	0xffff	; ????
    6c74:	ff ff       	.word	0xffff	; ????
    6c76:	ff ff       	.word	0xffff	; ????
    6c78:	ff ff       	.word	0xffff	; ????
    6c7a:	ff ff       	.word	0xffff	; ????
    6c7c:	ff ff       	.word	0xffff	; ????
    6c7e:	ff ff       	.word	0xffff	; ????
    6c80:	ff ff       	.word	0xffff	; ????
    6c82:	ff ff       	.word	0xffff	; ????
    6c84:	ff ff       	.word	0xffff	; ????
    6c86:	ff ff       	.word	0xffff	; ????
    6c88:	ff ff       	.word	0xffff	; ????
    6c8a:	ff ff       	.word	0xffff	; ????
    6c8c:	ff ff       	.word	0xffff	; ????
    6c8e:	ff ff       	.word	0xffff	; ????
    6c90:	ff ff       	.word	0xffff	; ????
    6c92:	ff ff       	.word	0xffff	; ????
    6c94:	ff ff       	.word	0xffff	; ????
    6c96:	ff ff       	.word	0xffff	; ????
    6c98:	ff ff       	.word	0xffff	; ????
    6c9a:	ff ff       	.word	0xffff	; ????
    6c9c:	ff ff       	.word	0xffff	; ????
    6c9e:	ff ff       	.word	0xffff	; ????
    6ca0:	ff ff       	.word	0xffff	; ????
    6ca2:	ff ff       	.word	0xffff	; ????
    6ca4:	ff ff       	.word	0xffff	; ????
    6ca6:	ff ff       	.word	0xffff	; ????
    6ca8:	ff ff       	.word	0xffff	; ????
    6caa:	ff ff       	.word	0xffff	; ????
    6cac:	ff ff       	.word	0xffff	; ????
    6cae:	ff ff       	.word	0xffff	; ????
    6cb0:	ff ff       	.word	0xffff	; ????
    6cb2:	ff ff       	.word	0xffff	; ????
    6cb4:	ff ff       	.word	0xffff	; ????
    6cb6:	ff ff       	.word	0xffff	; ????
    6cb8:	ff ff       	.word	0xffff	; ????
    6cba:	ff ff       	.word	0xffff	; ????
    6cbc:	ff ff       	.word	0xffff	; ????
    6cbe:	ff ff       	.word	0xffff	; ????
    6cc0:	ff ff       	.word	0xffff	; ????
    6cc2:	ff ff       	.word	0xffff	; ????
    6cc4:	ff ff       	.word	0xffff	; ????
    6cc6:	ff ff       	.word	0xffff	; ????
    6cc8:	ff ff       	.word	0xffff	; ????
    6cca:	ff ff       	.word	0xffff	; ????
    6ccc:	ff ff       	.word	0xffff	; ????
    6cce:	ff ff       	.word	0xffff	; ????
    6cd0:	ff ff       	.word	0xffff	; ????
    6cd2:	ff ff       	.word	0xffff	; ????
    6cd4:	ff ff       	.word	0xffff	; ????
    6cd6:	ff ff       	.word	0xffff	; ????
    6cd8:	ff ff       	.word	0xffff	; ????
    6cda:	ff ff       	.word	0xffff	; ????
    6cdc:	ff ff       	.word	0xffff	; ????
    6cde:	ff ff       	.word	0xffff	; ????
    6ce0:	ff ff       	.word	0xffff	; ????
    6ce2:	ff ff       	.word	0xffff	; ????
    6ce4:	ff ff       	.word	0xffff	; ????
    6ce6:	ff ff       	.word	0xffff	; ????
    6ce8:	ff ff       	.word	0xffff	; ????
    6cea:	ff ff       	.word	0xffff	; ????
    6cec:	ff ff       	.word	0xffff	; ????
    6cee:	ff ff       	.word	0xffff	; ????
    6cf0:	ff ff       	.word	0xffff	; ????
    6cf2:	ff ff       	.word	0xffff	; ????
    6cf4:	ff ff       	.word	0xffff	; ????
    6cf6:	ff ff       	.word	0xffff	; ????
    6cf8:	ff ff       	.word	0xffff	; ????
    6cfa:	ff ff       	.word	0xffff	; ????
    6cfc:	ff ff       	.word	0xffff	; ????
    6cfe:	ff ff       	.word	0xffff	; ????
    6d00:	ff ff       	.word	0xffff	; ????
    6d02:	ff ff       	.word	0xffff	; ????
    6d04:	ff ff       	.word	0xffff	; ????
    6d06:	ff ff       	.word	0xffff	; ????
    6d08:	ff ff       	.word	0xffff	; ????
    6d0a:	ff ff       	.word	0xffff	; ????
    6d0c:	ff ff       	.word	0xffff	; ????
    6d0e:	ff ff       	.word	0xffff	; ????
    6d10:	ff ff       	.word	0xffff	; ????
    6d12:	ff ff       	.word	0xffff	; ????
    6d14:	ff ff       	.word	0xffff	; ????
    6d16:	ff ff       	.word	0xffff	; ????
    6d18:	ff ff       	.word	0xffff	; ????
    6d1a:	ff ff       	.word	0xffff	; ????
    6d1c:	ff ff       	.word	0xffff	; ????
    6d1e:	ff ff       	.word	0xffff	; ????
    6d20:	ff ff       	.word	0xffff	; ????
    6d22:	ff ff       	.word	0xffff	; ????
    6d24:	ff ff       	.word	0xffff	; ????
    6d26:	ff ff       	.word	0xffff	; ????
    6d28:	ff ff       	.word	0xffff	; ????
    6d2a:	ff ff       	.word	0xffff	; ????
    6d2c:	ff ff       	.word	0xffff	; ????
    6d2e:	ff ff       	.word	0xffff	; ????
    6d30:	ff ff       	.word	0xffff	; ????
    6d32:	ff ff       	.word	0xffff	; ????
    6d34:	ff ff       	.word	0xffff	; ????
    6d36:	ff ff       	.word	0xffff	; ????
    6d38:	ff ff       	.word	0xffff	; ????
    6d3a:	ff ff       	.word	0xffff	; ????
    6d3c:	ff ff       	.word	0xffff	; ????
    6d3e:	ff ff       	.word	0xffff	; ????
    6d40:	ff ff       	.word	0xffff	; ????
    6d42:	ff ff       	.word	0xffff	; ????
    6d44:	ff ff       	.word	0xffff	; ????
    6d46:	ff ff       	.word	0xffff	; ????
    6d48:	ff ff       	.word	0xffff	; ????
    6d4a:	ff ff       	.word	0xffff	; ????
    6d4c:	ff ff       	.word	0xffff	; ????
    6d4e:	ff ff       	.word	0xffff	; ????
    6d50:	ff ff       	.word	0xffff	; ????
    6d52:	ff ff       	.word	0xffff	; ????
    6d54:	ff ff       	.word	0xffff	; ????
    6d56:	ff ff       	.word	0xffff	; ????
    6d58:	ff ff       	.word	0xffff	; ????
    6d5a:	ff ff       	.word	0xffff	; ????
    6d5c:	ff ff       	.word	0xffff	; ????
    6d5e:	ff ff       	.word	0xffff	; ????
    6d60:	ff ff       	.word	0xffff	; ????
    6d62:	ff ff       	.word	0xffff	; ????
    6d64:	ff ff       	.word	0xffff	; ????
    6d66:	ff ff       	.word	0xffff	; ????
    6d68:	ff ff       	.word	0xffff	; ????
    6d6a:	ff ff       	.word	0xffff	; ????
    6d6c:	ff ff       	.word	0xffff	; ????
    6d6e:	ff ff       	.word	0xffff	; ????
    6d70:	ff ff       	.word	0xffff	; ????
    6d72:	ff ff       	.word	0xffff	; ????
    6d74:	ff ff       	.word	0xffff	; ????
    6d76:	ff ff       	.word	0xffff	; ????
    6d78:	ff ff       	.word	0xffff	; ????
    6d7a:	ff ff       	.word	0xffff	; ????
    6d7c:	ff ff       	.word	0xffff	; ????
    6d7e:	ff ff       	.word	0xffff	; ????
    6d80:	ff ff       	.word	0xffff	; ????
    6d82:	ff ff       	.word	0xffff	; ????
    6d84:	ff ff       	.word	0xffff	; ????
    6d86:	ff ff       	.word	0xffff	; ????
    6d88:	ff ff       	.word	0xffff	; ????
    6d8a:	ff ff       	.word	0xffff	; ????
    6d8c:	ff ff       	.word	0xffff	; ????
    6d8e:	ff ff       	.word	0xffff	; ????
    6d90:	ff ff       	.word	0xffff	; ????
    6d92:	ff ff       	.word	0xffff	; ????
    6d94:	ff ff       	.word	0xffff	; ????
    6d96:	ff ff       	.word	0xffff	; ????
    6d98:	ff ff       	.word	0xffff	; ????
    6d9a:	ff ff       	.word	0xffff	; ????
    6d9c:	ff ff       	.word	0xffff	; ????
    6d9e:	ff ff       	.word	0xffff	; ????
    6da0:	ff ff       	.word	0xffff	; ????
    6da2:	ff ff       	.word	0xffff	; ????
    6da4:	ff ff       	.word	0xffff	; ????
    6da6:	ff ff       	.word	0xffff	; ????
    6da8:	ff ff       	.word	0xffff	; ????
    6daa:	ff ff       	.word	0xffff	; ????
    6dac:	ff ff       	.word	0xffff	; ????
    6dae:	ff ff       	.word	0xffff	; ????
    6db0:	ff ff       	.word	0xffff	; ????
    6db2:	ff ff       	.word	0xffff	; ????
    6db4:	ff ff       	.word	0xffff	; ????
    6db6:	ff ff       	.word	0xffff	; ????
    6db8:	ff ff       	.word	0xffff	; ????
    6dba:	ff ff       	.word	0xffff	; ????
    6dbc:	ff ff       	.word	0xffff	; ????
    6dbe:	ff ff       	.word	0xffff	; ????
    6dc0:	ff ff       	.word	0xffff	; ????
    6dc2:	ff ff       	.word	0xffff	; ????
    6dc4:	ff ff       	.word	0xffff	; ????
    6dc6:	ff ff       	.word	0xffff	; ????
    6dc8:	ff ff       	.word	0xffff	; ????
    6dca:	ff ff       	.word	0xffff	; ????
    6dcc:	ff ff       	.word	0xffff	; ????
    6dce:	ff ff       	.word	0xffff	; ????
    6dd0:	ff ff       	.word	0xffff	; ????
    6dd2:	ff ff       	.word	0xffff	; ????
    6dd4:	ff ff       	.word	0xffff	; ????
    6dd6:	ff ff       	.word	0xffff	; ????
    6dd8:	ff ff       	.word	0xffff	; ????
    6dda:	ff ff       	.word	0xffff	; ????
    6ddc:	ff ff       	.word	0xffff	; ????
    6dde:	ff ff       	.word	0xffff	; ????
    6de0:	ff ff       	.word	0xffff	; ????
    6de2:	ff ff       	.word	0xffff	; ????
    6de4:	ff ff       	.word	0xffff	; ????
    6de6:	ff ff       	.word	0xffff	; ????
    6de8:	ff ff       	.word	0xffff	; ????
    6dea:	ff ff       	.word	0xffff	; ????
    6dec:	ff ff       	.word	0xffff	; ????
    6dee:	ff ff       	.word	0xffff	; ????
    6df0:	ff ff       	.word	0xffff	; ????
    6df2:	ff ff       	.word	0xffff	; ????
    6df4:	ff ff       	.word	0xffff	; ????
    6df6:	ff ff       	.word	0xffff	; ????
    6df8:	ff ff       	.word	0xffff	; ????
    6dfa:	ff ff       	.word	0xffff	; ????
    6dfc:	ff ff       	.word	0xffff	; ????
    6dfe:	ff ff       	.word	0xffff	; ????
    6e00:	ff ff       	.word	0xffff	; ????
    6e02:	ff ff       	.word	0xffff	; ????
    6e04:	ff ff       	.word	0xffff	; ????
    6e06:	ff ff       	.word	0xffff	; ????
    6e08:	ff ff       	.word	0xffff	; ????
    6e0a:	ff ff       	.word	0xffff	; ????
    6e0c:	ff ff       	.word	0xffff	; ????
    6e0e:	ff ff       	.word	0xffff	; ????
    6e10:	ff ff       	.word	0xffff	; ????
    6e12:	ff ff       	.word	0xffff	; ????
    6e14:	ff ff       	.word	0xffff	; ????
    6e16:	ff ff       	.word	0xffff	; ????
    6e18:	ff ff       	.word	0xffff	; ????
    6e1a:	ff ff       	.word	0xffff	; ????
    6e1c:	ff ff       	.word	0xffff	; ????
    6e1e:	ff ff       	.word	0xffff	; ????
    6e20:	ff ff       	.word	0xffff	; ????
    6e22:	ff ff       	.word	0xffff	; ????
    6e24:	ff ff       	.word	0xffff	; ????
    6e26:	ff ff       	.word	0xffff	; ????
    6e28:	ff ff       	.word	0xffff	; ????
    6e2a:	ff ff       	.word	0xffff	; ????
    6e2c:	ff ff       	.word	0xffff	; ????
    6e2e:	ff ff       	.word	0xffff	; ????
    6e30:	ff ff       	.word	0xffff	; ????
    6e32:	ff ff       	.word	0xffff	; ????
    6e34:	ff ff       	.word	0xffff	; ????
    6e36:	ff ff       	.word	0xffff	; ????
    6e38:	ff ff       	.word	0xffff	; ????
    6e3a:	ff ff       	.word	0xffff	; ????
    6e3c:	ff ff       	.word	0xffff	; ????
    6e3e:	ff ff       	.word	0xffff	; ????
    6e40:	ff ff       	.word	0xffff	; ????
    6e42:	ff ff       	.word	0xffff	; ????
    6e44:	ff ff       	.word	0xffff	; ????
    6e46:	ff ff       	.word	0xffff	; ????
    6e48:	ff ff       	.word	0xffff	; ????
    6e4a:	ff ff       	.word	0xffff	; ????
    6e4c:	ff ff       	.word	0xffff	; ????
    6e4e:	ff ff       	.word	0xffff	; ????
    6e50:	ff ff       	.word	0xffff	; ????
    6e52:	ff ff       	.word	0xffff	; ????
    6e54:	ff ff       	.word	0xffff	; ????
    6e56:	ff ff       	.word	0xffff	; ????
    6e58:	ff ff       	.word	0xffff	; ????
    6e5a:	ff ff       	.word	0xffff	; ????
    6e5c:	ff ff       	.word	0xffff	; ????
    6e5e:	ff ff       	.word	0xffff	; ????
    6e60:	ff ff       	.word	0xffff	; ????
    6e62:	ff ff       	.word	0xffff	; ????
    6e64:	ff ff       	.word	0xffff	; ????
    6e66:	ff ff       	.word	0xffff	; ????
    6e68:	ff ff       	.word	0xffff	; ????
    6e6a:	ff ff       	.word	0xffff	; ????
    6e6c:	ff ff       	.word	0xffff	; ????
    6e6e:	ff ff       	.word	0xffff	; ????
    6e70:	ff ff       	.word	0xffff	; ????
    6e72:	ff ff       	.word	0xffff	; ????
    6e74:	ff ff       	.word	0xffff	; ????
    6e76:	ff ff       	.word	0xffff	; ????
    6e78:	ff ff       	.word	0xffff	; ????
    6e7a:	ff ff       	.word	0xffff	; ????
    6e7c:	ff ff       	.word	0xffff	; ????
    6e7e:	ff ff       	.word	0xffff	; ????
    6e80:	ff ff       	.word	0xffff	; ????
    6e82:	ff ff       	.word	0xffff	; ????
    6e84:	ff ff       	.word	0xffff	; ????
    6e86:	ff ff       	.word	0xffff	; ????
    6e88:	ff ff       	.word	0xffff	; ????
    6e8a:	ff ff       	.word	0xffff	; ????
    6e8c:	ff ff       	.word	0xffff	; ????
    6e8e:	ff ff       	.word	0xffff	; ????
    6e90:	ff ff       	.word	0xffff	; ????
    6e92:	ff ff       	.word	0xffff	; ????
    6e94:	ff ff       	.word	0xffff	; ????
    6e96:	ff ff       	.word	0xffff	; ????
    6e98:	ff ff       	.word	0xffff	; ????
    6e9a:	ff ff       	.word	0xffff	; ????
    6e9c:	ff ff       	.word	0xffff	; ????
    6e9e:	ff ff       	.word	0xffff	; ????
    6ea0:	ff ff       	.word	0xffff	; ????
    6ea2:	ff ff       	.word	0xffff	; ????
    6ea4:	ff ff       	.word	0xffff	; ????
    6ea6:	ff ff       	.word	0xffff	; ????
    6ea8:	ff ff       	.word	0xffff	; ????
    6eaa:	ff ff       	.word	0xffff	; ????
    6eac:	ff ff       	.word	0xffff	; ????
    6eae:	ff ff       	.word	0xffff	; ????
    6eb0:	ff ff       	.word	0xffff	; ????
    6eb2:	ff ff       	.word	0xffff	; ????
    6eb4:	ff ff       	.word	0xffff	; ????
    6eb6:	ff ff       	.word	0xffff	; ????
    6eb8:	ff ff       	.word	0xffff	; ????
    6eba:	ff ff       	.word	0xffff	; ????
    6ebc:	ff ff       	.word	0xffff	; ????
    6ebe:	ff ff       	.word	0xffff	; ????
    6ec0:	ff ff       	.word	0xffff	; ????
    6ec2:	ff ff       	.word	0xffff	; ????
    6ec4:	ff ff       	.word	0xffff	; ????
    6ec6:	ff ff       	.word	0xffff	; ????
    6ec8:	ff ff       	.word	0xffff	; ????
    6eca:	ff ff       	.word	0xffff	; ????
    6ecc:	ff ff       	.word	0xffff	; ????
    6ece:	ff ff       	.word	0xffff	; ????
    6ed0:	ff ff       	.word	0xffff	; ????
    6ed2:	ff ff       	.word	0xffff	; ????
    6ed4:	ff ff       	.word	0xffff	; ????
    6ed6:	ff ff       	.word	0xffff	; ????
    6ed8:	ff ff       	.word	0xffff	; ????
    6eda:	ff ff       	.word	0xffff	; ????
    6edc:	ff ff       	.word	0xffff	; ????
    6ede:	ff ff       	.word	0xffff	; ????
    6ee0:	ff ff       	.word	0xffff	; ????
    6ee2:	ff ff       	.word	0xffff	; ????
    6ee4:	ff ff       	.word	0xffff	; ????
    6ee6:	ff ff       	.word	0xffff	; ????
    6ee8:	ff ff       	.word	0xffff	; ????
    6eea:	ff ff       	.word	0xffff	; ????
    6eec:	ff ff       	.word	0xffff	; ????
    6eee:	ff ff       	.word	0xffff	; ????
    6ef0:	ff ff       	.word	0xffff	; ????
    6ef2:	ff ff       	.word	0xffff	; ????
    6ef4:	ff ff       	.word	0xffff	; ????
    6ef6:	ff ff       	.word	0xffff	; ????
    6ef8:	ff ff       	.word	0xffff	; ????
    6efa:	ff ff       	.word	0xffff	; ????
    6efc:	ff ff       	.word	0xffff	; ????
    6efe:	ff ff       	.word	0xffff	; ????
    6f00:	ff ff       	.word	0xffff	; ????
    6f02:	ff ff       	.word	0xffff	; ????
    6f04:	ff ff       	.word	0xffff	; ????
    6f06:	ff ff       	.word	0xffff	; ????
    6f08:	ff ff       	.word	0xffff	; ????
    6f0a:	ff ff       	.word	0xffff	; ????
    6f0c:	ff ff       	.word	0xffff	; ????
    6f0e:	ff ff       	.word	0xffff	; ????
    6f10:	ff ff       	.word	0xffff	; ????
    6f12:	ff ff       	.word	0xffff	; ????
    6f14:	ff ff       	.word	0xffff	; ????
    6f16:	ff ff       	.word	0xffff	; ????
    6f18:	ff ff       	.word	0xffff	; ????
    6f1a:	ff ff       	.word	0xffff	; ????
    6f1c:	ff ff       	.word	0xffff	; ????
    6f1e:	ff ff       	.word	0xffff	; ????
    6f20:	ff ff       	.word	0xffff	; ????
    6f22:	ff ff       	.word	0xffff	; ????
    6f24:	ff ff       	.word	0xffff	; ????
    6f26:	ff ff       	.word	0xffff	; ????
    6f28:	ff ff       	.word	0xffff	; ????
    6f2a:	ff ff       	.word	0xffff	; ????
    6f2c:	ff ff       	.word	0xffff	; ????
    6f2e:	ff ff       	.word	0xffff	; ????
    6f30:	ff ff       	.word	0xffff	; ????
    6f32:	ff ff       	.word	0xffff	; ????
    6f34:	ff ff       	.word	0xffff	; ????
    6f36:	ff ff       	.word	0xffff	; ????
    6f38:	ff ff       	.word	0xffff	; ????
    6f3a:	ff ff       	.word	0xffff	; ????
    6f3c:	ff ff       	.word	0xffff	; ????
    6f3e:	ff ff       	.word	0xffff	; ????
    6f40:	ff ff       	.word	0xffff	; ????
    6f42:	ff ff       	.word	0xffff	; ????
    6f44:	ff ff       	.word	0xffff	; ????
    6f46:	ff ff       	.word	0xffff	; ????
    6f48:	ff ff       	.word	0xffff	; ????
    6f4a:	ff ff       	.word	0xffff	; ????
    6f4c:	ff ff       	.word	0xffff	; ????
    6f4e:	ff ff       	.word	0xffff	; ????
    6f50:	ff ff       	.word	0xffff	; ????
    6f52:	ff ff       	.word	0xffff	; ????
    6f54:	ff ff       	.word	0xffff	; ????
    6f56:	ff ff       	.word	0xffff	; ????
    6f58:	ff ff       	.word	0xffff	; ????
    6f5a:	ff ff       	.word	0xffff	; ????
    6f5c:	ff ff       	.word	0xffff	; ????
    6f5e:	ff ff       	.word	0xffff	; ????
    6f60:	ff ff       	.word	0xffff	; ????
    6f62:	ff ff       	.word	0xffff	; ????
    6f64:	ff ff       	.word	0xffff	; ????
    6f66:	ff ff       	.word	0xffff	; ????
    6f68:	ff ff       	.word	0xffff	; ????
    6f6a:	ff ff       	.word	0xffff	; ????
    6f6c:	ff ff       	.word	0xffff	; ????
    6f6e:	ff ff       	.word	0xffff	; ????
    6f70:	ff ff       	.word	0xffff	; ????
    6f72:	ff ff       	.word	0xffff	; ????
    6f74:	ff ff       	.word	0xffff	; ????
    6f76:	ff ff       	.word	0xffff	; ????
    6f78:	ff ff       	.word	0xffff	; ????
    6f7a:	ff ff       	.word	0xffff	; ????
    6f7c:	ff ff       	.word	0xffff	; ????
    6f7e:	ff ff       	.word	0xffff	; ????
    6f80:	ff ff       	.word	0xffff	; ????
    6f82:	ff ff       	.word	0xffff	; ????
    6f84:	ff ff       	.word	0xffff	; ????
    6f86:	ff ff       	.word	0xffff	; ????
    6f88:	ff ff       	.word	0xffff	; ????
    6f8a:	ff ff       	.word	0xffff	; ????
    6f8c:	ff ff       	.word	0xffff	; ????
    6f8e:	ff ff       	.word	0xffff	; ????
    6f90:	ff ff       	.word	0xffff	; ????
    6f92:	ff ff       	.word	0xffff	; ????
    6f94:	ff ff       	.word	0xffff	; ????
    6f96:	ff ff       	.word	0xffff	; ????
    6f98:	ff ff       	.word	0xffff	; ????
    6f9a:	ff ff       	.word	0xffff	; ????
    6f9c:	ff ff       	.word	0xffff	; ????
    6f9e:	ff ff       	.word	0xffff	; ????
    6fa0:	ff ff       	.word	0xffff	; ????
    6fa2:	ff ff       	.word	0xffff	; ????
    6fa4:	ff ff       	.word	0xffff	; ????
    6fa6:	ff ff       	.word	0xffff	; ????
    6fa8:	ff ff       	.word	0xffff	; ????
    6faa:	ff ff       	.word	0xffff	; ????
    6fac:	ff ff       	.word	0xffff	; ????
    6fae:	ff ff       	.word	0xffff	; ????
    6fb0:	ff ff       	.word	0xffff	; ????
    6fb2:	ff ff       	.word	0xffff	; ????
    6fb4:	ff ff       	.word	0xffff	; ????
    6fb6:	ff ff       	.word	0xffff	; ????
    6fb8:	ff ff       	.word	0xffff	; ????
    6fba:	ff ff       	.word	0xffff	; ????
    6fbc:	ff ff       	.word	0xffff	; ????
    6fbe:	ff ff       	.word	0xffff	; ????
    6fc0:	ff ff       	.word	0xffff	; ????
    6fc2:	ff ff       	.word	0xffff	; ????
    6fc4:	ff ff       	.word	0xffff	; ????
    6fc6:	ff ff       	.word	0xffff	; ????
    6fc8:	ff ff       	.word	0xffff	; ????
    6fca:	ff ff       	.word	0xffff	; ????
    6fcc:	ff ff       	.word	0xffff	; ????
    6fce:	ff ff       	.word	0xffff	; ????
    6fd0:	ff ff       	.word	0xffff	; ????
    6fd2:	ff ff       	.word	0xffff	; ????
    6fd4:	ff ff       	.word	0xffff	; ????
    6fd6:	ff ff       	.word	0xffff	; ????
    6fd8:	ff ff       	.word	0xffff	; ????
    6fda:	ff ff       	.word	0xffff	; ????
    6fdc:	ff ff       	.word	0xffff	; ????
    6fde:	ff ff       	.word	0xffff	; ????
    6fe0:	ff ff       	.word	0xffff	; ????
    6fe2:	ff ff       	.word	0xffff	; ????
    6fe4:	ff ff       	.word	0xffff	; ????
    6fe6:	ff ff       	.word	0xffff	; ????
    6fe8:	ff ff       	.word	0xffff	; ????
    6fea:	ff ff       	.word	0xffff	; ????
    6fec:	ff ff       	.word	0xffff	; ????
    6fee:	ff ff       	.word	0xffff	; ????
    6ff0:	ff ff       	.word	0xffff	; ????
    6ff2:	ff ff       	.word	0xffff	; ????
    6ff4:	ff ff       	.word	0xffff	; ????
    6ff6:	ff ff       	.word	0xffff	; ????
    6ff8:	ff ff       	.word	0xffff	; ????
    6ffa:	ff ff       	.word	0xffff	; ????
    6ffc:	ff ff       	.word	0xffff	; ????
    6ffe:	ff ff       	.word	0xffff	; ????
    7000:	55 c0       	rjmp	.+170    	;  0x70ac              ; Relative jump
    7002:	00 00       	nop
    7004:	6e c0       	rjmp	.+220    	;  0x70e2              ; Relative jump
    7006:	00 00       	nop
    7008:	6c c0       	rjmp	.+216    	;  0x70e2              ; Relative jump
    700a:	00 00       	nop
    700c:	6a c0       	rjmp	.+212    	;  0x70e2              ; Relative jump
    700e:	00 00       	nop
    7010:	68 c0       	rjmp	.+208    	;  0x70e2              ; Relative jump
    7012:	00 00       	nop
    7014:	66 c0       	rjmp	.+204    	;  0x70e2              ; Relative jump
    7016:	00 00       	nop
    7018:	64 c0       	rjmp	.+200    	;  0x70e2              ; Relative jump
    701a:	00 00       	nop
    701c:	62 c0       	rjmp	.+196    	;  0x70e2              ; Relative jump
    701e:	00 00       	nop
    7020:	60 c0       	rjmp	.+192    	;  0x70e2              ; Relative jump
    7022:	00 00       	nop
    7024:	5e c0       	rjmp	.+188    	;  0x70e2              ; Relative jump
    7026:	00 00       	nop
    7028:	f2 c4       	rjmp	.+2532   	;  0x7a0e              ; Relative jump
    702a:	00 00       	nop
    702c:	5a c0       	rjmp	.+180    	;  0x70e2              ; Relative jump
    702e:	00 00       	nop
    7030:	58 c0       	rjmp	.+176    	;  0x70e2              ; Relative jump
    7032:	00 00       	nop
    7034:	56 c0       	rjmp	.+172    	;  0x70e2              ; Relative jump
    7036:	00 00       	nop
    7038:	54 c0       	rjmp	.+168    	;  0x70e2              ; Relative jump
    703a:	00 00       	nop
    703c:	52 c0       	rjmp	.+164    	;  0x70e2              ; Relative jump
    703e:	00 00       	nop
    7040:	50 c0       	rjmp	.+160    	;  0x70e2              ; Relative jump
    7042:	00 00       	nop
    7044:	78 c0       	rjmp	.+240    	;  0x7136              ; Relative jump
    7046:	00 00       	nop
    7048:	4c c0       	rjmp	.+152    	;  0x70e2              ; Relative jump
    704a:	00 00       	nop
    704c:	4a c0       	rjmp	.+148    	;  0x70e2              ; Relative jump
    704e:	00 00       	nop
    7050:	48 c0       	rjmp	.+144    	;  0x70e2              ; Relative jump
    7052:	00 00       	nop
    7054:	46 c0       	rjmp	.+140    	;  0x70e2              ; Relative jump
    7056:	00 00       	nop
    7058:	44 c0       	rjmp	.+136    	;  0x70e2              ; Relative jump
    705a:	00 00       	nop
    705c:	42 c0       	rjmp	.+132    	;  0x70e2              ; Relative jump
    705e:	00 00       	nop
    7060:	40 c0       	rjmp	.+128    	;  0x70e2              ; Relative jump
    7062:	00 00       	nop
    7064:	3e c0       	rjmp	.+124    	;  0x70e2              ; Relative jump
    7066:	00 00       	nop
    7068:	3c c0       	rjmp	.+120    	;  0x70e2              ; Relative jump
    706a:	00 00       	nop
    706c:	3a c0       	rjmp	.+116    	;  0x70e2              ; Relative jump
    706e:	00 00       	nop
    7070:	38 c0       	rjmp	.+112    	;  0x70e2              ; Relative jump
    7072:	00 00       	nop
    7074:	36 c0       	rjmp	.+108    	;  0x70e2              ; Relative jump
    7076:	00 00       	nop
    7078:	34 c0       	rjmp	.+104    	;  0x70e2              ; Relative jump
    707a:	00 00       	nop
    707c:	32 c0       	rjmp	.+100    	;  0x70e2              ; Relative jump
    707e:	00 00       	nop
    7080:	30 c0       	rjmp	.+96     	;  0x70e2              ; Relative jump
    7082:	00 00       	nop
    7084:	2e c0       	rjmp	.+92     	;  0x70e2              ; Relative jump
    7086:	00 00       	nop
    7088:	2c c0       	rjmp	.+88     	;  0x70e2              ; Relative jump
    708a:	00 00       	nop
    708c:	2a c0       	rjmp	.+84     	;  0x70e2              ; Relative jump
    708e:	00 00       	nop
    7090:	28 c0       	rjmp	.+80     	;  0x70e2              ; Relative jump
    7092:	00 00       	nop
    7094:	26 c0       	rjmp	.+76     	;  0x70e2              ; Relative jump
    7096:	00 00       	nop
    7098:	24 c0       	rjmp	.+72     	;  0x70e2              ; Relative jump
    709a:	00 00       	nop
    709c:	22 c0       	rjmp	.+68     	;  0x70e2              ; Relative jump
    709e:	00 00       	nop
    70a0:	20 c0       	rjmp	.+64     	;  0x70e2              ; Relative jump
    70a2:	00 00       	nop
    70a4:	1e c0       	rjmp	.+60     	;  0x70e2              ; Relative jump
    70a6:	00 00       	nop
    70a8:	1c c0       	rjmp	.+56     	;  0x70e2              ; Relative jump
    70aa:	00 00       	nop
    70ac:	11 24       	eor	r1, r1
    70ae:	1f be       	out	0x3f, r1	; 63                     ; Output to I/O port
    70b0:	cf ef       	ldi	r28, 0xFF	; 255                   ; Load immediate value
    70b2:	da e0       	ldi	r29, 0x0A	; 10                    ; Load immediate value
    70b4:	de bf       	out	0x3e, r29	; 62                    ; Output to I/O port
    70b6:	cd bf       	out	0x3d, r28	; 61                    ; Output to I/O port
    70b8:	11 e0       	ldi	r17, 0x01	; 1                     ; Load immediate value
    70ba:	a0 e0       	ldi	r26, 0x00	; 0                     ; Load immediate value
    70bc:	b1 e0       	ldi	r27, 0x01	; 1                     ; Load immediate value
    70be:	e2 e3       	ldi	r30, 0x32	; 50                    ; Load immediate value
    70c0:	ff e7       	ldi	r31, 0x7F	; 127                   ; Load immediate value
    70c2:	02 c0       	rjmp	.+4      	;  0x70c8              ; Relative jump
    70c4:	05 90       	lpm	r0, Z+
    70c6:	0d 92       	st	X+, r0
    70c8:	a8 3a       	cpi	r26, 0xA8	; 168                   ; Compare with immediate
    70ca:	b1 07       	cpc	r27, r17
    70cc:	d9 f7       	brne	.-10     	;  0x70c4              ; Branch if not equal
    70ce:	11 e0       	ldi	r17, 0x01	; 1                     ; Load immediate value
    70d0:	a8 ea       	ldi	r26, 0xA8	; 168                   ; Load immediate value
    70d2:	b1 e0       	ldi	r27, 0x01	; 1                     ; Load immediate value
    70d4:	01 c0       	rjmp	.+2      	;  0x70d8              ; Relative jump
    70d6:	1d 92       	st	X+, r1
    70d8:	ae 3b       	cpi	r26, 0xBE	; 190                   ; Compare with immediate
    70da:	b1 07       	cpc	r27, r17
    70dc:	e1 f7       	brne	.-8      	;  0x70d6              ; Branch if not equal
    70de:	8f d3       	rcall	.+1822   	;  0x77fe
    70e0:	26 c7       	rjmp	.+3660   	;  0x7f2e              ; Relative jump
    70e2:	8e cf       	rjmp	.-228    	;  0x7000              ; Relative jump
    70e4:	f8 94       	cli
    70e6:	10 92 6f 00 	sts	0x006F, r1	;  0x80006f            ; Store to data space
    70ea:	10 92 81 00 	sts	0x0081, r1	;  0x800081            ; Store to data space
    70ee:	10 92 85 00 	sts	0x0085, r1	;  0x800085            ; Store to data space
    70f2:	10 92 84 00 	sts	0x0084, r1	;  0x800084            ; Store to data space
    70f6:	81 e0       	ldi	r24, 0x01	; 1                     ; Load immediate value
    70f8:	85 bf       	out	0x35, r24	; 53                    ; Output to I/O port
    70fa:	15 be       	out	0x35, r1	; 53                     ; Output to I/O port
    70fc:	47 98       	cbi	0x08, 7	; 8
    70fe:	5d 9a       	sbi	0x0b, 5	; 11
    7100:	28 9a       	sbi	0x05, 0	; 5
    7102:	0c 94 00 00 	jmp	0	;  0x0                          ; Jump
    7106:	08 95       	ret
    7108:	20 91 b2 01 	lds	r18, 0x01B2	;  0x8001b2           ; Load from data space
    710c:	30 91 b3 01 	lds	r19, 0x01B3	;  0x8001b3           ; Load from data space
    7110:	2f 5f       	subi	r18, 0xFF	; 255
    7112:	3f 4f       	sbci	r19, 0xFF	; 255
    7114:	30 93 b3 01 	sts	0x01B3, r19	;  0x8001b3           ; Store to data space
    7118:	20 93 b2 01 	sts	0x01B2, r18	;  0x8001b2           ; Store to data space
    711c:	93 2f       	mov	r25, r19                          ; Move register to register
    711e:	37 ff       	sbrs	r19, 7
    7120:	03 c0       	rjmp	.+6      	;  0x7128              ; Relative jump
    7122:	8e ef       	ldi	r24, 0xFE	; 254                   ; Load immediate value
    7124:	83 1b       	sub	r24, r19
    7126:	98 2f       	mov	r25, r24                          ; Move register to register
    7128:	99 0f       	add	r25, r25
    712a:	92 17       	cp	r25, r18
    712c:	10 f4       	brcc	.+4      	;  0x7132
    712e:	47 98       	cbi	0x08, 7	; 8
    7130:	08 95       	ret
    7132:	47 9a       	sbi	0x08, 7	; 8
    7134:	08 95       	ret
    7136:	1f 92       	push	r1                               ; Push onto stack
    7138:	0f 92       	push	r0                               ; Push onto stack
    713a:	0f b6       	in	r0, 0x3f	; 63                      ; Input from I/O port
    713c:	0f 92       	push	r0                               ; Push onto stack
    713e:	11 24       	eor	r1, r1
    7140:	2f 93       	push	r18                              ; Push onto stack
    7142:	8f 93       	push	r24                              ; Push onto stack
    7144:	9f 93       	push	r25                              ; Push onto stack
    7146:	ef 93       	push	r30                              ; Push onto stack
    7148:	ff 93       	push	r31                              ; Push onto stack
    714a:	10 92 85 00 	sts	0x0085, r1	;  0x800085            ; Store to data space
    714e:	10 92 84 00 	sts	0x0084, r1	;  0x800084            ; Store to data space
    7152:	80 91 a8 01 	lds	r24, 0x01A8	;  0x8001a8           ; Load from data space
    7156:	90 91 a9 01 	lds	r25, 0x01A9	;  0x8001a9           ; Load from data space
    715a:	00 97       	sbiw	r24, 0x00	; 0
    715c:	41 f0       	breq	.+16     	;  0x716e              ; Branch if equal
    715e:	01 97       	sbiw	r24, 0x01	; 1
    7160:	90 93 a9 01 	sts	0x01A9, r25	;  0x8001a9           ; Store to data space
    7164:	80 93 a8 01 	sts	0x01A8, r24	;  0x8001a8           ; Store to data space
    7168:	89 2b       	or	r24, r25
    716a:	09 f4       	brne	.+2      	;  0x716e              ; Branch if not equal
    716c:	5d 9a       	sbi	0x0b, 5	; 11
    716e:	80 91 aa 01 	lds	r24, 0x01AA	;  0x8001aa           ; Load from data space
    7172:	90 91 ab 01 	lds	r25, 0x01AB	;  0x8001ab           ; Load from data space
    7176:	00 97       	sbiw	r24, 0x00	; 0
    7178:	41 f0       	breq	.+16     	;  0x718a              ; Branch if equal
    717a:	01 97       	sbiw	r24, 0x01	; 1
    717c:	90 93 ab 01 	sts	0x01AB, r25	;  0x8001ab           ; Store to data space
    7180:	80 93 aa 01 	sts	0x01AA, r24	;  0x8001aa           ; Store to data space
    7184:	89 2b       	or	r24, r25
    7186:	09 f4       	brne	.+2      	;  0x718a              ; Branch if not equal
    7188:	28 9a       	sbi	0x05, 0	; 5
    718a:	e0 e0       	ldi	r30, 0x00	; 0                     ; Load immediate value
    718c:	f0 e0       	ldi	r31, 0x00	; 0                     ; Load immediate value
    718e:	85 91       	lpm	r24, Z+
    7190:	94 91       	lpm	r25, Z
    7192:	8f 5f       	subi	r24, 0xFF	; 255
    7194:	9f 4f       	sbci	r25, 0xFF	; 255
    7196:	49 f0       	breq	.+18     	;  0x71aa              ; Branch if equal
    7198:	80 91 ac 01 	lds	r24, 0x01AC	;  0x8001ac           ; Load from data space
    719c:	90 91 ad 01 	lds	r25, 0x01AD	;  0x8001ad           ; Load from data space
    71a0:	01 96       	adiw	r24, 0x01	; 1
    71a2:	90 93 ad 01 	sts	0x01AD, r25	;  0x8001ad           ; Store to data space
    71a6:	80 93 ac 01 	sts	0x01AC, r24	;  0x8001ac           ; Store to data space
    71aa:	ff 91       	pop	r31                               ; Pop from stack
    71ac:	ef 91       	pop	r30                               ; Pop from stack
    71ae:	9f 91       	pop	r25                               ; Pop from stack
    71b0:	8f 91       	pop	r24                               ; Pop from stack
    71b2:	2f 91       	pop	r18                               ; Pop from stack
    71b4:	0f 90       	pop	r0                                ; Pop from stack
    71b6:	0f be       	out	0x3f, r0	; 63                     ; Output to I/O port
    71b8:	0f 90       	pop	r0                                ; Pop from stack
    71ba:	1f 90       	pop	r1                                ; Pop from stack
    71bc:	18 95       	reti
    71be:	84 e0       	ldi	r24, 0x04	; 4                     ; Load immediate value
    71c0:	80 93 e9 00 	sts	0x00E9, r24	;  0x8000e9           ; Store to data space
    71c4:	0d c0       	rjmp	.+26     	;  0x71e0              ; Relative jump
    71c6:	80 91 e8 00 	lds	r24, 0x00E8	;  0x8000e8           ; Load from data space
    71ca:	8b 77       	andi	r24, 0x7B	; 123
    71cc:	80 93 e8 00 	sts	0x00E8, r24	;  0x8000e8           ; Store to data space
    71d0:	03 c0       	rjmp	.+6      	;  0x71d8              ; Relative jump
    71d2:	8e b3       	in	r24, 0x1e	; 30                     ; Input from I/O port
    71d4:	88 23       	and	r24, r24
    71d6:	51 f0       	breq	.+20     	;  0x71ec              ; Branch if equal
    71d8:	80 91 e8 00 	lds	r24, 0x00E8	;  0x8000e8           ; Load from data space
    71dc:	82 ff       	sbrs	r24, 2
    71de:	f9 cf       	rjmp	.-14     	;  0x71d2              ; Relative jump
    71e0:	80 91 e8 00 	lds	r24, 0x00E8	;  0x8000e8           ; Load from data space
    71e4:	85 ff       	sbrs	r24, 5
    71e6:	ef cf       	rjmp	.-34     	;  0x71c6              ; Relative jump
    71e8:	80 91 f1 00 	lds	r24, 0x00F1	;  0x8000f1           ; Load from data space
    71ec:	08 95       	ret
    71ee:	98 2f       	mov	r25, r24                          ; Move register to register
    71f0:	83 e0       	ldi	r24, 0x03	; 3                     ; Load immediate value
    71f2:	80 93 e9 00 	sts	0x00E9, r24	;  0x8000e9           ; Store to data space
    71f6:	80 91 e8 00 	lds	r24, 0x00E8	;  0x8000e8           ; Load from data space
    71fa:	85 fd       	sbrc	r24, 5
    71fc:	0d c0       	rjmp	.+26     	;  0x7218              ; Relative jump
    71fe:	80 91 e8 00 	lds	r24, 0x00E8	;  0x8000e8           ; Load from data space
    7202:	8e 77       	andi	r24, 0x7E	; 126
    7204:	80 93 e8 00 	sts	0x00E8, r24	;  0x8000e8           ; Store to data space
    7208:	03 c0       	rjmp	.+6      	;  0x7210              ; Relative jump
    720a:	8e b3       	in	r24, 0x1e	; 30                     ; Input from I/O port
    720c:	88 23       	and	r24, r24
    720e:	69 f0       	breq	.+26     	;  0x722a              ; Branch if equal
    7210:	80 91 e8 00 	lds	r24, 0x00E8	;  0x8000e8           ; Load from data space
    7214:	80 ff       	sbrs	r24, 0
    7216:	f9 cf       	rjmp	.-14     	;  0x720a              ; Relative jump
    7218:	90 93 f1 00 	sts	0x00F1, r25	;  0x8000f1           ; Store to data space
    721c:	5d 98       	cbi	0x0b, 5	; 11
    721e:	84 e6       	ldi	r24, 0x64	; 100                   ; Load immediate value
    7220:	90 e0       	ldi	r25, 0x00	; 0                     ; Load immediate value
    7222:	90 93 a9 01 	sts	0x01A9, r25	;  0x8001a9           ; Store to data space
    7226:	80 93 a8 01 	sts	0x01A8, r24	;  0x8001a8           ; Store to data space
    722a:	08 95       	ret
    722c:	4f 92       	push	r4                               ; Push onto stack
    722e:	5f 92       	push	r5                               ; Push onto stack
    7230:	6f 92       	push	r6                               ; Push onto stack
    7232:	7f 92       	push	r7                               ; Push onto stack
    7234:	8f 92       	push	r8                               ; Push onto stack
    7236:	9f 92       	push	r9                               ; Push onto stack
    7238:	af 92       	push	r10                              ; Push onto stack
    723a:	bf 92       	push	r11                              ; Push onto stack
    723c:	cf 92       	push	r12                              ; Push onto stack
    723e:	df 92       	push	r13                              ; Push onto stack
    7240:	ef 92       	push	r14                              ; Push onto stack
    7242:	ff 92       	push	r15                              ; Push onto stack
    7244:	0f 93       	push	r16                              ; Push onto stack
    7246:	1f 93       	push	r17                              ; Push onto stack
    7248:	cf 93       	push	r28                              ; Push onto stack
    724a:	df 93       	push	r29                              ; Push onto stack
    724c:	84 e0       	ldi	r24, 0x04	; 4                     ; Load immediate value
    724e:	80 93 e9 00 	sts	0x00E9, r24	;  0x8000e9           ; Store to data space
    7252:	80 91 e8 00 	lds	r24, 0x00E8	;  0x8000e8           ; Load from data space
    7256:	82 ff       	sbrs	r24, 2
    7258:	57 c2       	rjmp	.+1198   	;  0x7708              ; Relative jump
    725a:	28 98       	cbi	0x05, 0	; 5
    725c:	84 e6       	ldi	r24, 0x64	; 100                   ; Load immediate value
    725e:	90 e0       	ldi	r25, 0x00	; 0                     ; Load immediate value
    7260:	90 93 ab 01 	sts	0x01AB, r25	;  0x8001ab           ; Store to data space
    7264:	80 93 aa 01 	sts	0x01AA, r24	;  0x8001aa           ; Store to data space
    7268:	aa df       	rcall	.-172    	;  0x71be
    726a:	18 2f       	mov	r17, r24                          ; Move register to register
    726c:	85 34       	cpi	r24, 0x45	; 69                    ; Compare with immediate
    726e:	81 f4       	brne	.+32     	;  0x7290              ; Branch if not equal
    7270:	8c e4       	ldi	r24, 0x4C	; 76                    ; Load immediate value
    7272:	9d e1       	ldi	r25, 0x1D	; 29                    ; Load immediate value
    7274:	90 93 ad 01 	sts	0x01AD, r25	;  0x8001ad           ; Store to data space
    7278:	80 93 ac 01 	sts	0x01AC, r24	;  0x8001ac           ; Store to data space
    727c:	07 b6       	in	r0, 0x37	; 55                      ; Input from I/O port
    727e:	00 fc       	sbrc	r0, 0
    7280:	fd cf       	rjmp	.-6      	;  0x727c              ; Relative jump
    7282:	f9 99       	sbic	0x1f, 1	; 31
    7284:	fe cf       	rjmp	.-4      	;  0x7282              ; Relative jump
    7286:	81 e1       	ldi	r24, 0x11	; 17                    ; Load immediate value
    7288:	80 93 57 00 	sts	0x0057, r24	;  0x800057           ; Store to data space
    728c:	e8 95       	spm
    728e:	03 c0       	rjmp	.+6      	;  0x7296              ; Relative jump
    7290:	84 35       	cpi	r24, 0x54	; 84                    ; Compare with immediate
    7292:	19 f4       	brne	.+6      	;  0x729a              ; Branch if not equal
    7294:	94 df       	rcall	.-216    	;  0x71be
    7296:	8d e0       	ldi	r24, 0x0D	; 13                    ; Load immediate value
    7298:	0d c2       	rjmp	.+1050   	;  0x76b4              ; Relative jump
    729a:	8c 34       	cpi	r24, 0x4C	; 76                    ; Compare with immediate
    729c:	e1 f3       	breq	.-8      	;  0x7296              ; Branch if equal
    729e:	80 35       	cpi	r24, 0x50	; 80                    ; Compare with immediate
    72a0:	d1 f3       	breq	.-12     	;  0x7296              ; Branch if equal
    72a2:	84 37       	cpi	r24, 0x74	; 116                   ; Compare with immediate
    72a4:	21 f4       	brne	.+8      	;  0x72ae              ; Branch if not equal
    72a6:	84 e4       	ldi	r24, 0x44	; 68                    ; Load immediate value
    72a8:	a2 df       	rcall	.-188    	;  0x71ee
    72aa:	80 e0       	ldi	r24, 0x00	; 0                     ; Load immediate value
    72ac:	03 c2       	rjmp	.+1030   	;  0x76b4              ; Relative jump
    72ae:	81 36       	cpi	r24, 0x61	; 97                    ; Compare with immediate
    72b0:	11 f4       	brne	.+4      	;  0x72b6              ; Branch if not equal
    72b2:	89 e5       	ldi	r24, 0x59	; 89                    ; Load immediate value
    72b4:	ff c1       	rjmp	.+1022   	;  0x76b4              ; Relative jump
    72b6:	81 34       	cpi	r24, 0x41	; 65                    ; Compare with immediate
    72b8:	b1 f4       	brne	.+44     	;  0x72e6              ; Branch if not equal
    72ba:	81 df       	rcall	.-254    	;  0x71be
    72bc:	18 2f       	mov	r17, r24                          ; Move register to register
    72be:	7f df       	rcall	.-258    	;  0x71be
    72c0:	90 e0       	ldi	r25, 0x00	; 0                     ; Load immediate value
    72c2:	88 0f       	add	r24, r24
    72c4:	99 1f       	adc	r25, r25
    72c6:	aa 27       	eor	r26, r26
    72c8:	97 fd       	sbrc	r25, 7
    72ca:	a0 95       	com	r26
    72cc:	ba 2f       	mov	r27, r26                          ; Move register to register
    72ce:	31 2f       	mov	r19, r17                          ; Move register to register
    72d0:	33 0f       	add	r19, r19
    72d2:	20 e0       	ldi	r18, 0x00	; 0                     ; Load immediate value
    72d4:	44 27       	eor	r20, r20
    72d6:	37 fd       	sbrc	r19, 7
    72d8:	40 95       	com	r20
    72da:	54 2f       	mov	r21, r20                          ; Move register to register
    72dc:	82 2b       	or	r24, r18
    72de:	93 2b       	or	r25, r19
    72e0:	a4 2b       	or	r26, r20
    72e2:	b5 2b       	or	r27, r21
    72e4:	b8 c1       	rjmp	.+880    	;  0x7656              ; Relative jump
    72e6:	80 37       	cpi	r24, 0x70	; 112                   ; Compare with immediate
    72e8:	11 f4       	brne	.+4      	;  0x72ee              ; Branch if not equal
    72ea:	83 e5       	ldi	r24, 0x53	; 83                    ; Load immediate value
    72ec:	e3 c1       	rjmp	.+966    	;  0x76b4              ; Relative jump
    72ee:	83 35       	cpi	r24, 0x53	; 83                    ; Compare with immediate
    72f0:	49 f4       	brne	.+18     	;  0x7304              ; Branch if not equal
    72f2:	c0 e0       	ldi	r28, 0x00	; 0                     ; Load immediate value
    72f4:	d1 e0       	ldi	r29, 0x01	; 1                     ; Load immediate value
    72f6:	89 91       	ld	r24, Y+
    72f8:	7a df       	rcall	.-268    	;  0x71ee
    72fa:	21 e0       	ldi	r18, 0x01	; 1                     ; Load immediate value
    72fc:	c7 30       	cpi	r28, 0x07	; 7                     ; Compare with immediate
    72fe:	d2 07       	cpc	r29, r18
    7300:	d1 f7       	brne	.-12     	;  0x72f6              ; Branch if not equal
    7302:	d9 c1       	rjmp	.+946    	;  0x76b6              ; Relative jump
    7304:	86 35       	cpi	r24, 0x56	; 86                    ; Compare with immediate
    7306:	21 f4       	brne	.+8      	;  0x7310              ; Branch if not equal
    7308:	81 e3       	ldi	r24, 0x31	; 49                    ; Load immediate value
    730a:	71 df       	rcall	.-286    	;  0x71ee
    730c:	80 e3       	ldi	r24, 0x30	; 48                    ; Load immediate value
    730e:	d2 c1       	rjmp	.+932    	;  0x76b4              ; Relative jump
    7310:	83 37       	cpi	r24, 0x73	; 115                   ; Compare with immediate
    7312:	31 f4       	brne	.+12     	;  0x7320              ; Branch if not equal
    7314:	87 e8       	ldi	r24, 0x87	; 135                   ; Load immediate value
    7316:	6b df       	rcall	.-298    	;  0x71ee
    7318:	85 e9       	ldi	r24, 0x95	; 149                   ; Load immediate value
    731a:	69 df       	rcall	.-302    	;  0x71ee
    731c:	8e e1       	ldi	r24, 0x1E	; 30                    ; Load immediate value
    731e:	ca c1       	rjmp	.+916    	;  0x76b4              ; Relative jump
    7320:	85 36       	cpi	r24, 0x65	; 101                   ; Compare with immediate
    7322:	b9 f4       	brne	.+46     	;  0x7352              ; Branch if not equal
    7324:	e0 e0       	ldi	r30, 0x00	; 0                     ; Load immediate value
    7326:	f0 e0       	ldi	r31, 0x00	; 0                     ; Load immediate value
    7328:	93 e0       	ldi	r25, 0x03	; 3                     ; Load immediate value
    732a:	85 e0       	ldi	r24, 0x05	; 5                     ; Load immediate value
    732c:	90 93 57 00 	sts	0x0057, r25	;  0x800057           ; Store to data space
    7330:	e8 95       	spm
    7332:	07 b6       	in	r0, 0x37	; 55                      ; Input from I/O port
    7334:	00 fc       	sbrc	r0, 0
    7336:	fd cf       	rjmp	.-6      	;  0x7332              ; Relative jump
    7338:	80 93 57 00 	sts	0x0057, r24	;  0x800057           ; Store to data space
    733c:	e8 95       	spm
    733e:	07 b6       	in	r0, 0x37	; 55                      ; Input from I/O port
    7340:	00 fc       	sbrc	r0, 0
    7342:	fd cf       	rjmp	.-6      	;  0x733e              ; Relative jump
    7344:	e0 58       	subi	r30, 0x80	; 128
    7346:	ff 4f       	sbci	r31, 0xFF	; 255
    7348:	a0 e7       	ldi	r26, 0x70	; 112                   ; Load immediate value
    734a:	e0 30       	cpi	r30, 0x00	; 0                     ; Compare with immediate
    734c:	fa 07       	cpc	r31, r26
    734e:	71 f7       	brne	.-36     	;  0x732c              ; Branch if not equal
    7350:	a2 cf       	rjmp	.-188    	;  0x7296              ; Relative jump
    7352:	82 37       	cpi	r24, 0x72	; 114                   ; Compare with immediate
    7354:	39 f4       	brne	.+14     	;  0x7364              ; Branch if not equal
    7356:	e1 e0       	ldi	r30, 0x01	; 1                     ; Load immediate value
    7358:	f0 e0       	ldi	r31, 0x00	; 0                     ; Load immediate value
    735a:	89 e0       	ldi	r24, 0x09	; 9                     ; Load immediate value
    735c:	80 93 57 00 	sts	0x0057, r24	;  0x800057           ; Store to data space
    7360:	84 91       	lpm	r24, Z
    7362:	a8 c1       	rjmp	.+848    	;  0x76b4              ; Relative jump
    7364:	86 34       	cpi	r24, 0x46	; 70                    ; Compare with immediate
    7366:	39 f4       	brne	.+14     	;  0x7376              ; Branch if not equal
    7368:	e0 e0       	ldi	r30, 0x00	; 0                     ; Load immediate value
    736a:	f0 e0       	ldi	r31, 0x00	; 0                     ; Load immediate value
    736c:	89 e0       	ldi	r24, 0x09	; 9                     ; Load immediate value
    736e:	80 93 57 00 	sts	0x0057, r24	;  0x800057           ; Store to data space
    7372:	84 91       	lpm	r24, Z
    7374:	9f c1       	rjmp	.+830    	;  0x76b4              ; Relative jump
    7376:	8e 34       	cpi	r24, 0x4E	; 78                    ; Compare with immediate
    7378:	39 f4       	brne	.+14     	;  0x7388              ; Branch if not equal
    737a:	e3 e0       	ldi	r30, 0x03	; 3                     ; Load immediate value
    737c:	f0 e0       	ldi	r31, 0x00	; 0                     ; Load immediate value
    737e:	89 e0       	ldi	r24, 0x09	; 9                     ; Load immediate value
    7380:	80 93 57 00 	sts	0x0057, r24	;  0x800057           ; Store to data space
    7384:	84 91       	lpm	r24, Z
    7386:	96 c1       	rjmp	.+812    	;  0x76b4              ; Relative jump
    7388:	81 35       	cpi	r24, 0x51	; 81                    ; Compare with immediate
    738a:	39 f4       	brne	.+14     	;  0x739a              ; Branch if not equal
    738c:	e2 e0       	ldi	r30, 0x02	; 2                     ; Load immediate value
    738e:	f0 e0       	ldi	r31, 0x00	; 0                     ; Load immediate value
    7390:	89 e0       	ldi	r24, 0x09	; 9                     ; Load immediate value
    7392:	80 93 57 00 	sts	0x0057, r24	;  0x800057           ; Store to data space
    7396:	84 91       	lpm	r24, Z
    7398:	8d c1       	rjmp	.+794    	;  0x76b4              ; Relative jump
    739a:	82 36       	cpi	r24, 0x62	; 98                    ; Compare with immediate
    739c:	31 f4       	brne	.+12     	;  0x73aa              ; Branch if not equal
    739e:	89 e5       	ldi	r24, 0x59	; 89                    ; Load immediate value
    73a0:	26 df       	rcall	.-436    	;  0x71ee
    73a2:	80 e0       	ldi	r24, 0x00	; 0                     ; Load immediate value
    73a4:	24 df       	rcall	.-440    	;  0x71ee
    73a6:	80 e8       	ldi	r24, 0x80	; 128                   ; Load immediate value
    73a8:	85 c1       	rjmp	.+778    	;  0x76b4              ; Relative jump
    73aa:	82 34       	cpi	r24, 0x42	; 66                    ; Compare with immediate
    73ac:	19 f0       	breq	.+6      	;  0x73b4              ; Branch if equal
    73ae:	87 36       	cpi	r24, 0x67	; 103                   ; Compare with immediate
    73b0:	09 f0       	breq	.+2      	;  0x73b4              ; Branch if equal
    73b2:	e5 c0       	rjmp	.+458    	;  0x757e              ; Relative jump
    73b4:	10 92 ad 01 	sts	0x01AD, r1	;  0x8001ad            ; Store to data space
    73b8:	10 92 ac 01 	sts	0x01AC, r1	;  0x8001ac            ; Store to data space
    73bc:	00 df       	rcall	.-512    	;  0x71be
    73be:	08 2f       	mov	r16, r24                          ; Move register to register
    73c0:	fe de       	rcall	.-516    	;  0x71be
    73c2:	f8 2e       	mov	r15, r24                          ; Move register to register
    73c4:	fc de       	rcall	.-520    	;  0x71be
    73c6:	68 2e       	mov	r6, r24                           ; Move register to register
    73c8:	85 54       	subi	r24, 0x45	; 69
    73ca:	82 30       	cpi	r24, 0x02	; 2                     ; Compare with immediate
    73cc:	08 f0       	brcs	.+2      	;  0x73d0
    73ce:	71 c1       	rjmp	.+738    	;  0x76b2              ; Relative jump
    73d0:	90 2f       	mov	r25, r16                          ; Move register to register
    73d2:	80 e0       	ldi	r24, 0x00	; 0                     ; Load immediate value
    73d4:	cf 2d       	mov	r28, r15                          ; Move register to register
    73d6:	d0 e0       	ldi	r29, 0x00	; 0                     ; Load immediate value
    73d8:	c8 2b       	or	r28, r24
    73da:	d9 2b       	or	r29, r25
    73dc:	10 92 6f 00 	sts	0x006F, r1	;  0x80006f            ; Store to data space
    73e0:	17 36       	cpi	r17, 0x67	; 103                   ; Compare with immediate
    73e2:	09 f0       	breq	.+2      	;  0x73e6              ; Branch if equal
    73e4:	4b c0       	rjmp	.+150    	;  0x747c              ; Relative jump
    73e6:	81 e1       	ldi	r24, 0x11	; 17                    ; Load immediate value
    73e8:	80 93 57 00 	sts	0x0057, r24	;  0x800057           ; Store to data space
    73ec:	e8 95       	spm
    73ee:	dd 24       	eor	r13, r13
    73f0:	cc 24       	eor	r12, r12
    73f2:	c3 94       	inc	r12
    73f4:	3f c0       	rjmp	.+126    	;  0x7474              ; Relative jump
    73f6:	e0 90 ae 01 	lds	r14, 0x01AE	;  0x8001ae           ; Load from data space
    73fa:	f0 90 af 01 	lds	r15, 0x01AF	;  0x8001af           ; Load from data space
    73fe:	00 91 b0 01 	lds	r16, 0x01B0	;  0x8001b0           ; Load from data space
    7402:	10 91 b1 01 	lds	r17, 0x01B1	;  0x8001b1           ; Load from data space
    7406:	b6 e4       	ldi	r27, 0x46	; 70                    ; Load immediate value
    7408:	6b 16       	cp	r6, r27
    740a:	d9 f4       	brne	.+54     	;  0x7442              ; Branch if not equal
    740c:	ed 2d       	mov	r30, r13                          ; Move register to register
    740e:	f0 e0       	ldi	r31, 0x00	; 0                     ; Load immediate value
    7410:	ee 29       	or	r30, r14
    7412:	ff 29       	or	r31, r15
    7414:	e4 91       	lpm	r30, Z
    7416:	8e 2f       	mov	r24, r30                          ; Move register to register
    7418:	ea de       	rcall	.-556    	;  0x71ee
    741a:	dd 20       	and	r13, r13
    741c:	81 f0       	breq	.+32     	;  0x743e              ; Branch if equal
    741e:	82 e0       	ldi	r24, 0x02	; 2                     ; Load immediate value
    7420:	90 e0       	ldi	r25, 0x00	; 0                     ; Load immediate value
    7422:	a0 e0       	ldi	r26, 0x00	; 0                     ; Load immediate value
    7424:	b0 e0       	ldi	r27, 0x00	; 0                     ; Load immediate value
    7426:	e8 0e       	add	r14, r24
    7428:	f9 1e       	adc	r15, r25
    742a:	0a 1f       	adc	r16, r26
    742c:	1b 1f       	adc	r17, r27
    742e:	e0 92 ae 01 	sts	0x01AE, r14	;  0x8001ae           ; Store to data space
    7432:	f0 92 af 01 	sts	0x01AF, r15	;  0x8001af           ; Store to data space
    7436:	00 93 b0 01 	sts	0x01B0, r16	;  0x8001b0           ; Store to data space
    743a:	10 93 b1 01 	sts	0x01B1, r17	;  0x8001b1           ; Store to data space
    743e:	dc 24       	eor	r13, r12
    7440:	18 c0       	rjmp	.+48     	;  0x7472              ; Relative jump
    7442:	d8 01       	movw	r26, r16
    7444:	c7 01       	movw	r24, r14
    7446:	b6 95       	lsr	r27
    7448:	a7 95       	ror	r26
    744a:	97 95       	ror	r25
    744c:	87 95       	ror	r24
    744e:	59 d5       	rcall	.+2738   	;  0x7f02
    7450:	ce de       	rcall	.-612    	;  0x71ee
    7452:	82 e0       	ldi	r24, 0x02	; 2                     ; Load immediate value
    7454:	90 e0       	ldi	r25, 0x00	; 0                     ; Load immediate value
    7456:	a0 e0       	ldi	r26, 0x00	; 0                     ; Load immediate value
    7458:	b0 e0       	ldi	r27, 0x00	; 0                     ; Load immediate value
    745a:	e8 0e       	add	r14, r24
    745c:	f9 1e       	adc	r15, r25
    745e:	0a 1f       	adc	r16, r26
    7460:	1b 1f       	adc	r17, r27
    7462:	e0 92 ae 01 	sts	0x01AE, r14	;  0x8001ae           ; Store to data space
    7466:	f0 92 af 01 	sts	0x01AF, r15	;  0x8001af           ; Store to data space
    746a:	00 93 b0 01 	sts	0x01B0, r16	;  0x8001b0           ; Store to data space
    746e:	10 93 b1 01 	sts	0x01B1, r17	;  0x8001b1           ; Store to data space
    7472:	21 97       	sbiw	r28, 0x01	; 1
    7474:	20 97       	sbiw	r28, 0x00	; 0
    7476:	09 f0       	breq	.+2      	;  0x747a              ; Branch if equal
    7478:	be cf       	rjmp	.-132    	;  0x73f6              ; Relative jump
    747a:	7d c0       	rjmp	.+250    	;  0x7576              ; Relative jump
    747c:	80 90 ae 01 	lds	r8, 0x01AE	;  0x8001ae            ; Load from data space
    7480:	90 90 af 01 	lds	r9, 0x01AF	;  0x8001af            ; Load from data space
    7484:	a0 90 b0 01 	lds	r10, 0x01B0	;  0x8001b0           ; Load from data space
    7488:	b0 90 b1 01 	lds	r11, 0x01B1	;  0x8001b1           ; Load from data space
    748c:	96 e4       	ldi	r25, 0x46	; 70                    ; Load immediate value
    748e:	69 16       	cp	r6, r25
    7490:	09 f0       	breq	.+2      	;  0x7494              ; Branch if equal
    7492:	5d c0       	rjmp	.+186    	;  0x754e              ; Relative jump
    7494:	83 e0       	ldi	r24, 0x03	; 3                     ; Load immediate value
    7496:	f4 01       	movw	r30, r8
    7498:	80 93 57 00 	sts	0x0057, r24	;  0x800057           ; Store to data space
    749c:	e8 95       	spm
    749e:	07 b6       	in	r0, 0x37	; 55                      ; Input from I/O port
    74a0:	00 fc       	sbrc	r0, 0
    74a2:	fd cf       	rjmp	.-6      	;  0x749e              ; Relative jump
    74a4:	54 c0       	rjmp	.+168    	;  0x754e              ; Relative jump
    74a6:	f6 e4       	ldi	r31, 0x46	; 70                    ; Load immediate value
    74a8:	6f 16       	cp	r6, r31
    74aa:	61 f5       	brne	.+88     	;  0x7504              ; Branch if not equal
    74ac:	77 20       	and	r7, r7
    74ae:	31 f1       	breq	.+76     	;  0x74fc              ; Branch if equal
    74b0:	e0 90 ae 01 	lds	r14, 0x01AE	;  0x8001ae           ; Load from data space
    74b4:	f0 90 af 01 	lds	r15, 0x01AF	;  0x8001af           ; Load from data space
    74b8:	00 91 b0 01 	lds	r16, 0x01B0	;  0x8001b0           ; Load from data space
    74bc:	10 91 b1 01 	lds	r17, 0x01B1	;  0x8001b1           ; Load from data space
    74c0:	7e de       	rcall	.-772    	;  0x71be
    74c2:	d8 2e       	mov	r13, r24                          ; Move register to register
    74c4:	cc 24       	eor	r12, r12
    74c6:	85 2d       	mov	r24, r5                           ; Move register to register
    74c8:	90 e0       	ldi	r25, 0x00	; 0                     ; Load immediate value
    74ca:	8c 29       	or	r24, r12
    74cc:	9d 29       	or	r25, r13
    74ce:	f7 01       	movw	r30, r14
    74d0:	0c 01       	movw	r0, r24
    74d2:	40 92 57 00 	sts	0x0057, r4	;  0x800057            ; Store to data space
    74d6:	e8 95       	spm
    74d8:	11 24       	eor	r1, r1
    74da:	82 e0       	ldi	r24, 0x02	; 2                     ; Load immediate value
    74dc:	90 e0       	ldi	r25, 0x00	; 0                     ; Load immediate value
    74de:	a0 e0       	ldi	r26, 0x00	; 0                     ; Load immediate value
    74e0:	b0 e0       	ldi	r27, 0x00	; 0                     ; Load immediate value
    74e2:	e8 0e       	add	r14, r24
    74e4:	f9 1e       	adc	r15, r25
    74e6:	0a 1f       	adc	r16, r26
    74e8:	1b 1f       	adc	r17, r27
    74ea:	e0 92 ae 01 	sts	0x01AE, r14	;  0x8001ae           ; Store to data space
    74ee:	f0 92 af 01 	sts	0x01AF, r15	;  0x8001af           ; Store to data space
    74f2:	00 93 b0 01 	sts	0x01B0, r16	;  0x8001b0           ; Store to data space
    74f6:	10 93 b1 01 	sts	0x01B1, r17	;  0x8001b1           ; Store to data space
    74fa:	02 c0       	rjmp	.+4      	;  0x7500              ; Relative jump
    74fc:	60 de       	rcall	.-832    	;  0x71be
    74fe:	58 2e       	mov	r5, r24                           ; Move register to register
    7500:	74 24       	eor	r7, r4
    7502:	23 c0       	rjmp	.+70     	;  0x754a              ; Relative jump
    7504:	e0 90 ae 01 	lds	r14, 0x01AE	;  0x8001ae           ; Load from data space
    7508:	f0 90 af 01 	lds	r15, 0x01AF	;  0x8001af           ; Load from data space
    750c:	00 91 b0 01 	lds	r16, 0x01B0	;  0x8001b0           ; Load from data space
    7510:	10 91 b1 01 	lds	r17, 0x01B1	;  0x8001b1           ; Load from data space
    7514:	16 95       	lsr	r17
    7516:	07 95       	ror	r16
    7518:	f7 94       	ror	r15
    751a:	e7 94       	ror	r14
    751c:	50 de       	rcall	.-864    	;  0x71be
    751e:	68 2f       	mov	r22, r24                          ; Move register to register
    7520:	c7 01       	movw	r24, r14
    7522:	f7 d4       	rcall	.+2542   	;  0x7f12
    7524:	80 91 ae 01 	lds	r24, 0x01AE	;  0x8001ae           ; Load from data space
    7528:	90 91 af 01 	lds	r25, 0x01AF	;  0x8001af           ; Load from data space
    752c:	a0 91 b0 01 	lds	r26, 0x01B0	;  0x8001b0           ; Load from data space
    7530:	b0 91 b1 01 	lds	r27, 0x01B1	;  0x8001b1           ; Load from data space
    7534:	02 96       	adiw	r24, 0x02	; 2
    7536:	a1 1d       	adc	r26, r1
    7538:	b1 1d       	adc	r27, r1
    753a:	80 93 ae 01 	sts	0x01AE, r24	;  0x8001ae           ; Store to data space
    753e:	90 93 af 01 	sts	0x01AF, r25	;  0x8001af           ; Store to data space
    7542:	a0 93 b0 01 	sts	0x01B0, r26	;  0x8001b0           ; Store to data space
    7546:	b0 93 b1 01 	sts	0x01B1, r27	;  0x8001b1           ; Store to data space
    754a:	21 97       	sbiw	r28, 0x01	; 1
    754c:	04 c0       	rjmp	.+8      	;  0x7556              ; Relative jump
    754e:	55 24       	eor	r5, r5
    7550:	77 24       	eor	r7, r7
    7552:	44 24       	eor	r4, r4
    7554:	43 94       	inc	r4
    7556:	20 97       	sbiw	r28, 0x00	; 0
    7558:	09 f0       	breq	.+2      	;  0x755c              ; Branch if equal
    755a:	a5 cf       	rjmp	.-182    	;  0x74a6              ; Relative jump
    755c:	96 e4       	ldi	r25, 0x46	; 70                    ; Load immediate value
    755e:	69 16       	cp	r6, r25
    7560:	41 f4       	brne	.+16     	;  0x7572              ; Branch if not equal
    7562:	85 e0       	ldi	r24, 0x05	; 5                     ; Load immediate value
    7564:	f4 01       	movw	r30, r8
    7566:	80 93 57 00 	sts	0x0057, r24	;  0x800057           ; Store to data space
    756a:	e8 95       	spm
    756c:	07 b6       	in	r0, 0x37	; 55                      ; Input from I/O port
    756e:	00 fc       	sbrc	r0, 0
    7570:	fd cf       	rjmp	.-6      	;  0x756c              ; Relative jump
    7572:	8d e0       	ldi	r24, 0x0D	; 13                    ; Load immediate value
    7574:	3c de       	rcall	.-904    	;  0x71ee
    7576:	82 e0       	ldi	r24, 0x02	; 2                     ; Load immediate value
    7578:	80 93 6f 00 	sts	0x006F, r24	;  0x80006f           ; Store to data space
    757c:	9c c0       	rjmp	.+312    	;  0x76b6              ; Relative jump
    757e:	83 34       	cpi	r24, 0x43	; 67                    ; Compare with immediate
    7580:	71 f4       	brne	.+28     	;  0x759e              ; Branch if not equal
    7582:	00 91 ae 01 	lds	r16, 0x01AE	;  0x8001ae           ; Load from data space
    7586:	10 91 af 01 	lds	r17, 0x01AF	;  0x8001af           ; Load from data space
    758a:	19 de       	rcall	.-974    	;  0x71be
    758c:	90 e0       	ldi	r25, 0x00	; 0                     ; Load immediate value
    758e:	21 e0       	ldi	r18, 0x01	; 1                     ; Load immediate value
    7590:	f8 01       	movw	r30, r16
    7592:	0c 01       	movw	r0, r24
    7594:	20 93 57 00 	sts	0x0057, r18	;  0x800057           ; Store to data space
    7598:	e8 95       	spm
    759a:	11 24       	eor	r1, r1
    759c:	7c ce       	rjmp	.-776    	;  0x7296              ; Relative jump
    759e:	83 36       	cpi	r24, 0x63	; 99                    ; Compare with immediate
    75a0:	19 f5       	brne	.+70     	;  0x75e8              ; Branch if not equal
    75a2:	e0 90 ae 01 	lds	r14, 0x01AE	;  0x8001ae           ; Load from data space
    75a6:	f0 90 af 01 	lds	r15, 0x01AF	;  0x8001af           ; Load from data space
    75aa:	00 91 b0 01 	lds	r16, 0x01B0	;  0x8001b0           ; Load from data space
    75ae:	10 91 b1 01 	lds	r17, 0x01B1	;  0x8001b1           ; Load from data space
    75b2:	05 de       	rcall	.-1014   	;  0x71be
    75b4:	f7 01       	movw	r30, r14
    75b6:	e1 60       	ori	r30, 0x01	; 1
    75b8:	90 e0       	ldi	r25, 0x00	; 0                     ; Load immediate value
    75ba:	21 e0       	ldi	r18, 0x01	; 1                     ; Load immediate value
    75bc:	0c 01       	movw	r0, r24
    75be:	20 93 57 00 	sts	0x0057, r18	;  0x800057           ; Store to data space
    75c2:	e8 95       	spm
    75c4:	11 24       	eor	r1, r1
    75c6:	82 e0       	ldi	r24, 0x02	; 2                     ; Load immediate value
    75c8:	90 e0       	ldi	r25, 0x00	; 0                     ; Load immediate value
    75ca:	a0 e0       	ldi	r26, 0x00	; 0                     ; Load immediate value
    75cc:	b0 e0       	ldi	r27, 0x00	; 0                     ; Load immediate value
    75ce:	e8 0e       	add	r14, r24
    75d0:	f9 1e       	adc	r15, r25
    75d2:	0a 1f       	adc	r16, r26
    75d4:	1b 1f       	adc	r17, r27
    75d6:	e0 92 ae 01 	sts	0x01AE, r14	;  0x8001ae           ; Store to data space
    75da:	f0 92 af 01 	sts	0x01AF, r15	;  0x8001af           ; Store to data space
    75de:	00 93 b0 01 	sts	0x01B0, r16	;  0x8001b0           ; Store to data space
    75e2:	10 93 b1 01 	sts	0x01B1, r17	;  0x8001b1           ; Store to data space
    75e6:	57 ce       	rjmp	.-850    	;  0x7296              ; Relative jump
    75e8:	8d 36       	cpi	r24, 0x6D	; 109                   ; Compare with immediate
    75ea:	61 f4       	brne	.+24     	;  0x7604              ; Branch if not equal
    75ec:	e0 91 ae 01 	lds	r30, 0x01AE	;  0x8001ae           ; Load from data space
    75f0:	f0 91 af 01 	lds	r31, 0x01AF	;  0x8001af           ; Load from data space
    75f4:	85 e0       	ldi	r24, 0x05	; 5                     ; Load immediate value
    75f6:	80 93 57 00 	sts	0x0057, r24	;  0x800057           ; Store to data space
    75fa:	e8 95       	spm
    75fc:	07 b6       	in	r0, 0x37	; 55                      ; Input from I/O port
    75fe:	00 fc       	sbrc	r0, 0
    7600:	fd cf       	rjmp	.-6      	;  0x75fc              ; Relative jump
    7602:	49 ce       	rjmp	.-878    	;  0x7296              ; Relative jump
    7604:	82 35       	cpi	r24, 0x52	; 82                    ; Compare with immediate
    7606:	51 f4       	brne	.+20     	;  0x761c              ; Branch if not equal
    7608:	e0 91 ae 01 	lds	r30, 0x01AE	;  0x8001ae           ; Load from data space
    760c:	f0 91 af 01 	lds	r31, 0x01AF	;  0x8001af           ; Load from data space
    7610:	05 91       	lpm	r16, Z+
    7612:	14 91       	lpm	r17, Z
    7614:	81 2f       	mov	r24, r17                          ; Move register to register
    7616:	eb dd       	rcall	.-1066   	;  0x71ee
    7618:	80 2f       	mov	r24, r16                          ; Move register to register
    761a:	4c c0       	rjmp	.+152    	;  0x76b4              ; Relative jump
    761c:	84 34       	cpi	r24, 0x44	; 68                    ; Compare with immediate
    761e:	21 f5       	brne	.+72     	;  0x7668              ; Branch if not equal
    7620:	e0 90 ae 01 	lds	r14, 0x01AE	;  0x8001ae           ; Load from data space
    7624:	f0 90 af 01 	lds	r15, 0x01AF	;  0x8001af           ; Load from data space
    7628:	00 91 b0 01 	lds	r16, 0x01B0	;  0x8001b0           ; Load from data space
    762c:	10 91 b1 01 	lds	r17, 0x01B1	;  0x8001b1           ; Load from data space
    7630:	16 95       	lsr	r17
    7632:	07 95       	ror	r16
    7634:	f7 94       	ror	r15
    7636:	e7 94       	ror	r14
    7638:	c2 dd       	rcall	.-1148   	;  0x71be
    763a:	68 2f       	mov	r22, r24                          ; Move register to register
    763c:	c7 01       	movw	r24, r14
    763e:	69 d4       	rcall	.+2258   	;  0x7f12
    7640:	80 91 ae 01 	lds	r24, 0x01AE	;  0x8001ae           ; Load from data space
    7644:	90 91 af 01 	lds	r25, 0x01AF	;  0x8001af           ; Load from data space
    7648:	a0 91 b0 01 	lds	r26, 0x01B0	;  0x8001b0           ; Load from data space
    764c:	b0 91 b1 01 	lds	r27, 0x01B1	;  0x8001b1           ; Load from data space
    7650:	02 96       	adiw	r24, 0x02	; 2
    7652:	a1 1d       	adc	r26, r1
    7654:	b1 1d       	adc	r27, r1
    7656:	80 93 ae 01 	sts	0x01AE, r24	;  0x8001ae           ; Store to data space
    765a:	90 93 af 01 	sts	0x01AF, r25	;  0x8001af           ; Store to data space
    765e:	a0 93 b0 01 	sts	0x01B0, r26	;  0x8001b0           ; Store to data space
    7662:	b0 93 b1 01 	sts	0x01B1, r27	;  0x8001b1           ; Store to data space
    7666:	17 ce       	rjmp	.-978    	;  0x7296              ; Relative jump
    7668:	84 36       	cpi	r24, 0x64	; 100                   ; Compare with immediate
    766a:	09 f5       	brne	.+66     	;  0x76ae              ; Branch if not equal
    766c:	e0 90 ae 01 	lds	r14, 0x01AE	;  0x8001ae           ; Load from data space
    7670:	f0 90 af 01 	lds	r15, 0x01AF	;  0x8001af           ; Load from data space
    7674:	00 91 b0 01 	lds	r16, 0x01B0	;  0x8001b0           ; Load from data space
    7678:	10 91 b1 01 	lds	r17, 0x01B1	;  0x8001b1           ; Load from data space
    767c:	d8 01       	movw	r26, r16
    767e:	c7 01       	movw	r24, r14
    7680:	b6 95       	lsr	r27
    7682:	a7 95       	ror	r26
    7684:	97 95       	ror	r25
    7686:	87 95       	ror	r24
    7688:	3c d4       	rcall	.+2168   	;  0x7f02
    768a:	b1 dd       	rcall	.-1182   	;  0x71ee
    768c:	82 e0       	ldi	r24, 0x02	; 2                     ; Load immediate value
    768e:	90 e0       	ldi	r25, 0x00	; 0                     ; Load immediate value
    7690:	a0 e0       	ldi	r26, 0x00	; 0                     ; Load immediate value
    7692:	b0 e0       	ldi	r27, 0x00	; 0                     ; Load immediate value
    7694:	e8 0e       	add	r14, r24
    7696:	f9 1e       	adc	r15, r25
    7698:	0a 1f       	adc	r16, r26
    769a:	1b 1f       	adc	r17, r27
    769c:	e0 92 ae 01 	sts	0x01AE, r14	;  0x8001ae           ; Store to data space
    76a0:	f0 92 af 01 	sts	0x01AF, r15	;  0x8001af           ; Store to data space
    76a4:	00 93 b0 01 	sts	0x01B0, r16	;  0x8001b0           ; Store to data space
    76a8:	10 93 b1 01 	sts	0x01B1, r17	;  0x8001b1           ; Store to data space
    76ac:	04 c0       	rjmp	.+8      	;  0x76b6              ; Relative jump
    76ae:	8b 31       	cpi	r24, 0x1B	; 27                    ; Compare with immediate
    76b0:	11 f0       	breq	.+4      	;  0x76b6              ; Branch if equal
    76b2:	8f e3       	ldi	r24, 0x3F	; 63                    ; Load immediate value
    76b4:	9c dd       	rcall	.-1224   	;  0x71ee
    76b6:	83 e0       	ldi	r24, 0x03	; 3                     ; Load immediate value
    76b8:	80 93 e9 00 	sts	0x00E9, r24	;  0x8000e9           ; Store to data space
    76bc:	90 91 e8 00 	lds	r25, 0x00E8	;  0x8000e8           ; Load from data space
    76c0:	80 91 e8 00 	lds	r24, 0x00E8	;  0x8000e8           ; Load from data space
    76c4:	8e 77       	andi	r24, 0x7E	; 126
    76c6:	80 93 e8 00 	sts	0x00E8, r24	;  0x8000e8           ; Store to data space
    76ca:	95 ff       	sbrs	r25, 5
    76cc:	04 c0       	rjmp	.+8      	;  0x76d6              ; Relative jump
    76ce:	10 c0       	rjmp	.+32     	;  0x76f0              ; Relative jump
    76d0:	8e b3       	in	r24, 0x1e	; 30                     ; Input from I/O port
    76d2:	88 23       	and	r24, r24
    76d4:	c9 f0       	breq	.+50     	;  0x7708              ; Branch if equal
    76d6:	80 91 e8 00 	lds	r24, 0x00E8	;  0x8000e8           ; Load from data space
    76da:	80 ff       	sbrs	r24, 0
    76dc:	f9 cf       	rjmp	.-14     	;  0x76d0              ; Relative jump
    76de:	80 91 e8 00 	lds	r24, 0x00E8	;  0x8000e8           ; Load from data space
    76e2:	8e 77       	andi	r24, 0x7E	; 126
    76e4:	80 93 e8 00 	sts	0x00E8, r24	;  0x8000e8           ; Store to data space
    76e8:	03 c0       	rjmp	.+6      	;  0x76f0              ; Relative jump
    76ea:	8e b3       	in	r24, 0x1e	; 30                     ; Input from I/O port
    76ec:	88 23       	and	r24, r24
    76ee:	61 f0       	breq	.+24     	;  0x7708              ; Branch if equal
    76f0:	80 91 e8 00 	lds	r24, 0x00E8	;  0x8000e8           ; Load from data space
    76f4:	80 ff       	sbrs	r24, 0
    76f6:	f9 cf       	rjmp	.-14     	;  0x76ea              ; Relative jump
    76f8:	84 e0       	ldi	r24, 0x04	; 4                     ; Load immediate value
    76fa:	80 93 e9 00 	sts	0x00E9, r24	;  0x8000e9           ; Store to data space
    76fe:	80 91 e8 00 	lds	r24, 0x00E8	;  0x8000e8           ; Load from data space
    7702:	8b 77       	andi	r24, 0x7B	; 123
    7704:	80 93 e8 00 	sts	0x00E8, r24	;  0x8000e8           ; Store to data space
    7708:	df 91       	pop	r29                               ; Pop from stack
    770a:	cf 91       	pop	r28                               ; Pop from stack
    770c:	1f 91       	pop	r17                               ; Pop from stack
    770e:	0f 91       	pop	r16                               ; Pop from stack
    7710:	ff 90       	pop	r15                               ; Pop from stack
    7712:	ef 90       	pop	r14                               ; Pop from stack
    7714:	df 90       	pop	r13                               ; Pop from stack
    7716:	cf 90       	pop	r12                               ; Pop from stack
    7718:	bf 90       	pop	r11                               ; Pop from stack
    771a:	af 90       	pop	r10                               ; Pop from stack
    771c:	9f 90       	pop	r9                                ; Pop from stack
    771e:	8f 90       	pop	r8                                ; Pop from stack
    7720:	7f 90       	pop	r7                                ; Pop from stack
    7722:	6f 90       	pop	r6                                ; Pop from stack
    7724:	5f 90       	pop	r5                                ; Pop from stack
    7726:	4f 90       	pop	r4                                ; Pop from stack
    7728:	08 95       	ret
    772a:	90 91 b6 01 	lds	r25, 0x01B6	;  0x8001b6           ; Load from data space
    772e:	89 2f       	mov	r24, r25                          ; Move register to register
    7730:	8f 77       	andi	r24, 0x7F	; 127
    7732:	81 32       	cpi	r24, 0x21	; 33                    ; Compare with immediate
    7734:	49 f5       	brne	.+82     	;  0x7788              ; Branch if not equal
    7736:	80 91 b7 01 	lds	r24, 0x01B7	;  0x8001b7           ; Load from data space
    773a:	80 32       	cpi	r24, 0x20	; 32                    ; Compare with immediate
    773c:	a1 f0       	breq	.+40     	;  0x7766              ; Branch if equal
    773e:	81 32       	cpi	r24, 0x21	; 33                    ; Compare with immediate
    7740:	19 f5       	brne	.+70     	;  0x7788              ; Branch if not equal
    7742:	91 3a       	cpi	r25, 0xA1	; 161                   ; Compare with immediate
    7744:	09 f5       	brne	.+66     	;  0x7788              ; Branch if not equal
    7746:	80 91 e8 00 	lds	r24, 0x00E8	;  0x8000e8           ; Load from data space
    774a:	87 7f       	andi	r24, 0xF7	; 247
    774c:	80 93 e8 00 	sts	0x00E8, r24	;  0x8000e8           ; Store to data space
    7750:	8d e0       	ldi	r24, 0x0D	; 13                    ; Load immediate value
    7752:	91 e0       	ldi	r25, 0x01	; 1                     ; Load immediate value
    7754:	67 e0       	ldi	r22, 0x07	; 7                     ; Load immediate value
    7756:	70 e0       	ldi	r23, 0x00	; 0                     ; Load immediate value
    7758:	0b d2       	rcall	.+1046   	;  0x7b70
    775a:	80 91 e8 00 	lds	r24, 0x00E8	;  0x8000e8           ; Load from data space
    775e:	8b 77       	andi	r24, 0x7B	; 123
    7760:	80 93 e8 00 	sts	0x00E8, r24	;  0x8000e8           ; Store to data space
    7764:	08 95       	ret
    7766:	91 32       	cpi	r25, 0x21	; 33                    ; Compare with immediate
    7768:	79 f4       	brne	.+30     	;  0x7788              ; Branch if not equal
    776a:	80 91 e8 00 	lds	r24, 0x00E8	;  0x8000e8           ; Load from data space
    776e:	87 7f       	andi	r24, 0xF7	; 247
    7770:	80 93 e8 00 	sts	0x00E8, r24	;  0x8000e8           ; Store to data space
    7774:	8d e0       	ldi	r24, 0x0D	; 13                    ; Load immediate value
    7776:	91 e0       	ldi	r25, 0x01	; 1                     ; Load immediate value
    7778:	67 e0       	ldi	r22, 0x07	; 7                     ; Load immediate value
    777a:	70 e0       	ldi	r23, 0x00	; 0                     ; Load immediate value
    777c:	5d d2       	rcall	.+1210   	;  0x7c38
    777e:	80 91 e8 00 	lds	r24, 0x00E8	;  0x8000e8           ; Load from data space
    7782:	8e 77       	andi	r24, 0x7E	; 126
    7784:	80 93 e8 00 	sts	0x00E8, r24	;  0x8000e8           ; Store to data space
    7788:	08 95       	ret
    778a:	82 e0       	ldi	r24, 0x02	; 2                     ; Load immediate value
    778c:	61 ec       	ldi	r22, 0xC1	; 193                   ; Load immediate value
    778e:	42 e0       	ldi	r20, 0x02	; 2                     ; Load immediate value
    7790:	b5 d0       	rcall	.+362    	;  0x78fc
    7792:	83 e0       	ldi	r24, 0x03	; 3                     ; Load immediate value
    7794:	61 e8       	ldi	r22, 0x81	; 129                   ; Load immediate value
    7796:	42 e1       	ldi	r20, 0x12	; 18                    ; Load immediate value
    7798:	b1 d0       	rcall	.+354    	;  0x78fc
    779a:	84 e0       	ldi	r24, 0x04	; 4                     ; Load immediate value
    779c:	60 e8       	ldi	r22, 0x80	; 128                   ; Load immediate value
    779e:	42 e1       	ldi	r20, 0x12	; 18                    ; Load immediate value
    77a0:	ad c0       	rjmp	.+346    	;  0x78fc              ; Relative jump
    77a2:	84 b7       	in	r24, 0x34	; 52                     ; Input from I/O port
    77a4:	87 7f       	andi	r24, 0xF7	; 247
    77a6:	84 bf       	out	0x34, r24	; 52                    ; Output to I/O port
    77a8:	88 e1       	ldi	r24, 0x18	; 24                    ; Load immediate value
    77aa:	0f b6       	in	r0, 0x3f	; 63                      ; Input from I/O port
    77ac:	f8 94       	cli
    77ae:	80 93 60 00 	sts	0x0060, r24	;  0x800060           ; Store to data space
    77b2:	10 92 60 00 	sts	0x0060, r1	;  0x800060            ; Store to data space
    77b6:	0f be       	out	0x3f, r0	; 63                     ; Output to I/O port
    77b8:	20 e8       	ldi	r18, 0x80	; 128                   ; Load immediate value
    77ba:	80 e0       	ldi	r24, 0x00	; 0                     ; Load immediate value
    77bc:	90 e0       	ldi	r25, 0x00	; 0                     ; Load immediate value
    77be:	0f b6       	in	r0, 0x3f	; 63                      ; Input from I/O port
    77c0:	f8 94       	cli
    77c2:	20 93 61 00 	sts	0x0061, r18	;  0x800061           ; Store to data space
    77c6:	80 93 61 00 	sts	0x0061, r24	;  0x800061           ; Store to data space
    77ca:	0f be       	out	0x3f, r0	; 63                     ; Output to I/O port
    77cc:	81 e0       	ldi	r24, 0x01	; 1                     ; Load immediate value
    77ce:	85 bf       	out	0x35, r24	; 53                    ; Output to I/O port
    77d0:	92 e0       	ldi	r25, 0x02	; 2                     ; Load immediate value
    77d2:	95 bf       	out	0x35, r25	; 53                    ; Output to I/O port
    77d4:	3f 9a       	sbi	0x07, 7	; 7
    77d6:	20 9a       	sbi	0x04, 0	; 4
    77d8:	55 9a       	sbi	0x0a, 5	; 10
    77da:	e1 e6       	ldi	r30, 0x61	; 97                    ; Load immediate value
    77dc:	f0 e0       	ldi	r31, 0x00	; 0                     ; Load immediate value
    77de:	20 83       	st	Z, r18
    77e0:	10 82       	st	Z, r1
    77e2:	47 98       	cbi	0x08, 7	; 8
    77e4:	5d 9a       	sbi	0x0b, 5	; 11
    77e6:	28 9a       	sbi	0x05, 0	; 5
    77e8:	10 92 89 00 	sts	0x0089, r1	;  0x800089            ; Store to data space
    77ec:	8a ef       	ldi	r24, 0xFA	; 250                   ; Load immediate value
    77ee:	80 93 88 00 	sts	0x0088, r24	;  0x800088           ; Store to data space
    77f2:	90 93 6f 00 	sts	0x006F, r25	;  0x80006f           ; Store to data space
    77f6:	83 e0       	ldi	r24, 0x03	; 3                     ; Load immediate value
    77f8:	80 93 81 00 	sts	0x0081, r24	;  0x800081           ; Store to data space
    77fc:	f0 c0       	rjmp	.+480    	;  0x79de              ; Relative jump
    77fe:	40 91 00 08 	lds	r20, 0x0800	;  0x800800           ; Load from data space
    7802:	50 91 01 08 	lds	r21, 0x0801	;  0x800801           ; Load from data space
    7806:	10 92 01 08 	sts	0x0801, r1	;  0x800801            ; Store to data space
    780a:	10 92 00 08 	sts	0x0800, r1	;  0x800800            ; Store to data space
    780e:	94 b7       	in	r25, 0x34	; 52                     ; Input from I/O port
    7810:	14 be       	out	0x34, r1	; 52                     ; Output to I/O port
    7812:	88 e1       	ldi	r24, 0x18	; 24                    ; Load immediate value
    7814:	0f b6       	in	r0, 0x3f	; 63                      ; Input from I/O port
    7816:	f8 94       	cli
    7818:	80 93 60 00 	sts	0x0060, r24	;  0x800060           ; Store to data space
    781c:	10 92 60 00 	sts	0x0060, r1	;  0x800060            ; Store to data space
    7820:	0f be       	out	0x3f, r0	; 63                     ; Output to I/O port
    7822:	29 2f       	mov	r18, r25                          ; Move register to register
    7824:	30 e0       	ldi	r19, 0x00	; 0                     ; Load immediate value
    7826:	f9 01       	movw	r30, r18
    7828:	e2 70       	andi	r30, 0x02	; 2
    782a:	f0 70       	andi	r31, 0x00	; 0
    782c:	91 fd       	sbrc	r25, 1
    782e:	18 c0       	rjmp	.+48     	;  0x7860              ; Relative jump
    7830:	90 ff       	sbrs	r25, 0
    7832:	05 c0       	rjmp	.+10     	;  0x783e              ; Relative jump
    7834:	85 91       	lpm	r24, Z+
    7836:	94 91       	lpm	r25, Z
    7838:	8f 5f       	subi	r24, 0xFF	; 255
    783a:	9f 4f       	sbci	r25, 0xFF	; 255
    783c:	81 f4       	brne	.+32     	;  0x785e              ; Branch if not equal
    783e:	23 ff       	sbrs	r18, 3
    7840:	0f c0       	rjmp	.+30     	;  0x7860              ; Relative jump
    7842:	80 91 09 01 	lds	r24, 0x0109	;  0x800109           ; Load from data space
    7846:	90 91 0a 01 	lds	r25, 0x010A	;  0x80010a           ; Load from data space
    784a:	48 17       	cp	r20, r24
    784c:	59 07       	cpc	r21, r25
    784e:	41 f0       	breq	.+16     	;  0x7860              ; Branch if equal
    7850:	e0 e0       	ldi	r30, 0x00	; 0                     ; Load immediate value
    7852:	f0 e0       	ldi	r31, 0x00	; 0                     ; Load immediate value
    7854:	85 91       	lpm	r24, Z+
    7856:	94 91       	lpm	r25, Z
    7858:	8f 5f       	subi	r24, 0xFF	; 255
    785a:	9f 4f       	sbci	r25, 0xFF	; 255
    785c:	09 f0       	breq	.+2      	;  0x7860              ; Branch if equal
    785e:	42 dc       	rcall	.-1916   	;  0x70e4
    7860:	a0 df       	rcall	.-192    	;  0x77a2
    7862:	78 94       	sei
    7864:	10 92 ad 01 	sts	0x01AD, r1	;  0x8001ad            ; Store to data space
    7868:	10 92 ac 01 	sts	0x01AC, r1	;  0x8001ac            ; Store to data space
    786c:	0c c0       	rjmp	.+24     	;  0x7886              ; Relative jump
    786e:	de dc       	rcall	.-1604   	;  0x722c
    7870:	36 d3       	rcall	.+1644   	;  0x7ede
    7872:	80 91 ac 01 	lds	r24, 0x01AC	;  0x8001ac           ; Load from data space
    7876:	90 91 ad 01 	lds	r25, 0x01AD	;  0x8001ad           ; Load from data space
    787a:	81 54       	subi	r24, 0x41	; 65
    787c:	9f 41       	sbci	r25, 0x1F	; 31
    787e:	10 f0       	brcs	.+4      	;  0x7884
    7880:	10 92 14 01 	sts	0x0114, r1	;  0x800114            ; Store to data space
    7884:	41 dc       	rcall	.-1918   	;  0x7108
    7886:	80 91 14 01 	lds	r24, 0x0114	;  0x800114           ; Load from data space
    788a:	88 23       	and	r24, r24
    788c:	81 f7       	brne	.-32     	;  0x786e              ; Branch if not equal
    788e:	80 91 e0 00 	lds	r24, 0x00E0	;  0x8000e0           ; Load from data space
    7892:	81 60       	ori	r24, 0x01	; 1
    7894:	80 93 e0 00 	sts	0x00E0, r24	;  0x8000e0           ; Store to data space
    7898:	25 dc       	rcall	.-1974   	;  0x70e4
    789a:	80 e0       	ldi	r24, 0x00	; 0                     ; Load immediate value
    789c:	90 e0       	ldi	r25, 0x00	; 0                     ; Load immediate value
    789e:	08 95       	ret
    78a0:	fa 01       	movw	r30, r20
    78a2:	92 30       	cpi	r25, 0x02	; 2                     ; Compare with immediate
    78a4:	49 f0       	breq	.+18     	;  0x78b8              ; Branch if equal
    78a6:	93 30       	cpi	r25, 0x03	; 3                     ; Compare with immediate
    78a8:	61 f0       	breq	.+24     	;  0x78c2              ; Branch if equal
    78aa:	91 30       	cpi	r25, 0x01	; 1                     ; Compare with immediate
    78ac:	f9 f4       	brne	.+62     	;  0x78ec              ; Branch if not equal
    78ae:	85 e1       	ldi	r24, 0x15	; 21                    ; Load immediate value
    78b0:	91 e0       	ldi	r25, 0x01	; 1                     ; Load immediate value
    78b2:	22 e1       	ldi	r18, 0x12	; 18                    ; Load immediate value
    78b4:	30 e0       	ldi	r19, 0x00	; 0                     ; Load immediate value
    78b6:	1e c0       	rjmp	.+60     	;  0x78f4              ; Relative jump
    78b8:	87 e2       	ldi	r24, 0x27	; 39                    ; Load immediate value
    78ba:	91 e0       	ldi	r25, 0x01	; 1                     ; Load immediate value
    78bc:	2e e3       	ldi	r18, 0x3E	; 62                    ; Load immediate value
    78be:	30 e0       	ldi	r19, 0x00	; 0                     ; Load immediate value
    78c0:	19 c0       	rjmp	.+50     	;  0x78f4              ; Relative jump
    78c2:	88 23       	and	r24, r24
    78c4:	29 f4       	brne	.+10     	;  0x78d0              ; Branch if not equal
    78c6:	85 e6       	ldi	r24, 0x65	; 101                   ; Load immediate value
    78c8:	91 e0       	ldi	r25, 0x01	; 1                     ; Load immediate value
    78ca:	24 e0       	ldi	r18, 0x04	; 4                     ; Load immediate value
    78cc:	30 e0       	ldi	r19, 0x00	; 0                     ; Load immediate value
    78ce:	12 c0       	rjmp	.+36     	;  0x78f4              ; Relative jump
    78d0:	81 30       	cpi	r24, 0x01	; 1                     ; Compare with immediate
    78d2:	29 f4       	brne	.+10     	;  0x78de              ; Branch if not equal
    78d4:	89 e6       	ldi	r24, 0x69	; 105                   ; Load immediate value
    78d6:	91 e0       	ldi	r25, 0x01	; 1                     ; Load immediate value
    78d8:	22 e2       	ldi	r18, 0x22	; 34                    ; Load immediate value
    78da:	30 e0       	ldi	r19, 0x00	; 0                     ; Load immediate value
    78dc:	0b c0       	rjmp	.+22     	;  0x78f4              ; Relative jump
    78de:	82 30       	cpi	r24, 0x02	; 2                     ; Compare with immediate
    78e0:	29 f4       	brne	.+10     	;  0x78ec              ; Branch if not equal
    78e2:	8d e8       	ldi	r24, 0x8D	; 141                   ; Load immediate value
    78e4:	91 e0       	ldi	r25, 0x01	; 1                     ; Load immediate value
    78e6:	28 e1       	ldi	r18, 0x18	; 24                    ; Load immediate value
    78e8:	30 e0       	ldi	r19, 0x00	; 0                     ; Load immediate value
    78ea:	04 c0       	rjmp	.+8      	;  0x78f4              ; Relative jump
    78ec:	80 e0       	ldi	r24, 0x00	; 0                     ; Load immediate value
    78ee:	90 e0       	ldi	r25, 0x00	; 0                     ; Load immediate value
    78f0:	20 e0       	ldi	r18, 0x00	; 0                     ; Load immediate value
    78f2:	30 e0       	ldi	r19, 0x00	; 0                     ; Load immediate value
    78f4:	91 83       	std	Z+1, r25	; 0x01
    78f6:	80 83       	st	Z, r24
    78f8:	c9 01       	movw	r24, r18
    78fa:	08 95       	ret
    78fc:	80 93 e9 00 	sts	0x00E9, r24	;  0x8000e9           ; Store to data space
    7900:	80 91 eb 00 	lds	r24, 0x00EB	;  0x8000eb           ; Load from data space
    7904:	81 60       	ori	r24, 0x01	; 1
    7906:	80 93 eb 00 	sts	0x00EB, r24	;  0x8000eb           ; Store to data space
    790a:	10 92 ed 00 	sts	0x00ED, r1	;  0x8000ed            ; Store to data space
    790e:	60 93 ec 00 	sts	0x00EC, r22	;  0x8000ec           ; Store to data space
    7912:	40 93 ed 00 	sts	0x00ED, r20	;  0x8000ed           ; Store to data space
    7916:	80 91 ee 00 	lds	r24, 0x00EE	;  0x8000ee           ; Load from data space
    791a:	88 1f       	adc	r24, r24
    791c:	88 27       	eor	r24, r24
    791e:	88 1f       	adc	r24, r24
    7920:	08 95       	ret
    7922:	80 91 b6 01 	lds	r24, 0x01B6	;  0x8001b6           ; Load from data space
    7926:	88 23       	and	r24, r24
    7928:	8c f4       	brge	.+34     	;  0x794c
    792a:	03 c0       	rjmp	.+6      	;  0x7932              ; Relative jump
    792c:	8e b3       	in	r24, 0x1e	; 30                     ; Input from I/O port
    792e:	88 23       	and	r24, r24
    7930:	b1 f0       	breq	.+44     	;  0x795e              ; Branch if equal
    7932:	80 91 e8 00 	lds	r24, 0x00E8	;  0x8000e8           ; Load from data space
    7936:	82 ff       	sbrs	r24, 2
    7938:	f9 cf       	rjmp	.-14     	;  0x792c              ; Relative jump
    793a:	80 91 e8 00 	lds	r24, 0x00E8	;  0x8000e8           ; Load from data space
    793e:	8b 77       	andi	r24, 0x7B	; 123
    7940:	80 93 e8 00 	sts	0x00E8, r24	;  0x8000e8           ; Store to data space
    7944:	08 95       	ret
    7946:	8e b3       	in	r24, 0x1e	; 30                     ; Input from I/O port
    7948:	88 23       	and	r24, r24
    794a:	49 f0       	breq	.+18     	;  0x795e              ; Branch if equal
    794c:	80 91 e8 00 	lds	r24, 0x00E8	;  0x8000e8           ; Load from data space
    7950:	80 ff       	sbrs	r24, 0
    7952:	f9 cf       	rjmp	.-14     	;  0x7946              ; Relative jump
    7954:	80 91 e8 00 	lds	r24, 0x00E8	;  0x8000e8           ; Load from data space
    7958:	8e 77       	andi	r24, 0x7E	; 126
    795a:	80 93 e8 00 	sts	0x00E8, r24	;  0x8000e8           ; Store to data space
    795e:	08 95       	ret
    7960:	ef 92       	push	r14                              ; Push onto stack
    7962:	ff 92       	push	r15                              ; Push onto stack
    7964:	0f 93       	push	r16                              ; Push onto stack
    7966:	1f 93       	push	r17                              ; Push onto stack
    7968:	45 d0       	rcall	.+138    	;  0x79f4
    796a:	4c d0       	rcall	.+152    	;  0x7a04
    796c:	08 ed       	ldi	r16, 0xD8	; 216                   ; Load immediate value
    796e:	10 e0       	ldi	r17, 0x00	; 0                     ; Load immediate value
    7970:	f8 01       	movw	r30, r16
    7972:	80 81       	ld	r24, Z
    7974:	8f 77       	andi	r24, 0x7F	; 127
    7976:	80 83       	st	Z, r24
    7978:	80 81       	ld	r24, Z
    797a:	80 68       	ori	r24, 0x80	; 128
    797c:	80 83       	st	Z, r24
    797e:	80 81       	ld	r24, Z
    7980:	8f 7d       	andi	r24, 0xDF	; 223
    7982:	80 83       	st	Z, r24
    7984:	19 bc       	out	0x29, r1	; 41                     ; Output to I/O port
    7986:	1e ba       	out	0x1e, r1	; 30                     ; Output to I/O port
    7988:	10 92 b4 01 	sts	0x01B4, r1	;  0x8001b4            ; Store to data space
    798c:	80 ee       	ldi	r24, 0xE0	; 224                   ; Load immediate value
    798e:	e8 2e       	mov	r14, r24                          ; Move register to register
    7990:	f1 2c       	mov	r15, r1                           ; Move register to register
    7992:	f7 01       	movw	r30, r14
    7994:	80 81       	ld	r24, Z
    7996:	8b 7f       	andi	r24, 0xFB	; 251
    7998:	80 83       	st	Z, r24
    799a:	f8 01       	movw	r30, r16
    799c:	80 81       	ld	r24, Z
    799e:	81 60       	ori	r24, 0x01	; 1
    79a0:	80 83       	st	Z, r24
    79a2:	80 e0       	ldi	r24, 0x00	; 0                     ; Load immediate value
    79a4:	60 e0       	ldi	r22, 0x00	; 0                     ; Load immediate value
    79a6:	42 e0       	ldi	r20, 0x02	; 2                     ; Load immediate value
    79a8:	a9 df       	rcall	.-174    	;  0x78fc
    79aa:	e1 ee       	ldi	r30, 0xE1	; 225                   ; Load immediate value
    79ac:	f0 e0       	ldi	r31, 0x00	; 0                     ; Load immediate value
    79ae:	80 81       	ld	r24, Z
    79b0:	8e 7f       	andi	r24, 0xFE	; 254
    79b2:	80 83       	st	Z, r24
    79b4:	e2 ee       	ldi	r30, 0xE2	; 226                   ; Load immediate value
    79b6:	f0 e0       	ldi	r31, 0x00	; 0                     ; Load immediate value
    79b8:	80 81       	ld	r24, Z
    79ba:	81 60       	ori	r24, 0x01	; 1
    79bc:	80 83       	st	Z, r24
    79be:	80 81       	ld	r24, Z
    79c0:	88 60       	ori	r24, 0x08	; 8
    79c2:	80 83       	st	Z, r24
    79c4:	f7 01       	movw	r30, r14
    79c6:	80 81       	ld	r24, Z
    79c8:	8e 7f       	andi	r24, 0xFE	; 254
    79ca:	80 83       	st	Z, r24
    79cc:	f8 01       	movw	r30, r16
    79ce:	80 81       	ld	r24, Z
    79d0:	80 61       	ori	r24, 0x10	; 16
    79d2:	80 83       	st	Z, r24
    79d4:	1f 91       	pop	r17                               ; Pop from stack
    79d6:	0f 91       	pop	r16                               ; Pop from stack
    79d8:	ff 90       	pop	r15                               ; Pop from stack
    79da:	ef 90       	pop	r14                               ; Pop from stack
    79dc:	08 95       	ret
    79de:	e7 ed       	ldi	r30, 0xD7	; 215                   ; Load immediate value
    79e0:	f0 e0       	ldi	r31, 0x00	; 0                     ; Load immediate value
    79e2:	80 81       	ld	r24, Z
    79e4:	81 60       	ori	r24, 0x01	; 1
    79e6:	80 83       	st	Z, r24
    79e8:	8a e4       	ldi	r24, 0x4A	; 74                    ; Load immediate value
    79ea:	82 bf       	out	0x32, r24	; 50                    ; Output to I/O port
    79ec:	81 e0       	ldi	r24, 0x01	; 1                     ; Load immediate value
    79ee:	80 93 b5 01 	sts	0x01B5, r24	;  0x8001b5           ; Store to data space
    79f2:	b6 cf       	rjmp	.-148    	;  0x7960              ; Relative jump
    79f4:	e8 ed       	ldi	r30, 0xD8	; 216                   ; Load immediate value
    79f6:	f0 e0       	ldi	r31, 0x00	; 0                     ; Load immediate value
    79f8:	80 81       	ld	r24, Z
    79fa:	8e 7f       	andi	r24, 0xFE	; 254
    79fc:	80 83       	st	Z, r24
    79fe:	10 92 e2 00 	sts	0x00E2, r1	;  0x8000e2            ; Store to data space
    7a02:	08 95       	ret
    7a04:	10 92 da 00 	sts	0x00DA, r1	;  0x8000da            ; Store to data space
    7a08:	10 92 e1 00 	sts	0x00E1, r1	;  0x8000e1            ; Store to data space
    7a0c:	08 95       	ret
    7a0e:	1f 92       	push	r1                               ; Push onto stack
    7a10:	0f 92       	push	r0                               ; Push onto stack
    7a12:	0f b6       	in	r0, 0x3f	; 63                      ; Input from I/O port
    7a14:	0f 92       	push	r0                               ; Push onto stack
    7a16:	11 24       	eor	r1, r1
    7a18:	2f 93       	push	r18                              ; Push onto stack
    7a1a:	3f 93       	push	r19                              ; Push onto stack
    7a1c:	4f 93       	push	r20                              ; Push onto stack
    7a1e:	5f 93       	push	r21                              ; Push onto stack
    7a20:	6f 93       	push	r22                              ; Push onto stack
    7a22:	7f 93       	push	r23                              ; Push onto stack
    7a24:	8f 93       	push	r24                              ; Push onto stack
    7a26:	9f 93       	push	r25                              ; Push onto stack
    7a28:	af 93       	push	r26                              ; Push onto stack
    7a2a:	bf 93       	push	r27                              ; Push onto stack
    7a2c:	ef 93       	push	r30                              ; Push onto stack
    7a2e:	ff 93       	push	r31                              ; Push onto stack
    7a30:	80 91 da 00 	lds	r24, 0x00DA	;  0x8000da           ; Load from data space
    7a34:	80 ff       	sbrs	r24, 0
    7a36:	1b c0       	rjmp	.+54     	;  0x7a6e              ; Relative jump
    7a38:	80 91 d8 00 	lds	r24, 0x00D8	;  0x8000d8           ; Load from data space
    7a3c:	80 ff       	sbrs	r24, 0
    7a3e:	17 c0       	rjmp	.+46     	;  0x7a6e              ; Relative jump
    7a40:	80 91 da 00 	lds	r24, 0x00DA	;  0x8000da           ; Load from data space
    7a44:	8e 7f       	andi	r24, 0xFE	; 254
    7a46:	80 93 da 00 	sts	0x00DA, r24	;  0x8000da           ; Store to data space
    7a4a:	80 91 d9 00 	lds	r24, 0x00D9	;  0x8000d9           ; Load from data space
    7a4e:	80 ff       	sbrs	r24, 0
    7a50:	0b c0       	rjmp	.+22     	;  0x7a68              ; Relative jump
    7a52:	80 e1       	ldi	r24, 0x10	; 16                    ; Load immediate value
    7a54:	89 bd       	out	0x29, r24	; 41                    ; Output to I/O port
    7a56:	82 e1       	ldi	r24, 0x12	; 18                    ; Load immediate value
    7a58:	89 bd       	out	0x29, r24	; 41                    ; Output to I/O port
    7a5a:	09 b4       	in	r0, 0x29	; 41                      ; Input from I/O port
    7a5c:	00 fe       	sbrs	r0, 0
    7a5e:	fd cf       	rjmp	.-6      	;  0x7a5a              ; Relative jump
    7a60:	81 e0       	ldi	r24, 0x01	; 1                     ; Load immediate value
    7a62:	8e bb       	out	0x1e, r24	; 30                    ; Output to I/O port
    7a64:	3b d2       	rcall	.+1142   	;  0x7edc
    7a66:	03 c0       	rjmp	.+6      	;  0x7a6e              ; Relative jump
    7a68:	19 bc       	out	0x29, r1	; 41                     ; Output to I/O port
    7a6a:	1e ba       	out	0x1e, r1	; 30                     ; Output to I/O port
    7a6c:	37 d2       	rcall	.+1134   	;  0x7edc
    7a6e:	80 91 e1 00 	lds	r24, 0x00E1	;  0x8000e1           ; Load from data space
    7a72:	80 ff       	sbrs	r24, 0
    7a74:	17 c0       	rjmp	.+46     	;  0x7aa4              ; Relative jump
    7a76:	80 91 e2 00 	lds	r24, 0x00E2	;  0x8000e2           ; Load from data space
    7a7a:	80 ff       	sbrs	r24, 0
    7a7c:	13 c0       	rjmp	.+38     	;  0x7aa4              ; Relative jump
    7a7e:	80 91 e2 00 	lds	r24, 0x00E2	;  0x8000e2           ; Load from data space
    7a82:	8e 7f       	andi	r24, 0xFE	; 254
    7a84:	80 93 e2 00 	sts	0x00E2, r24	;  0x8000e2           ; Store to data space
    7a88:	80 91 e2 00 	lds	r24, 0x00E2	;  0x8000e2           ; Load from data space
    7a8c:	80 61       	ori	r24, 0x10	; 16
    7a8e:	80 93 e2 00 	sts	0x00E2, r24	;  0x8000e2           ; Store to data space
    7a92:	80 91 d8 00 	lds	r24, 0x00D8	;  0x8000d8           ; Load from data space
    7a96:	80 62       	ori	r24, 0x20	; 32
    7a98:	80 93 d8 00 	sts	0x00D8, r24	;  0x8000d8           ; Store to data space
    7a9c:	19 bc       	out	0x29, r1	; 41                     ; Output to I/O port
    7a9e:	85 e0       	ldi	r24, 0x05	; 5                     ; Load immediate value
    7aa0:	8e bb       	out	0x1e, r24	; 30                    ; Output to I/O port
    7aa2:	1c d2       	rcall	.+1080   	;  0x7edc
    7aa4:	80 91 e1 00 	lds	r24, 0x00E1	;  0x8000e1           ; Load from data space
    7aa8:	84 ff       	sbrs	r24, 4
    7aaa:	2c c0       	rjmp	.+88     	;  0x7b04              ; Relative jump
    7aac:	80 91 e2 00 	lds	r24, 0x00E2	;  0x8000e2           ; Load from data space
    7ab0:	84 ff       	sbrs	r24, 4
    7ab2:	28 c0       	rjmp	.+80     	;  0x7b04              ; Relative jump
    7ab4:	80 e1       	ldi	r24, 0x10	; 16                    ; Load immediate value
    7ab6:	89 bd       	out	0x29, r24	; 41                    ; Output to I/O port
    7ab8:	82 e1       	ldi	r24, 0x12	; 18                    ; Load immediate value
    7aba:	89 bd       	out	0x29, r24	; 41                    ; Output to I/O port
    7abc:	09 b4       	in	r0, 0x29	; 41                      ; Input from I/O port
    7abe:	00 fe       	sbrs	r0, 0
    7ac0:	fd cf       	rjmp	.-6      	;  0x7abc              ; Relative jump
    7ac2:	80 91 d8 00 	lds	r24, 0x00D8	;  0x8000d8           ; Load from data space
    7ac6:	8f 7d       	andi	r24, 0xDF	; 223
    7ac8:	80 93 d8 00 	sts	0x00D8, r24	;  0x8000d8           ; Store to data space
    7acc:	80 91 e1 00 	lds	r24, 0x00E1	;  0x8000e1           ; Load from data space
    7ad0:	8f 7e       	andi	r24, 0xEF	; 239
    7ad2:	80 93 e1 00 	sts	0x00E1, r24	;  0x8000e1           ; Store to data space
    7ad6:	80 91 e2 00 	lds	r24, 0x00E2	;  0x8000e2           ; Load from data space
    7ada:	8f 7e       	andi	r24, 0xEF	; 239
    7adc:	80 93 e2 00 	sts	0x00E2, r24	;  0x8000e2           ; Store to data space
    7ae0:	80 91 e2 00 	lds	r24, 0x00E2	;  0x8000e2           ; Load from data space
    7ae4:	81 60       	ori	r24, 0x01	; 1
    7ae6:	80 93 e2 00 	sts	0x00E2, r24	;  0x8000e2           ; Store to data space
    7aea:	80 91 b4 01 	lds	r24, 0x01B4	;  0x8001b4           ; Load from data space
    7aee:	88 23       	and	r24, r24
    7af0:	31 f4       	brne	.+12     	;  0x7afe              ; Branch if not equal
    7af2:	80 91 e3 00 	lds	r24, 0x00E3	;  0x8000e3           ; Load from data space
    7af6:	87 fd       	sbrc	r24, 7
    7af8:	02 c0       	rjmp	.+4      	;  0x7afe              ; Relative jump
    7afa:	81 e0       	ldi	r24, 0x01	; 1                     ; Load immediate value
    7afc:	01 c0       	rjmp	.+2      	;  0x7b00              ; Relative jump
    7afe:	84 e0       	ldi	r24, 0x04	; 4                     ; Load immediate value
    7b00:	8e bb       	out	0x1e, r24	; 30                    ; Output to I/O port
    7b02:	ec d1       	rcall	.+984    	;  0x7edc
    7b04:	80 91 e1 00 	lds	r24, 0x00E1	;  0x8000e1           ; Load from data space
    7b08:	83 ff       	sbrs	r24, 3
    7b0a:	21 c0       	rjmp	.+66     	;  0x7b4e              ; Relative jump
    7b0c:	80 91 e2 00 	lds	r24, 0x00E2	;  0x8000e2           ; Load from data space
    7b10:	83 ff       	sbrs	r24, 3
    7b12:	1d c0       	rjmp	.+58     	;  0x7b4e              ; Relative jump
    7b14:	80 91 e1 00 	lds	r24, 0x00E1	;  0x8000e1           ; Load from data space
    7b18:	87 7f       	andi	r24, 0xF7	; 247
    7b1a:	80 93 e1 00 	sts	0x00E1, r24	;  0x8000e1           ; Store to data space
    7b1e:	82 e0       	ldi	r24, 0x02	; 2                     ; Load immediate value
    7b20:	8e bb       	out	0x1e, r24	; 30                    ; Output to I/O port
    7b22:	10 92 b4 01 	sts	0x01B4, r1	;  0x8001b4            ; Store to data space
    7b26:	80 91 e1 00 	lds	r24, 0x00E1	;  0x8000e1           ; Load from data space
    7b2a:	8e 7f       	andi	r24, 0xFE	; 254
    7b2c:	80 93 e1 00 	sts	0x00E1, r24	;  0x8000e1           ; Store to data space
    7b30:	80 91 e2 00 	lds	r24, 0x00E2	;  0x8000e2           ; Load from data space
    7b34:	8e 7f       	andi	r24, 0xFE	; 254
    7b36:	80 93 e2 00 	sts	0x00E2, r24	;  0x8000e2           ; Store to data space
    7b3a:	80 91 e2 00 	lds	r24, 0x00E2	;  0x8000e2           ; Load from data space
    7b3e:	80 61       	ori	r24, 0x10	; 16
    7b40:	80 93 e2 00 	sts	0x00E2, r24	;  0x8000e2           ; Store to data space
    7b44:	80 e0       	ldi	r24, 0x00	; 0                     ; Load immediate value
    7b46:	60 e0       	ldi	r22, 0x00	; 0                     ; Load immediate value
    7b48:	42 e0       	ldi	r20, 0x02	; 2                     ; Load immediate value
    7b4a:	d8 de       	rcall	.-592    	;  0x78fc
    7b4c:	c7 d1       	rcall	.+910    	;  0x7edc
    7b4e:	ff 91       	pop	r31                               ; Pop from stack
    7b50:	ef 91       	pop	r30                               ; Pop from stack
    7b52:	bf 91       	pop	r27                               ; Pop from stack
    7b54:	af 91       	pop	r26                               ; Pop from stack
    7b56:	9f 91       	pop	r25                               ; Pop from stack
    7b58:	8f 91       	pop	r24                               ; Pop from stack
    7b5a:	7f 91       	pop	r23                               ; Pop from stack
    7b5c:	6f 91       	pop	r22                               ; Pop from stack
    7b5e:	5f 91       	pop	r21                               ; Pop from stack
    7b60:	4f 91       	pop	r20                               ; Pop from stack
    7b62:	3f 91       	pop	r19                               ; Pop from stack
    7b64:	2f 91       	pop	r18                               ; Pop from stack
    7b66:	0f 90       	pop	r0                                ; Pop from stack
    7b68:	0f be       	out	0x3f, r0	; 63                     ; Output to I/O port
    7b6a:	0f 90       	pop	r0                                ; Pop from stack
    7b6c:	1f 90       	pop	r1                                ; Pop from stack
    7b6e:	18 95       	reti
    7b70:	9c 01       	movw	r18, r24
    7b72:	40 91 bc 01 	lds	r20, 0x01BC	;  0x8001bc           ; Load from data space
    7b76:	50 91 bd 01 	lds	r21, 0x01BD	;  0x8001bd           ; Load from data space
    7b7a:	46 17       	cp	r20, r22
    7b7c:	57 07       	cpc	r21, r23
    7b7e:	18 f4       	brcc	.+6      	;  0x7b86
    7b80:	f9 01       	movw	r30, r18
    7b82:	90 e0       	ldi	r25, 0x00	; 0                     ; Load immediate value
    7b84:	44 c0       	rjmp	.+136    	;  0x7c0e              ; Relative jump
    7b86:	61 15       	cp	r22, r1
    7b88:	71 05       	cpc	r23, r1
    7b8a:	11 f0       	breq	.+4      	;  0x7b90              ; Branch if equal
    7b8c:	ab 01       	movw	r20, r22
    7b8e:	f8 cf       	rjmp	.-16     	;  0x7b80              ; Relative jump
    7b90:	80 91 e8 00 	lds	r24, 0x00E8	;  0x8000e8           ; Load from data space
    7b94:	8e 77       	andi	r24, 0x7E	; 126
    7b96:	80 93 e8 00 	sts	0x00E8, r24	;  0x8000e8           ; Store to data space
    7b9a:	40 e0       	ldi	r20, 0x00	; 0                     ; Load immediate value
    7b9c:	50 e0       	ldi	r21, 0x00	; 0                     ; Load immediate value
    7b9e:	f0 cf       	rjmp	.-32     	;  0x7b80              ; Relative jump
    7ba0:	8e b3       	in	r24, 0x1e	; 30                     ; Input from I/O port
    7ba2:	88 23       	and	r24, r24
    7ba4:	09 f4       	brne	.+2      	;  0x7ba8              ; Branch if not equal
    7ba6:	44 c0       	rjmp	.+136    	;  0x7c30              ; Relative jump
    7ba8:	85 30       	cpi	r24, 0x05	; 5                     ; Compare with immediate
    7baa:	09 f4       	brne	.+2      	;  0x7bae              ; Branch if not equal
    7bac:	43 c0       	rjmp	.+134    	;  0x7c34              ; Relative jump
    7bae:	80 91 e8 00 	lds	r24, 0x00E8	;  0x8000e8           ; Load from data space
    7bb2:	83 ff       	sbrs	r24, 3
    7bb4:	02 c0       	rjmp	.+4      	;  0x7bba              ; Relative jump
    7bb6:	81 e0       	ldi	r24, 0x01	; 1                     ; Load immediate value
    7bb8:	08 95       	ret
    7bba:	80 91 e8 00 	lds	r24, 0x00E8	;  0x8000e8           ; Load from data space
    7bbe:	82 fd       	sbrc	r24, 2
    7bc0:	31 c0       	rjmp	.+98     	;  0x7c24              ; Relative jump
    7bc2:	80 91 e8 00 	lds	r24, 0x00E8	;  0x8000e8           ; Load from data space
    7bc6:	80 ff       	sbrs	r24, 0
    7bc8:	22 c0       	rjmp	.+68     	;  0x7c0e              ; Relative jump
    7bca:	80 91 f3 00 	lds	r24, 0x00F3	;  0x8000f3           ; Load from data space
    7bce:	90 91 f2 00 	lds	r25, 0x00F2	;  0x8000f2           ; Load from data space
    7bd2:	78 2f       	mov	r23, r24                          ; Move register to register
    7bd4:	60 e0       	ldi	r22, 0x00	; 0                     ; Load immediate value
    7bd6:	29 2f       	mov	r18, r25                          ; Move register to register
    7bd8:	30 e0       	ldi	r19, 0x00	; 0                     ; Load immediate value
    7bda:	26 2b       	or	r18, r22
    7bdc:	37 2b       	or	r19, r23
    7bde:	07 c0       	rjmp	.+14     	;  0x7bee              ; Relative jump
    7be0:	81 91       	ld	r24, Z+
    7be2:	80 93 f1 00 	sts	0x00F1, r24	;  0x8000f1           ; Store to data space
    7be6:	41 50       	subi	r20, 0x01	; 1
    7be8:	50 40       	sbci	r21, 0x00	; 0
    7bea:	2f 5f       	subi	r18, 0xFF	; 255
    7bec:	3f 4f       	sbci	r19, 0xFF	; 255
    7bee:	41 15       	cp	r20, r1
    7bf0:	51 05       	cpc	r21, r1
    7bf2:	19 f0       	breq	.+6      	;  0x7bfa              ; Branch if equal
    7bf4:	28 30       	cpi	r18, 0x08	; 8                     ; Compare with immediate
    7bf6:	31 05       	cpc	r19, r1
    7bf8:	98 f3       	brcs	.-26     	;  0x7be0
    7bfa:	90 e0       	ldi	r25, 0x00	; 0                     ; Load immediate value
    7bfc:	28 30       	cpi	r18, 0x08	; 8                     ; Compare with immediate
    7bfe:	31 05       	cpc	r19, r1
    7c00:	09 f4       	brne	.+2      	;  0x7c04              ; Branch if not equal
    7c02:	91 e0       	ldi	r25, 0x01	; 1                     ; Load immediate value
    7c04:	80 91 e8 00 	lds	r24, 0x00E8	;  0x8000e8           ; Load from data space
    7c08:	8e 77       	andi	r24, 0x7E	; 126
    7c0a:	80 93 e8 00 	sts	0x00E8, r24	;  0x8000e8           ; Store to data space
    7c0e:	41 15       	cp	r20, r1
    7c10:	51 05       	cpc	r21, r1
    7c12:	31 f6       	brne	.-116    	;  0x7ba0              ; Branch if not equal
    7c14:	99 23       	and	r25, r25
    7c16:	21 f6       	brne	.-120    	;  0x7ba0              ; Branch if not equal
    7c18:	05 c0       	rjmp	.+10     	;  0x7c24              ; Relative jump
    7c1a:	8e b3       	in	r24, 0x1e	; 30                     ; Input from I/O port
    7c1c:	88 23       	and	r24, r24
    7c1e:	41 f0       	breq	.+16     	;  0x7c30              ; Branch if equal
    7c20:	85 30       	cpi	r24, 0x05	; 5                     ; Compare with immediate
    7c22:	41 f0       	breq	.+16     	;  0x7c34              ; Branch if equal
    7c24:	80 91 e8 00 	lds	r24, 0x00E8	;  0x8000e8           ; Load from data space
    7c28:	82 ff       	sbrs	r24, 2
    7c2a:	f7 cf       	rjmp	.-18     	;  0x7c1a              ; Relative jump
    7c2c:	80 e0       	ldi	r24, 0x00	; 0                     ; Load immediate value
    7c2e:	08 95       	ret
    7c30:	82 e0       	ldi	r24, 0x02	; 2                     ; Load immediate value
    7c32:	08 95       	ret
    7c34:	83 e0       	ldi	r24, 0x03	; 3                     ; Load immediate value
    7c36:	08 95       	ret
    7c38:	9c 01       	movw	r18, r24
    7c3a:	61 15       	cp	r22, r1
    7c3c:	71 05       	cpc	r23, r1
    7c3e:	29 f4       	brne	.+10     	;  0x7c4a              ; Branch if not equal
    7c40:	80 91 e8 00 	lds	r24, 0x00E8	;  0x8000e8           ; Load from data space
    7c44:	8b 77       	andi	r24, 0x7B	; 123
    7c46:	80 93 e8 00 	sts	0x00E8, r24	;  0x8000e8           ; Store to data space
    7c4a:	f9 01       	movw	r30, r18
    7c4c:	26 c0       	rjmp	.+76     	;  0x7c9a              ; Relative jump
    7c4e:	8e b3       	in	r24, 0x1e	; 30                     ; Input from I/O port
    7c50:	88 23       	and	r24, r24
    7c52:	91 f1       	breq	.+100    	;  0x7cb8              ; Branch if equal
    7c54:	85 30       	cpi	r24, 0x05	; 5                     ; Compare with immediate
    7c56:	91 f1       	breq	.+100    	;  0x7cbc              ; Branch if equal
    7c58:	80 91 e8 00 	lds	r24, 0x00E8	;  0x8000e8           ; Load from data space
    7c5c:	83 ff       	sbrs	r24, 3
    7c5e:	02 c0       	rjmp	.+4      	;  0x7c64              ; Relative jump
    7c60:	81 e0       	ldi	r24, 0x01	; 1                     ; Load immediate value
    7c62:	08 95       	ret
    7c64:	80 91 e8 00 	lds	r24, 0x00E8	;  0x8000e8           ; Load from data space
    7c68:	82 ff       	sbrs	r24, 2
    7c6a:	f1 cf       	rjmp	.-30     	;  0x7c4e              ; Relative jump
    7c6c:	06 c0       	rjmp	.+12     	;  0x7c7a              ; Relative jump
    7c6e:	80 91 f1 00 	lds	r24, 0x00F1	;  0x8000f1           ; Load from data space
    7c72:	81 93       	st	Z+, r24
    7c74:	61 50       	subi	r22, 0x01	; 1
    7c76:	70 40       	sbci	r23, 0x00	; 0
    7c78:	59 f0       	breq	.+22     	;  0x7c90              ; Branch if equal
    7c7a:	20 91 f3 00 	lds	r18, 0x00F3	;  0x8000f3           ; Load from data space
    7c7e:	80 91 f2 00 	lds	r24, 0x00F2	;  0x8000f2           ; Load from data space
    7c82:	32 2f       	mov	r19, r18                          ; Move register to register
    7c84:	20 e0       	ldi	r18, 0x00	; 0                     ; Load immediate value
    7c86:	90 e0       	ldi	r25, 0x00	; 0                     ; Load immediate value
    7c88:	82 2b       	or	r24, r18
    7c8a:	93 2b       	or	r25, r19
    7c8c:	89 2b       	or	r24, r25
    7c8e:	79 f7       	brne	.-34     	;  0x7c6e              ; Branch if not equal
    7c90:	80 91 e8 00 	lds	r24, 0x00E8	;  0x8000e8           ; Load from data space
    7c94:	8b 77       	andi	r24, 0x7B	; 123
    7c96:	80 93 e8 00 	sts	0x00E8, r24	;  0x8000e8           ; Store to data space
    7c9a:	61 15       	cp	r22, r1
    7c9c:	71 05       	cpc	r23, r1
    7c9e:	b9 f6       	brne	.-82     	;  0x7c4e              ; Branch if not equal
    7ca0:	05 c0       	rjmp	.+10     	;  0x7cac              ; Relative jump
    7ca2:	8e b3       	in	r24, 0x1e	; 30                     ; Input from I/O port
    7ca4:	88 23       	and	r24, r24
    7ca6:	41 f0       	breq	.+16     	;  0x7cb8              ; Branch if equal
    7ca8:	85 30       	cpi	r24, 0x05	; 5                     ; Compare with immediate
    7caa:	41 f0       	breq	.+16     	;  0x7cbc              ; Branch if equal
    7cac:	80 91 e8 00 	lds	r24, 0x00E8	;  0x8000e8           ; Load from data space
    7cb0:	80 ff       	sbrs	r24, 0
    7cb2:	f7 cf       	rjmp	.-18     	;  0x7ca2              ; Relative jump
    7cb4:	80 e0       	ldi	r24, 0x00	; 0                     ; Load immediate value
    7cb6:	08 95       	ret
    7cb8:	82 e0       	ldi	r24, 0x02	; 2                     ; Load immediate value
    7cba:	08 95       	ret
    7cbc:	83 e0       	ldi	r24, 0x03	; 3                     ; Load immediate value
    7cbe:	08 95       	ret
    7cc0:	0f 93       	push	r16                              ; Push onto stack
    7cc2:	1f 93       	push	r17                              ; Push onto stack
    7cc4:	df 93       	push	r29                              ; Push onto stack
    7cc6:	cf 93       	push	r28                              ; Push onto stack
    7cc8:	00 d0       	rcall	.+0      	;  0x7cca
    7cca:	cd b7       	in	r28, 0x3d	; 61                     ; Input from I/O port
    7ccc:	de b7       	in	r29, 0x3e	; 62                     ; Input from I/O port
    7cce:	e6 eb       	ldi	r30, 0xB6	; 182                   ; Load immediate value
    7cd0:	f1 e0       	ldi	r31, 0x01	; 1                     ; Load immediate value
    7cd2:	80 91 f1 00 	lds	r24, 0x00F1	;  0x8000f1           ; Load from data space
    7cd6:	81 93       	st	Z+, r24
    7cd8:	81 e0       	ldi	r24, 0x01	; 1                     ; Load immediate value
    7cda:	ee 3b       	cpi	r30, 0xBE	; 190                   ; Compare with immediate
    7cdc:	f8 07       	cpc	r31, r24
    7cde:	c9 f7       	brne	.-14     	;  0x7cd2              ; Branch if not equal
    7ce0:	24 dd       	rcall	.-1464   	;  0x772a
    7ce2:	80 91 e8 00 	lds	r24, 0x00E8	;  0x8000e8           ; Load from data space
    7ce6:	83 ff       	sbrs	r24, 3
    7ce8:	e4 c0       	rjmp	.+456    	;  0x7eb2              ; Relative jump
    7cea:	80 91 b6 01 	lds	r24, 0x01B6	;  0x8001b6           ; Load from data space
    7cee:	90 91 b7 01 	lds	r25, 0x01B7	;  0x8001b7           ; Load from data space
    7cf2:	95 30       	cpi	r25, 0x05	; 5                     ; Compare with immediate
    7cf4:	09 f4       	brne	.+2      	;  0x7cf8              ; Branch if not equal
    7cf6:	6d c0       	rjmp	.+218    	;  0x7dd2              ; Relative jump
    7cf8:	96 30       	cpi	r25, 0x06	; 6                     ; Compare with immediate
    7cfa:	40 f4       	brcc	.+16     	;  0x7d0c
    7cfc:	91 30       	cpi	r25, 0x01	; 1                     ; Compare with immediate
    7cfe:	81 f1       	breq	.+96     	;  0x7d60              ; Branch if equal
    7d00:	91 30       	cpi	r25, 0x01	; 1                     ; Compare with immediate
    7d02:	70 f0       	brcs	.+28     	;  0x7d20
    7d04:	93 30       	cpi	r25, 0x03	; 3                     ; Compare with immediate
    7d06:	09 f0       	breq	.+2      	;  0x7d0a              ; Branch if equal
    7d08:	d4 c0       	rjmp	.+424    	;  0x7eb2              ; Relative jump
    7d0a:	2a c0       	rjmp	.+84     	;  0x7d60              ; Relative jump
    7d0c:	98 30       	cpi	r25, 0x08	; 8                     ; Compare with immediate
    7d0e:	09 f4       	brne	.+2      	;  0x7d12              ; Branch if not equal
    7d10:	a3 c0       	rjmp	.+326    	;  0x7e58              ; Relative jump
    7d12:	99 30       	cpi	r25, 0x09	; 9                     ; Compare with immediate
    7d14:	09 f4       	brne	.+2      	;  0x7d18              ; Branch if not equal
    7d16:	b2 c0       	rjmp	.+356    	;  0x7e7c              ; Relative jump
    7d18:	96 30       	cpi	r25, 0x06	; 6                     ; Compare with immediate
    7d1a:	09 f0       	breq	.+2      	;  0x7d1e              ; Branch if equal
    7d1c:	ca c0       	rjmp	.+404    	;  0x7eb2              ; Relative jump
    7d1e:	7c c0       	rjmp	.+248    	;  0x7e18              ; Relative jump
    7d20:	80 38       	cpi	r24, 0x80	; 128                   ; Compare with immediate
    7d22:	09 f4       	brne	.+2      	;  0x7d26              ; Branch if not equal
    7d24:	c6 c0       	rjmp	.+396    	;  0x7eb2              ; Relative jump
    7d26:	82 38       	cpi	r24, 0x82	; 130                   ; Compare with immediate
    7d28:	09 f0       	breq	.+2      	;  0x7d2c              ; Branch if equal
    7d2a:	c3 c0       	rjmp	.+390    	;  0x7eb2              ; Relative jump
    7d2c:	80 91 ba 01 	lds	r24, 0x01BA	;  0x8001ba           ; Load from data space
    7d30:	87 70       	andi	r24, 0x07	; 7
    7d32:	80 93 e9 00 	sts	0x00E9, r24	;  0x8000e9           ; Store to data space
    7d36:	80 91 eb 00 	lds	r24, 0x00EB	;  0x8000eb           ; Load from data space
    7d3a:	10 92 e9 00 	sts	0x00E9, r1	;  0x8000e9            ; Store to data space
    7d3e:	20 91 e8 00 	lds	r18, 0x00E8	;  0x8000e8           ; Load from data space
    7d42:	27 7f       	andi	r18, 0xF7	; 247
    7d44:	20 93 e8 00 	sts	0x00E8, r18	;  0x8000e8           ; Store to data space
    7d48:	90 e0       	ldi	r25, 0x00	; 0                     ; Load immediate value
    7d4a:	25 e0       	ldi	r18, 0x05	; 5                     ; Load immediate value
    7d4c:	96 95       	lsr	r25
    7d4e:	87 95       	ror	r24
    7d50:	2a 95       	dec	r18
    7d52:	e1 f7       	brne	.-8      	;  0x7d4c              ; Branch if not equal
    7d54:	81 70       	andi	r24, 0x01	; 1
    7d56:	80 93 f1 00 	sts	0x00F1, r24	;  0x8000f1           ; Store to data space
    7d5a:	10 92 f1 00 	sts	0x00F1, r1	;  0x8000f1            ; Store to data space
    7d5e:	87 c0       	rjmp	.+270    	;  0x7e6e              ; Relative jump
    7d60:	88 23       	and	r24, r24
    7d62:	19 f0       	breq	.+6      	;  0x7d6a              ; Branch if equal
    7d64:	82 30       	cpi	r24, 0x02	; 2                     ; Compare with immediate
    7d66:	09 f0       	breq	.+2      	;  0x7d6a              ; Branch if equal
    7d68:	a4 c0       	rjmp	.+328    	;  0x7eb2              ; Relative jump
    7d6a:	8f 71       	andi	r24, 0x1F	; 31
    7d6c:	82 30       	cpi	r24, 0x02	; 2                     ; Compare with immediate
    7d6e:	09 f0       	breq	.+2      	;  0x7d72              ; Branch if equal
    7d70:	a0 c0       	rjmp	.+320    	;  0x7eb2              ; Relative jump
    7d72:	80 91 b8 01 	lds	r24, 0x01B8	;  0x8001b8           ; Load from data space
    7d76:	88 23       	and	r24, r24
    7d78:	31 f5       	brne	.+76     	;  0x7dc6              ; Branch if not equal
    7d7a:	20 91 ba 01 	lds	r18, 0x01BA	;  0x8001ba           ; Load from data space
    7d7e:	27 70       	andi	r18, 0x07	; 7
    7d80:	09 f4       	brne	.+2      	;  0x7d84              ; Branch if not equal
    7d82:	97 c0       	rjmp	.+302    	;  0x7eb2              ; Relative jump
    7d84:	20 93 e9 00 	sts	0x00E9, r18	;  0x8000e9           ; Store to data space
    7d88:	80 91 eb 00 	lds	r24, 0x00EB	;  0x8000eb           ; Load from data space
    7d8c:	80 ff       	sbrs	r24, 0
    7d8e:	1b c0       	rjmp	.+54     	;  0x7dc6              ; Relative jump
    7d90:	93 30       	cpi	r25, 0x03	; 3                     ; Compare with immediate
    7d92:	21 f4       	brne	.+8      	;  0x7d9c              ; Branch if not equal
    7d94:	80 91 eb 00 	lds	r24, 0x00EB	;  0x8000eb           ; Load from data space
    7d98:	80 62       	ori	r24, 0x20	; 32
    7d9a:	13 c0       	rjmp	.+38     	;  0x7dc2              ; Relative jump
    7d9c:	80 91 eb 00 	lds	r24, 0x00EB	;  0x8000eb           ; Load from data space
    7da0:	80 61       	ori	r24, 0x10	; 16
    7da2:	80 93 eb 00 	sts	0x00EB, r24	;  0x8000eb           ; Store to data space
    7da6:	81 e0       	ldi	r24, 0x01	; 1                     ; Load immediate value
    7da8:	90 e0       	ldi	r25, 0x00	; 0                     ; Load immediate value
    7daa:	02 c0       	rjmp	.+4      	;  0x7db0              ; Relative jump
    7dac:	88 0f       	add	r24, r24
    7dae:	99 1f       	adc	r25, r25
    7db0:	2a 95       	dec	r18
    7db2:	e2 f7       	brpl	.-8      	;  0x7dac
    7db4:	80 93 ea 00 	sts	0x00EA, r24	;  0x8000ea           ; Store to data space
    7db8:	10 92 ea 00 	sts	0x00EA, r1	;  0x8000ea            ; Store to data space
    7dbc:	80 91 eb 00 	lds	r24, 0x00EB	;  0x8000eb           ; Load from data space
    7dc0:	88 60       	ori	r24, 0x08	; 8
    7dc2:	80 93 eb 00 	sts	0x00EB, r24	;  0x8000eb           ; Store to data space
    7dc6:	10 92 e9 00 	sts	0x00E9, r1	;  0x8000e9            ; Store to data space
    7dca:	80 91 e8 00 	lds	r24, 0x00E8	;  0x8000e8           ; Load from data space
    7dce:	87 7f       	andi	r24, 0xF7	; 247
    7dd0:	51 c0       	rjmp	.+162    	;  0x7e74              ; Relative jump
    7dd2:	88 23       	and	r24, r24
    7dd4:	09 f0       	breq	.+2      	;  0x7dd8              ; Branch if equal
    7dd6:	6d c0       	rjmp	.+218    	;  0x7eb2              ; Relative jump
    7dd8:	10 91 b8 01 	lds	r17, 0x01B8	;  0x8001b8           ; Load from data space
    7ddc:	1f 77       	andi	r17, 0x7F	; 127
    7dde:	0f b7       	in	r16, 0x3f	; 63                     ; Input from I/O port
    7de0:	f8 94       	cli
    7de2:	80 91 e8 00 	lds	r24, 0x00E8	;  0x8000e8           ; Load from data space
    7de6:	87 7f       	andi	r24, 0xF7	; 247
    7de8:	80 93 e8 00 	sts	0x00E8, r24	;  0x8000e8           ; Store to data space
    7dec:	9a dd       	rcall	.-1228   	;  0x7922
    7dee:	80 91 e8 00 	lds	r24, 0x00E8	;  0x8000e8           ; Load from data space
    7df2:	80 ff       	sbrs	r24, 0
    7df4:	fc cf       	rjmp	.-8      	;  0x7dee              ; Relative jump
    7df6:	80 91 e3 00 	lds	r24, 0x00E3	;  0x8000e3           ; Load from data space
    7dfa:	80 78       	andi	r24, 0x80	; 128
    7dfc:	81 2b       	or	r24, r17
    7dfe:	80 93 e3 00 	sts	0x00E3, r24	;  0x8000e3           ; Store to data space
    7e02:	80 68       	ori	r24, 0x80	; 128
    7e04:	80 93 e3 00 	sts	0x00E3, r24	;  0x8000e3           ; Store to data space
    7e08:	11 23       	and	r17, r17
    7e0a:	11 f4       	brne	.+4      	;  0x7e10              ; Branch if not equal
    7e0c:	82 e0       	ldi	r24, 0x02	; 2                     ; Load immediate value
    7e0e:	01 c0       	rjmp	.+2      	;  0x7e12              ; Relative jump
    7e10:	83 e0       	ldi	r24, 0x03	; 3                     ; Load immediate value
    7e12:	8e bb       	out	0x1e, r24	; 30                    ; Output to I/O port
    7e14:	0f bf       	out	0x3f, r16	; 63                    ; Output to I/O port
    7e16:	4d c0       	rjmp	.+154    	;  0x7eb2              ; Relative jump
    7e18:	80 58       	subi	r24, 0x80	; 128
    7e1a:	82 30       	cpi	r24, 0x02	; 2                     ; Compare with immediate
    7e1c:	08 f0       	brcs	.+2      	;  0x7e20
    7e1e:	49 c0       	rjmp	.+146    	;  0x7eb2              ; Relative jump
    7e20:	80 91 b8 01 	lds	r24, 0x01B8	;  0x8001b8           ; Load from data space
    7e24:	90 91 b9 01 	lds	r25, 0x01B9	;  0x8001b9           ; Load from data space
    7e28:	60 91 ba 01 	lds	r22, 0x01BA	;  0x8001ba           ; Load from data space
    7e2c:	ae 01       	movw	r20, r28
    7e2e:	4f 5f       	subi	r20, 0xFF	; 255
    7e30:	5f 4f       	sbci	r21, 0xFF	; 255
    7e32:	36 dd       	rcall	.-1428   	;  0x78a0
    7e34:	bc 01       	movw	r22, r24
    7e36:	00 97       	sbiw	r24, 0x00	; 0
    7e38:	09 f4       	brne	.+2      	;  0x7e3c              ; Branch if not equal
    7e3a:	3b c0       	rjmp	.+118    	;  0x7eb2              ; Relative jump
    7e3c:	80 91 e8 00 	lds	r24, 0x00E8	;  0x8000e8           ; Load from data space
    7e40:	87 7f       	andi	r24, 0xF7	; 247
    7e42:	80 93 e8 00 	sts	0x00E8, r24	;  0x8000e8           ; Store to data space
    7e46:	89 81       	ldd	r24, Y+1	; 0x01
    7e48:	9a 81       	ldd	r25, Y+2	; 0x02
    7e4a:	92 de       	rcall	.-732    	;  0x7b70
    7e4c:	80 91 e8 00 	lds	r24, 0x00E8	;  0x8000e8           ; Load from data space
    7e50:	8b 77       	andi	r24, 0x7B	; 123
    7e52:	80 93 e8 00 	sts	0x00E8, r24	;  0x8000e8           ; Store to data space
    7e56:	2d c0       	rjmp	.+90     	;  0x7eb2              ; Relative jump
    7e58:	80 38       	cpi	r24, 0x80	; 128                   ; Compare with immediate
    7e5a:	59 f5       	brne	.+86     	;  0x7eb2              ; Branch if not equal
    7e5c:	80 91 e8 00 	lds	r24, 0x00E8	;  0x8000e8           ; Load from data space
    7e60:	87 7f       	andi	r24, 0xF7	; 247
    7e62:	80 93 e8 00 	sts	0x00E8, r24	;  0x8000e8           ; Store to data space
    7e66:	80 91 b4 01 	lds	r24, 0x01B4	;  0x8001b4           ; Load from data space
    7e6a:	80 93 f1 00 	sts	0x00F1, r24	;  0x8000f1           ; Store to data space
    7e6e:	80 91 e8 00 	lds	r24, 0x00E8	;  0x8000e8           ; Load from data space
    7e72:	8e 77       	andi	r24, 0x7E	; 126
    7e74:	80 93 e8 00 	sts	0x00E8, r24	;  0x8000e8           ; Store to data space
    7e78:	54 dd       	rcall	.-1368   	;  0x7922
    7e7a:	1b c0       	rjmp	.+54     	;  0x7eb2              ; Relative jump
    7e7c:	88 23       	and	r24, r24
    7e7e:	c9 f4       	brne	.+50     	;  0x7eb2              ; Branch if not equal
    7e80:	90 91 b8 01 	lds	r25, 0x01B8	;  0x8001b8           ; Load from data space
    7e84:	92 30       	cpi	r25, 0x02	; 2                     ; Compare with immediate
    7e86:	a8 f4       	brcc	.+42     	;  0x7eb2
    7e88:	80 91 e8 00 	lds	r24, 0x00E8	;  0x8000e8           ; Load from data space
    7e8c:	87 7f       	andi	r24, 0xF7	; 247
    7e8e:	80 93 e8 00 	sts	0x00E8, r24	;  0x8000e8           ; Store to data space
    7e92:	90 93 b4 01 	sts	0x01B4, r25	;  0x8001b4           ; Store to data space
    7e96:	45 dd       	rcall	.-1398   	;  0x7922
    7e98:	80 91 b4 01 	lds	r24, 0x01B4	;  0x8001b4           ; Load from data space
    7e9c:	88 23       	and	r24, r24
    7e9e:	31 f4       	brne	.+12     	;  0x7eac              ; Branch if not equal
    7ea0:	80 91 e3 00 	lds	r24, 0x00E3	;  0x8000e3           ; Load from data space
    7ea4:	87 fd       	sbrc	r24, 7
    7ea6:	02 c0       	rjmp	.+4      	;  0x7eac              ; Relative jump
    7ea8:	81 e0       	ldi	r24, 0x01	; 1                     ; Load immediate value
    7eaa:	01 c0       	rjmp	.+2      	;  0x7eae              ; Relative jump
    7eac:	84 e0       	ldi	r24, 0x04	; 4                     ; Load immediate value
    7eae:	8e bb       	out	0x1e, r24	; 30                    ; Output to I/O port
    7eb0:	6c dc       	rcall	.-1832   	;  0x778a
    7eb2:	80 91 e8 00 	lds	r24, 0x00E8	;  0x8000e8           ; Load from data space
    7eb6:	83 ff       	sbrs	r24, 3
    7eb8:	0a c0       	rjmp	.+20     	;  0x7ece              ; Relative jump
    7eba:	80 91 eb 00 	lds	r24, 0x00EB	;  0x8000eb           ; Load from data space
    7ebe:	80 62       	ori	r24, 0x20	; 32
    7ec0:	80 93 eb 00 	sts	0x00EB, r24	;  0x8000eb           ; Store to data space
    7ec4:	80 91 e8 00 	lds	r24, 0x00E8	;  0x8000e8           ; Load from data space
    7ec8:	87 7f       	andi	r24, 0xF7	; 247
    7eca:	80 93 e8 00 	sts	0x00E8, r24	;  0x8000e8           ; Store to data space
    7ece:	0f 90       	pop	r0                                ; Pop from stack
    7ed0:	0f 90       	pop	r0                                ; Pop from stack
    7ed2:	cf 91       	pop	r28                               ; Pop from stack
    7ed4:	df 91       	pop	r29                               ; Pop from stack
    7ed6:	1f 91       	pop	r17                               ; Pop from stack
    7ed8:	0f 91       	pop	r16                               ; Pop from stack
    7eda:	08 95       	ret
    7edc:	08 95       	ret
    7ede:	1f 93       	push	r17                              ; Push onto stack
    7ee0:	8e b3       	in	r24, 0x1e	; 30                     ; Input from I/O port
    7ee2:	88 23       	and	r24, r24
    7ee4:	61 f0       	breq	.+24     	;  0x7efe              ; Branch if equal
    7ee6:	10 91 e9 00 	lds	r17, 0x00E9	;  0x8000e9           ; Load from data space
    7eea:	10 92 e9 00 	sts	0x00E9, r1	;  0x8000e9            ; Store to data space
    7eee:	80 91 e8 00 	lds	r24, 0x00E8	;  0x8000e8           ; Load from data space
    7ef2:	83 ff       	sbrs	r24, 3
    7ef4:	01 c0       	rjmp	.+2      	;  0x7ef8              ; Relative jump
    7ef6:	e4 de       	rcall	.-568    	;  0x7cc0
    7ef8:	17 70       	andi	r17, 0x07	; 7
    7efa:	10 93 e9 00 	sts	0x00E9, r17	;  0x8000e9           ; Store to data space
    7efe:	1f 91       	pop	r17                               ; Pop from stack
    7f00:	08 95       	ret
    7f02:	f9 99       	sbic	0x1f, 1	; 31
    7f04:	fe cf       	rjmp	.-4      	;  0x7f02              ; Relative jump
    7f06:	92 bd       	out	0x22, r25	; 34                    ; Output to I/O port
    7f08:	81 bd       	out	0x21, r24	; 33                    ; Output to I/O port
    7f0a:	f8 9a       	sbi	0x1f, 0	; 31
    7f0c:	99 27       	eor	r25, r25
    7f0e:	80 b5       	in	r24, 0x20	; 32                     ; Input from I/O port
    7f10:	08 95       	ret
    7f12:	26 2f       	mov	r18, r22                          ; Move register to register
    7f14:	f9 99       	sbic	0x1f, 1	; 31
    7f16:	fe cf       	rjmp	.-4      	;  0x7f14              ; Relative jump
    7f18:	1f ba       	out	0x1f, r1	; 31                     ; Output to I/O port
    7f1a:	92 bd       	out	0x22, r25	; 34                    ; Output to I/O port
    7f1c:	81 bd       	out	0x21, r24	; 33                    ; Output to I/O port
    7f1e:	20 bd       	out	0x20, r18	; 32                    ; Output to I/O port
    7f20:	0f b6       	in	r0, 0x3f	; 63                      ; Input from I/O port
    7f22:	f8 94       	cli
    7f24:	fa 9a       	sbi	0x1f, 2	; 31
    7f26:	f9 9a       	sbi	0x1f, 1	; 31
    7f28:	0f be       	out	0x3f, r0	; 63                     ; Output to I/O port
    7f2a:	01 96       	adiw	r24, 0x01	; 1
    7f2c:	08 95       	ret
    7f2e:	f8 94       	cli
    7f30:	ff cf       	rjmp	.-2      	;  0x7f30              ; Relative jump
    7f32:	43 41       	sbci	r20, 0x13	; 19
    7f34:	54 45       	sbci	r21, 0x54	; 84
    7f36:	52 49       	sbci	r21, 0x92	; 146
    7f38:	4e 41       	sbci	r20, 0x1E	; 30
    7f3a:	00 77       	andi	r16, 0x70	; 112
    7f3c:	77 00       	.word	0x0077	; ????
    7f3e:	08 00       	.word	0x0008	; ????
    7f40:	00 00       	nop
    7f42:	00 00       	nop
    7f44:	00 08       	sbc	r0, r0
    7f46:	01 12       	cpse	r0, r17
    7f48:	01 10       	cpse	r0, r1
    7f4a:	01 02       	muls	r16, r17
    7f4c:	00 00       	nop
    7f4e:	08 41       	sbci	r16, 0x18	; 24
    7f50:	23 36       	cpi	r18, 0x63	; 99                    ; Compare with immediate
    7f52:	00 01       	movw	r0, r0
    7f54:	00 02       	muls	r16, r16
    7f56:	01 00       	.word	0x0001	; ????
    7f58:	01 09       	sbc	r16, r1
    7f5a:	02 3e       	cpi	r16, 0xE2	; 226                   ; Compare with immediate
    7f5c:	00 02       	muls	r16, r16
    7f5e:	01 00       	.word	0x0001	; ????
    7f60:	80 32       	cpi	r24, 0x20	; 32                    ; Compare with immediate
    7f62:	09 04       	cpc	r0, r9
    7f64:	00 00       	nop
    7f66:	01 02       	muls	r16, r17
    7f68:	02 01       	movw	r0, r4
    7f6a:	00 05       	cpc	r16, r0
    7f6c:	24 00       	.word	0x0024	; ????
    7f6e:	10 01       	movw	r2, r0
    7f70:	04 24       	eor	r0, r4
    7f72:	02 04       	cpc	r0, r2
    7f74:	05 24       	eor	r0, r5
    7f76:	06 00       	.word	0x0006	; ????
    7f78:	01 07       	cpc	r16, r17
    7f7a:	05 82       	std	Z+5, r0	; 0x05
    7f7c:	03 08       	sbc	r0, r3
    7f7e:	00 ff       	sbrs	r16, 0
    7f80:	09 04       	cpc	r0, r9
    7f82:	01 00       	.word	0x0001	; ????
    7f84:	02 0a       	sbc	r0, r18
    7f86:	00 00       	nop
    7f88:	00 07       	cpc	r16, r16
    7f8a:	05 04       	cpc	r0, r5
    7f8c:	02 10       	cpse	r0, r2
    7f8e:	00 01       	movw	r0, r0
    7f90:	07 05       	cpc	r16, r7
    7f92:	83 02       	muls	r24, r19
    7f94:	10 00       	.word	0x0010	; ????
    7f96:	01 04       	cpc	r0, r1
    7f98:	03 09       	sbc	r16, r3
    7f9a:	04 22       	and	r0, r20
    7f9c:	03 41       	sbci	r16, 0x13	; 19
    7f9e:	00 72       	andi	r16, 0x20	; 32
    7fa0:	00 64       	ori	r16, 0x40	; 64
    7fa2:	00 75       	andi	r16, 0x50	; 80
    7fa4:	00 69       	ori	r16, 0x90	; 144
    7fa6:	00 6e       	ori	r16, 0xE0	; 224
    7fa8:	00 6f       	ori	r16, 0xF0	; 240
    7faa:	00 20       	and	r0, r0
    7fac:	00 4c       	sbci	r16, 0xC0	; 192
    7fae:	00 65       	ori	r16, 0x50	; 80
    7fb0:	00 6f       	ori	r16, 0xF0	; 240
    7fb2:	00 6e       	ori	r16, 0xE0	; 224
    7fb4:	00 61       	ori	r16, 0x10	; 16
    7fb6:	00 72       	andi	r16, 0x20	; 32
    7fb8:	00 64       	ori	r16, 0x40	; 64
    7fba:	00 6f       	ori	r16, 0xF0	; 240
    7fbc:	00 00       	nop
    7fbe:	00 18       	sub	r0, r0
    7fc0:	03 41       	sbci	r16, 0x13	; 19
    7fc2:	00 72       	andi	r16, 0x20	; 32
    7fc4:	00 64       	ori	r16, 0x40	; 64
    7fc6:	00 75       	andi	r16, 0x50	; 80
    7fc8:	00 69       	ori	r16, 0x90	; 144
    7fca:	00 6e       	ori	r16, 0xE0	; 224
    7fcc:	00 6f       	ori	r16, 0xF0	; 240
    7fce:	00 20       	and	r0, r0
    7fd0:	00 4c       	sbci	r16, 0xC0	; 192
    7fd2:	00 4c       	sbci	r16, 0xC0	; 192
    7fd4:	00 43       	sbci	r16, 0x30	; 48
    7fd6:	00 00       	nop
	...
